/*
 * Copyright 2018-2025 Yury Gribov
 *
 * The MIT License (MIT)
 *
 * Use of this source code is governed by MIT license that can be
 * found in the LICENSE.txt file.
 */

  .section .note.GNU-stack,"",%progbits

  .data

  .globl _libglib_2_0_so_tramp_table
  .hidden _libglib_2_0_so_tramp_table
  .align 4
_libglib_2_0_so_tramp_table:
  .zero 7424

  .text

  .globl _libglib_2_0_so_tramp_resolve
  .hidden _libglib_2_0_so_tramp_resolve

  .globl _libglib_2_0_so_save_regs_and_resolve
  .hidden _libglib_2_0_so_save_regs_and_resolve
  .type _libglib_2_0_so_save_regs_and_resolve, %function
_libglib_2_0_so_save_regs_and_resolve:
  .cfi_startproc

#define PUSH_REG(reg) push {reg}; .cfi_adjust_cfa_offset 4; .cfi_rel_offset reg, 0
#define POP_REG(reg) pop {reg} ; .cfi_adjust_cfa_offset -4; .cfi_restore reg

// Binutils 2.30 does not like q0 in .cfi_rel_offset
#define PUSH_DREG_PAIR(reg1, reg2) vpush {reg1, reg2}; .cfi_adjust_cfa_offset 16; .cfi_rel_offset reg1, 0; .cfi_rel_offset reg2, 8
#define POP_DREG_PAIR(reg1, reg2) vpop {reg1, reg2}; .cfi_adjust_cfa_offset -16; .cfi_restore reg1; .cfi_restore reg2

  // Slow path which calls dlsym, taken only on first call.
  // Registers are saved acc. to "Procedure Call Standard for the ARM Architecture".
  // For DWARF directives, read https://www.imperialviolet.org/2017/01/18/cfi.html.

  // Stack is aligned at 16 bytes at this point

  // Save only arguments (and lr)
  PUSH_REG(r0)
  ldr r0, [sp, #8]
  PUSH_REG(r1)
  PUSH_REG(r2)
  PUSH_REG(r3)
  PUSH_REG(lr)
  PUSH_REG(lr)  // Align to 8 bytes

  // Arguments can be passed in VFP registers only when hard-float ABI is used
  // for arm-gnueabihf target // (http://android-doc.github.io/ndk/guides/abis.html#v7a).
  // Use compiler macro to detect this case.
#ifdef __ARM_PCS_VFP
  PUSH_DREG_PAIR(d0, d1)
  PUSH_DREG_PAIR(d2, d3)
  PUSH_DREG_PAIR(d4, d5)
  PUSH_DREG_PAIR(d6, d7)
  PUSH_DREG_PAIR(d8, d9)
  PUSH_DREG_PAIR(d10, d11)
  PUSH_DREG_PAIR(d12, d13)
  PUSH_DREG_PAIR(d14, d15)
  // FIXME: NEON actually supports 32 D-registers but it's unclear how to detect this
#endif

  bl _libglib_2_0_so_tramp_resolve(PLT)
  mov ip, r0

#ifdef __ARM_PCS_VFP
  POP_DREG_PAIR(d14, d15)
  POP_DREG_PAIR(d12, d13)
  POP_DREG_PAIR(d10, d11)
  POP_DREG_PAIR(d8, d9)
  POP_DREG_PAIR(d6, d7)
  POP_DREG_PAIR(d4, d5)
  POP_DREG_PAIR(d2, d3)
  POP_DREG_PAIR(d0, d1)
#endif

  POP_REG(lr)  // TODO: pop pc?
  POP_REG(lr)
  POP_REG(r3)
  POP_REG(r2)
  POP_REG(r1)
  POP_REG(r0)

  bx lr

  .cfi_endproc

/*
 * Copyright 2018-2025 Yury Gribov
 *
 * The MIT License (MIT)
 *
 * Use of this source code is governed by MIT license that can be
 * found in the LICENSE.txt file.
 */

  .globl g_access
  .p2align 4
  .type g_access, %function
#ifndef IMPLIB_EXPORT_SHIMS
  .hidden g_access
#endif
g_access:
  .cfi_startproc

1:
  // Load address
  // TODO: can we do this faster on newer ARMs?
  ldr ip, 3f
2:
  add ip, pc, ip
  ldr ip, [ip]

  cmp ip, #0

  // Fast path
  bxne ip

  // Slow path
  ldr ip, =0
  push {ip}
  .cfi_adjust_cfa_offset 4
  PUSH_REG(lr)
  bl _libglib_2_0_so_save_regs_and_resolve
  POP_REG(lr)
  add sp, #4
  .cfi_adjust_cfa_offset -4
  bx ip

  // Force constant pool for ldr above
  .ltorg

  .cfi_endproc

3:
  .word _libglib_2_0_so_tramp_table - (2b + 8) + 0

/*
 * Copyright 2018-2025 Yury Gribov
 *
 * The MIT License (MIT)
 *
 * Use of this source code is governed by MIT license that can be
 * found in the LICENSE.txt file.
 */

  .globl g_aligned_alloc
  .p2align 4
  .type g_aligned_alloc, %function
#ifndef IMPLIB_EXPORT_SHIMS
  .hidden g_aligned_alloc
#endif
g_aligned_alloc:
  .cfi_startproc

1:
  // Load address
  // TODO: can we do this faster on newer ARMs?
  ldr ip, 3f
2:
  add ip, pc, ip
  ldr ip, [ip]

  cmp ip, #0

  // Fast path
  bxne ip

  // Slow path
  ldr ip, =1
  push {ip}
  .cfi_adjust_cfa_offset 4
  PUSH_REG(lr)
  bl _libglib_2_0_so_save_regs_and_resolve
  POP_REG(lr)
  add sp, #4
  .cfi_adjust_cfa_offset -4
  bx ip

  // Force constant pool for ldr above
  .ltorg

  .cfi_endproc

3:
  .word _libglib_2_0_so_tramp_table - (2b + 8) + 4

/*
 * Copyright 2018-2025 Yury Gribov
 *
 * The MIT License (MIT)
 *
 * Use of this source code is governed by MIT license that can be
 * found in the LICENSE.txt file.
 */

  .globl g_aligned_alloc0
  .p2align 4
  .type g_aligned_alloc0, %function
#ifndef IMPLIB_EXPORT_SHIMS
  .hidden g_aligned_alloc0
#endif
g_aligned_alloc0:
  .cfi_startproc

1:
  // Load address
  // TODO: can we do this faster on newer ARMs?
  ldr ip, 3f
2:
  add ip, pc, ip
  ldr ip, [ip]

  cmp ip, #0

  // Fast path
  bxne ip

  // Slow path
  ldr ip, =2
  push {ip}
  .cfi_adjust_cfa_offset 4
  PUSH_REG(lr)
  bl _libglib_2_0_so_save_regs_and_resolve
  POP_REG(lr)
  add sp, #4
  .cfi_adjust_cfa_offset -4
  bx ip

  // Force constant pool for ldr above
  .ltorg

  .cfi_endproc

3:
  .word _libglib_2_0_so_tramp_table - (2b + 8) + 8

/*
 * Copyright 2018-2025 Yury Gribov
 *
 * The MIT License (MIT)
 *
 * Use of this source code is governed by MIT license that can be
 * found in the LICENSE.txt file.
 */

  .globl g_aligned_free
  .p2align 4
  .type g_aligned_free, %function
#ifndef IMPLIB_EXPORT_SHIMS
  .hidden g_aligned_free
#endif
g_aligned_free:
  .cfi_startproc

1:
  // Load address
  // TODO: can we do this faster on newer ARMs?
  ldr ip, 3f
2:
  add ip, pc, ip
  ldr ip, [ip]

  cmp ip, #0

  // Fast path
  bxne ip

  // Slow path
  ldr ip, =3
  push {ip}
  .cfi_adjust_cfa_offset 4
  PUSH_REG(lr)
  bl _libglib_2_0_so_save_regs_and_resolve
  POP_REG(lr)
  add sp, #4
  .cfi_adjust_cfa_offset -4
  bx ip

  // Force constant pool for ldr above
  .ltorg

  .cfi_endproc

3:
  .word _libglib_2_0_so_tramp_table - (2b + 8) + 12

/*
 * Copyright 2018-2025 Yury Gribov
 *
 * The MIT License (MIT)
 *
 * Use of this source code is governed by MIT license that can be
 * found in the LICENSE.txt file.
 */

  .globl g_aligned_free_sized
  .p2align 4
  .type g_aligned_free_sized, %function
#ifndef IMPLIB_EXPORT_SHIMS
  .hidden g_aligned_free_sized
#endif
g_aligned_free_sized:
  .cfi_startproc

1:
  // Load address
  // TODO: can we do this faster on newer ARMs?
  ldr ip, 3f
2:
  add ip, pc, ip
  ldr ip, [ip]

  cmp ip, #0

  // Fast path
  bxne ip

  // Slow path
  ldr ip, =4
  push {ip}
  .cfi_adjust_cfa_offset 4
  PUSH_REG(lr)
  bl _libglib_2_0_so_save_regs_and_resolve
  POP_REG(lr)
  add sp, #4
  .cfi_adjust_cfa_offset -4
  bx ip

  // Force constant pool for ldr above
  .ltorg

  .cfi_endproc

3:
  .word _libglib_2_0_so_tramp_table - (2b + 8) + 16

/*
 * Copyright 2018-2025 Yury Gribov
 *
 * The MIT License (MIT)
 *
 * Use of this source code is governed by MIT license that can be
 * found in the LICENSE.txt file.
 */

  .globl g_allocator_free
  .p2align 4
  .type g_allocator_free, %function
#ifndef IMPLIB_EXPORT_SHIMS
  .hidden g_allocator_free
#endif
g_allocator_free:
  .cfi_startproc

1:
  // Load address
  // TODO: can we do this faster on newer ARMs?
  ldr ip, 3f
2:
  add ip, pc, ip
  ldr ip, [ip]

  cmp ip, #0

  // Fast path
  bxne ip

  // Slow path
  ldr ip, =5
  push {ip}
  .cfi_adjust_cfa_offset 4
  PUSH_REG(lr)
  bl _libglib_2_0_so_save_regs_and_resolve
  POP_REG(lr)
  add sp, #4
  .cfi_adjust_cfa_offset -4
  bx ip

  // Force constant pool for ldr above
  .ltorg

  .cfi_endproc

3:
  .word _libglib_2_0_so_tramp_table - (2b + 8) + 20

/*
 * Copyright 2018-2025 Yury Gribov
 *
 * The MIT License (MIT)
 *
 * Use of this source code is governed by MIT license that can be
 * found in the LICENSE.txt file.
 */

  .globl g_allocator_new
  .p2align 4
  .type g_allocator_new, %function
#ifndef IMPLIB_EXPORT_SHIMS
  .hidden g_allocator_new
#endif
g_allocator_new:
  .cfi_startproc

1:
  // Load address
  // TODO: can we do this faster on newer ARMs?
  ldr ip, 3f
2:
  add ip, pc, ip
  ldr ip, [ip]

  cmp ip, #0

  // Fast path
  bxne ip

  // Slow path
  ldr ip, =6
  push {ip}
  .cfi_adjust_cfa_offset 4
  PUSH_REG(lr)
  bl _libglib_2_0_so_save_regs_and_resolve
  POP_REG(lr)
  add sp, #4
  .cfi_adjust_cfa_offset -4
  bx ip

  // Force constant pool for ldr above
  .ltorg

  .cfi_endproc

3:
  .word _libglib_2_0_so_tramp_table - (2b + 8) + 24

/*
 * Copyright 2018-2025 Yury Gribov
 *
 * The MIT License (MIT)
 *
 * Use of this source code is governed by MIT license that can be
 * found in the LICENSE.txt file.
 */

  .globl g_array_append_vals
  .p2align 4
  .type g_array_append_vals, %function
#ifndef IMPLIB_EXPORT_SHIMS
  .hidden g_array_append_vals
#endif
g_array_append_vals:
  .cfi_startproc

1:
  // Load address
  // TODO: can we do this faster on newer ARMs?
  ldr ip, 3f
2:
  add ip, pc, ip
  ldr ip, [ip]

  cmp ip, #0

  // Fast path
  bxne ip

  // Slow path
  ldr ip, =7
  push {ip}
  .cfi_adjust_cfa_offset 4
  PUSH_REG(lr)
  bl _libglib_2_0_so_save_regs_and_resolve
  POP_REG(lr)
  add sp, #4
  .cfi_adjust_cfa_offset -4
  bx ip

  // Force constant pool for ldr above
  .ltorg

  .cfi_endproc

3:
  .word _libglib_2_0_so_tramp_table - (2b + 8) + 28

/*
 * Copyright 2018-2025 Yury Gribov
 *
 * The MIT License (MIT)
 *
 * Use of this source code is governed by MIT license that can be
 * found in the LICENSE.txt file.
 */

  .globl g_array_binary_search
  .p2align 4
  .type g_array_binary_search, %function
#ifndef IMPLIB_EXPORT_SHIMS
  .hidden g_array_binary_search
#endif
g_array_binary_search:
  .cfi_startproc

1:
  // Load address
  // TODO: can we do this faster on newer ARMs?
  ldr ip, 3f
2:
  add ip, pc, ip
  ldr ip, [ip]

  cmp ip, #0

  // Fast path
  bxne ip

  // Slow path
  ldr ip, =8
  push {ip}
  .cfi_adjust_cfa_offset 4
  PUSH_REG(lr)
  bl _libglib_2_0_so_save_regs_and_resolve
  POP_REG(lr)
  add sp, #4
  .cfi_adjust_cfa_offset -4
  bx ip

  // Force constant pool for ldr above
  .ltorg

  .cfi_endproc

3:
  .word _libglib_2_0_so_tramp_table - (2b + 8) + 32

/*
 * Copyright 2018-2025 Yury Gribov
 *
 * The MIT License (MIT)
 *
 * Use of this source code is governed by MIT license that can be
 * found in the LICENSE.txt file.
 */

  .globl g_array_copy
  .p2align 4
  .type g_array_copy, %function
#ifndef IMPLIB_EXPORT_SHIMS
  .hidden g_array_copy
#endif
g_array_copy:
  .cfi_startproc

1:
  // Load address
  // TODO: can we do this faster on newer ARMs?
  ldr ip, 3f
2:
  add ip, pc, ip
  ldr ip, [ip]

  cmp ip, #0

  // Fast path
  bxne ip

  // Slow path
  ldr ip, =9
  push {ip}
  .cfi_adjust_cfa_offset 4
  PUSH_REG(lr)
  bl _libglib_2_0_so_save_regs_and_resolve
  POP_REG(lr)
  add sp, #4
  .cfi_adjust_cfa_offset -4
  bx ip

  // Force constant pool for ldr above
  .ltorg

  .cfi_endproc

3:
  .word _libglib_2_0_so_tramp_table - (2b + 8) + 36

/*
 * Copyright 2018-2025 Yury Gribov
 *
 * The MIT License (MIT)
 *
 * Use of this source code is governed by MIT license that can be
 * found in the LICENSE.txt file.
 */

  .globl g_array_free
  .p2align 4
  .type g_array_free, %function
#ifndef IMPLIB_EXPORT_SHIMS
  .hidden g_array_free
#endif
g_array_free:
  .cfi_startproc

1:
  // Load address
  // TODO: can we do this faster on newer ARMs?
  ldr ip, 3f
2:
  add ip, pc, ip
  ldr ip, [ip]

  cmp ip, #0

  // Fast path
  bxne ip

  // Slow path
  ldr ip, =10
  push {ip}
  .cfi_adjust_cfa_offset 4
  PUSH_REG(lr)
  bl _libglib_2_0_so_save_regs_and_resolve
  POP_REG(lr)
  add sp, #4
  .cfi_adjust_cfa_offset -4
  bx ip

  // Force constant pool for ldr above
  .ltorg

  .cfi_endproc

3:
  .word _libglib_2_0_so_tramp_table - (2b + 8) + 40

/*
 * Copyright 2018-2025 Yury Gribov
 *
 * The MIT License (MIT)
 *
 * Use of this source code is governed by MIT license that can be
 * found in the LICENSE.txt file.
 */

  .globl g_array_get_element_size
  .p2align 4
  .type g_array_get_element_size, %function
#ifndef IMPLIB_EXPORT_SHIMS
  .hidden g_array_get_element_size
#endif
g_array_get_element_size:
  .cfi_startproc

1:
  // Load address
  // TODO: can we do this faster on newer ARMs?
  ldr ip, 3f
2:
  add ip, pc, ip
  ldr ip, [ip]

  cmp ip, #0

  // Fast path
  bxne ip

  // Slow path
  ldr ip, =11
  push {ip}
  .cfi_adjust_cfa_offset 4
  PUSH_REG(lr)
  bl _libglib_2_0_so_save_regs_and_resolve
  POP_REG(lr)
  add sp, #4
  .cfi_adjust_cfa_offset -4
  bx ip

  // Force constant pool for ldr above
  .ltorg

  .cfi_endproc

3:
  .word _libglib_2_0_so_tramp_table - (2b + 8) + 44

/*
 * Copyright 2018-2025 Yury Gribov
 *
 * The MIT License (MIT)
 *
 * Use of this source code is governed by MIT license that can be
 * found in the LICENSE.txt file.
 */

  .globl g_array_insert_vals
  .p2align 4
  .type g_array_insert_vals, %function
#ifndef IMPLIB_EXPORT_SHIMS
  .hidden g_array_insert_vals
#endif
g_array_insert_vals:
  .cfi_startproc

1:
  // Load address
  // TODO: can we do this faster on newer ARMs?
  ldr ip, 3f
2:
  add ip, pc, ip
  ldr ip, [ip]

  cmp ip, #0

  // Fast path
  bxne ip

  // Slow path
  ldr ip, =12
  push {ip}
  .cfi_adjust_cfa_offset 4
  PUSH_REG(lr)
  bl _libglib_2_0_so_save_regs_and_resolve
  POP_REG(lr)
  add sp, #4
  .cfi_adjust_cfa_offset -4
  bx ip

  // Force constant pool for ldr above
  .ltorg

  .cfi_endproc

3:
  .word _libglib_2_0_so_tramp_table - (2b + 8) + 48

/*
 * Copyright 2018-2025 Yury Gribov
 *
 * The MIT License (MIT)
 *
 * Use of this source code is governed by MIT license that can be
 * found in the LICENSE.txt file.
 */

  .globl g_array_new
  .p2align 4
  .type g_array_new, %function
#ifndef IMPLIB_EXPORT_SHIMS
  .hidden g_array_new
#endif
g_array_new:
  .cfi_startproc

1:
  // Load address
  // TODO: can we do this faster on newer ARMs?
  ldr ip, 3f
2:
  add ip, pc, ip
  ldr ip, [ip]

  cmp ip, #0

  // Fast path
  bxne ip

  // Slow path
  ldr ip, =13
  push {ip}
  .cfi_adjust_cfa_offset 4
  PUSH_REG(lr)
  bl _libglib_2_0_so_save_regs_and_resolve
  POP_REG(lr)
  add sp, #4
  .cfi_adjust_cfa_offset -4
  bx ip

  // Force constant pool for ldr above
  .ltorg

  .cfi_endproc

3:
  .word _libglib_2_0_so_tramp_table - (2b + 8) + 52

/*
 * Copyright 2018-2025 Yury Gribov
 *
 * The MIT License (MIT)
 *
 * Use of this source code is governed by MIT license that can be
 * found in the LICENSE.txt file.
 */

  .globl g_array_new_take
  .p2align 4
  .type g_array_new_take, %function
#ifndef IMPLIB_EXPORT_SHIMS
  .hidden g_array_new_take
#endif
g_array_new_take:
  .cfi_startproc

1:
  // Load address
  // TODO: can we do this faster on newer ARMs?
  ldr ip, 3f
2:
  add ip, pc, ip
  ldr ip, [ip]

  cmp ip, #0

  // Fast path
  bxne ip

  // Slow path
  ldr ip, =14
  push {ip}
  .cfi_adjust_cfa_offset 4
  PUSH_REG(lr)
  bl _libglib_2_0_so_save_regs_and_resolve
  POP_REG(lr)
  add sp, #4
  .cfi_adjust_cfa_offset -4
  bx ip

  // Force constant pool for ldr above
  .ltorg

  .cfi_endproc

3:
  .word _libglib_2_0_so_tramp_table - (2b + 8) + 56

/*
 * Copyright 2018-2025 Yury Gribov
 *
 * The MIT License (MIT)
 *
 * Use of this source code is governed by MIT license that can be
 * found in the LICENSE.txt file.
 */

  .globl g_array_new_take_zero_terminated
  .p2align 4
  .type g_array_new_take_zero_terminated, %function
#ifndef IMPLIB_EXPORT_SHIMS
  .hidden g_array_new_take_zero_terminated
#endif
g_array_new_take_zero_terminated:
  .cfi_startproc

1:
  // Load address
  // TODO: can we do this faster on newer ARMs?
  ldr ip, 3f
2:
  add ip, pc, ip
  ldr ip, [ip]

  cmp ip, #0

  // Fast path
  bxne ip

  // Slow path
  ldr ip, =15
  push {ip}
  .cfi_adjust_cfa_offset 4
  PUSH_REG(lr)
  bl _libglib_2_0_so_save_regs_and_resolve
  POP_REG(lr)
  add sp, #4
  .cfi_adjust_cfa_offset -4
  bx ip

  // Force constant pool for ldr above
  .ltorg

  .cfi_endproc

3:
  .word _libglib_2_0_so_tramp_table - (2b + 8) + 60

/*
 * Copyright 2018-2025 Yury Gribov
 *
 * The MIT License (MIT)
 *
 * Use of this source code is governed by MIT license that can be
 * found in the LICENSE.txt file.
 */

  .globl g_array_prepend_vals
  .p2align 4
  .type g_array_prepend_vals, %function
#ifndef IMPLIB_EXPORT_SHIMS
  .hidden g_array_prepend_vals
#endif
g_array_prepend_vals:
  .cfi_startproc

1:
  // Load address
  // TODO: can we do this faster on newer ARMs?
  ldr ip, 3f
2:
  add ip, pc, ip
  ldr ip, [ip]

  cmp ip, #0

  // Fast path
  bxne ip

  // Slow path
  ldr ip, =16
  push {ip}
  .cfi_adjust_cfa_offset 4
  PUSH_REG(lr)
  bl _libglib_2_0_so_save_regs_and_resolve
  POP_REG(lr)
  add sp, #4
  .cfi_adjust_cfa_offset -4
  bx ip

  // Force constant pool for ldr above
  .ltorg

  .cfi_endproc

3:
  .word _libglib_2_0_so_tramp_table - (2b + 8) + 64

/*
 * Copyright 2018-2025 Yury Gribov
 *
 * The MIT License (MIT)
 *
 * Use of this source code is governed by MIT license that can be
 * found in the LICENSE.txt file.
 */

  .globl g_array_ref
  .p2align 4
  .type g_array_ref, %function
#ifndef IMPLIB_EXPORT_SHIMS
  .hidden g_array_ref
#endif
g_array_ref:
  .cfi_startproc

1:
  // Load address
  // TODO: can we do this faster on newer ARMs?
  ldr ip, 3f
2:
  add ip, pc, ip
  ldr ip, [ip]

  cmp ip, #0

  // Fast path
  bxne ip

  // Slow path
  ldr ip, =17
  push {ip}
  .cfi_adjust_cfa_offset 4
  PUSH_REG(lr)
  bl _libglib_2_0_so_save_regs_and_resolve
  POP_REG(lr)
  add sp, #4
  .cfi_adjust_cfa_offset -4
  bx ip

  // Force constant pool for ldr above
  .ltorg

  .cfi_endproc

3:
  .word _libglib_2_0_so_tramp_table - (2b + 8) + 68

/*
 * Copyright 2018-2025 Yury Gribov
 *
 * The MIT License (MIT)
 *
 * Use of this source code is governed by MIT license that can be
 * found in the LICENSE.txt file.
 */

  .globl g_array_remove_index
  .p2align 4
  .type g_array_remove_index, %function
#ifndef IMPLIB_EXPORT_SHIMS
  .hidden g_array_remove_index
#endif
g_array_remove_index:
  .cfi_startproc

1:
  // Load address
  // TODO: can we do this faster on newer ARMs?
  ldr ip, 3f
2:
  add ip, pc, ip
  ldr ip, [ip]

  cmp ip, #0

  // Fast path
  bxne ip

  // Slow path
  ldr ip, =18
  push {ip}
  .cfi_adjust_cfa_offset 4
  PUSH_REG(lr)
  bl _libglib_2_0_so_save_regs_and_resolve
  POP_REG(lr)
  add sp, #4
  .cfi_adjust_cfa_offset -4
  bx ip

  // Force constant pool for ldr above
  .ltorg

  .cfi_endproc

3:
  .word _libglib_2_0_so_tramp_table - (2b + 8) + 72

/*
 * Copyright 2018-2025 Yury Gribov
 *
 * The MIT License (MIT)
 *
 * Use of this source code is governed by MIT license that can be
 * found in the LICENSE.txt file.
 */

  .globl g_array_remove_index_fast
  .p2align 4
  .type g_array_remove_index_fast, %function
#ifndef IMPLIB_EXPORT_SHIMS
  .hidden g_array_remove_index_fast
#endif
g_array_remove_index_fast:
  .cfi_startproc

1:
  // Load address
  // TODO: can we do this faster on newer ARMs?
  ldr ip, 3f
2:
  add ip, pc, ip
  ldr ip, [ip]

  cmp ip, #0

  // Fast path
  bxne ip

  // Slow path
  ldr ip, =19
  push {ip}
  .cfi_adjust_cfa_offset 4
  PUSH_REG(lr)
  bl _libglib_2_0_so_save_regs_and_resolve
  POP_REG(lr)
  add sp, #4
  .cfi_adjust_cfa_offset -4
  bx ip

  // Force constant pool for ldr above
  .ltorg

  .cfi_endproc

3:
  .word _libglib_2_0_so_tramp_table - (2b + 8) + 76

/*
 * Copyright 2018-2025 Yury Gribov
 *
 * The MIT License (MIT)
 *
 * Use of this source code is governed by MIT license that can be
 * found in the LICENSE.txt file.
 */

  .globl g_array_remove_range
  .p2align 4
  .type g_array_remove_range, %function
#ifndef IMPLIB_EXPORT_SHIMS
  .hidden g_array_remove_range
#endif
g_array_remove_range:
  .cfi_startproc

1:
  // Load address
  // TODO: can we do this faster on newer ARMs?
  ldr ip, 3f
2:
  add ip, pc, ip
  ldr ip, [ip]

  cmp ip, #0

  // Fast path
  bxne ip

  // Slow path
  ldr ip, =20
  push {ip}
  .cfi_adjust_cfa_offset 4
  PUSH_REG(lr)
  bl _libglib_2_0_so_save_regs_and_resolve
  POP_REG(lr)
  add sp, #4
  .cfi_adjust_cfa_offset -4
  bx ip

  // Force constant pool for ldr above
  .ltorg

  .cfi_endproc

3:
  .word _libglib_2_0_so_tramp_table - (2b + 8) + 80

/*
 * Copyright 2018-2025 Yury Gribov
 *
 * The MIT License (MIT)
 *
 * Use of this source code is governed by MIT license that can be
 * found in the LICENSE.txt file.
 */

  .globl g_array_set_clear_func
  .p2align 4
  .type g_array_set_clear_func, %function
#ifndef IMPLIB_EXPORT_SHIMS
  .hidden g_array_set_clear_func
#endif
g_array_set_clear_func:
  .cfi_startproc

1:
  // Load address
  // TODO: can we do this faster on newer ARMs?
  ldr ip, 3f
2:
  add ip, pc, ip
  ldr ip, [ip]

  cmp ip, #0

  // Fast path
  bxne ip

  // Slow path
  ldr ip, =21
  push {ip}
  .cfi_adjust_cfa_offset 4
  PUSH_REG(lr)
  bl _libglib_2_0_so_save_regs_and_resolve
  POP_REG(lr)
  add sp, #4
  .cfi_adjust_cfa_offset -4
  bx ip

  // Force constant pool for ldr above
  .ltorg

  .cfi_endproc

3:
  .word _libglib_2_0_so_tramp_table - (2b + 8) + 84

/*
 * Copyright 2018-2025 Yury Gribov
 *
 * The MIT License (MIT)
 *
 * Use of this source code is governed by MIT license that can be
 * found in the LICENSE.txt file.
 */

  .globl g_array_set_size
  .p2align 4
  .type g_array_set_size, %function
#ifndef IMPLIB_EXPORT_SHIMS
  .hidden g_array_set_size
#endif
g_array_set_size:
  .cfi_startproc

1:
  // Load address
  // TODO: can we do this faster on newer ARMs?
  ldr ip, 3f
2:
  add ip, pc, ip
  ldr ip, [ip]

  cmp ip, #0

  // Fast path
  bxne ip

  // Slow path
  ldr ip, =22
  push {ip}
  .cfi_adjust_cfa_offset 4
  PUSH_REG(lr)
  bl _libglib_2_0_so_save_regs_and_resolve
  POP_REG(lr)
  add sp, #4
  .cfi_adjust_cfa_offset -4
  bx ip

  // Force constant pool for ldr above
  .ltorg

  .cfi_endproc

3:
  .word _libglib_2_0_so_tramp_table - (2b + 8) + 88

/*
 * Copyright 2018-2025 Yury Gribov
 *
 * The MIT License (MIT)
 *
 * Use of this source code is governed by MIT license that can be
 * found in the LICENSE.txt file.
 */

  .globl g_array_sized_new
  .p2align 4
  .type g_array_sized_new, %function
#ifndef IMPLIB_EXPORT_SHIMS
  .hidden g_array_sized_new
#endif
g_array_sized_new:
  .cfi_startproc

1:
  // Load address
  // TODO: can we do this faster on newer ARMs?
  ldr ip, 3f
2:
  add ip, pc, ip
  ldr ip, [ip]

  cmp ip, #0

  // Fast path
  bxne ip

  // Slow path
  ldr ip, =23
  push {ip}
  .cfi_adjust_cfa_offset 4
  PUSH_REG(lr)
  bl _libglib_2_0_so_save_regs_and_resolve
  POP_REG(lr)
  add sp, #4
  .cfi_adjust_cfa_offset -4
  bx ip

  // Force constant pool for ldr above
  .ltorg

  .cfi_endproc

3:
  .word _libglib_2_0_so_tramp_table - (2b + 8) + 92

/*
 * Copyright 2018-2025 Yury Gribov
 *
 * The MIT License (MIT)
 *
 * Use of this source code is governed by MIT license that can be
 * found in the LICENSE.txt file.
 */

  .globl g_array_sort
  .p2align 4
  .type g_array_sort, %function
#ifndef IMPLIB_EXPORT_SHIMS
  .hidden g_array_sort
#endif
g_array_sort:
  .cfi_startproc

1:
  // Load address
  // TODO: can we do this faster on newer ARMs?
  ldr ip, 3f
2:
  add ip, pc, ip
  ldr ip, [ip]

  cmp ip, #0

  // Fast path
  bxne ip

  // Slow path
  ldr ip, =24
  push {ip}
  .cfi_adjust_cfa_offset 4
  PUSH_REG(lr)
  bl _libglib_2_0_so_save_regs_and_resolve
  POP_REG(lr)
  add sp, #4
  .cfi_adjust_cfa_offset -4
  bx ip

  // Force constant pool for ldr above
  .ltorg

  .cfi_endproc

3:
  .word _libglib_2_0_so_tramp_table - (2b + 8) + 96

/*
 * Copyright 2018-2025 Yury Gribov
 *
 * The MIT License (MIT)
 *
 * Use of this source code is governed by MIT license that can be
 * found in the LICENSE.txt file.
 */

  .globl g_array_sort_with_data
  .p2align 4
  .type g_array_sort_with_data, %function
#ifndef IMPLIB_EXPORT_SHIMS
  .hidden g_array_sort_with_data
#endif
g_array_sort_with_data:
  .cfi_startproc

1:
  // Load address
  // TODO: can we do this faster on newer ARMs?
  ldr ip, 3f
2:
  add ip, pc, ip
  ldr ip, [ip]

  cmp ip, #0

  // Fast path
  bxne ip

  // Slow path
  ldr ip, =25
  push {ip}
  .cfi_adjust_cfa_offset 4
  PUSH_REG(lr)
  bl _libglib_2_0_so_save_regs_and_resolve
  POP_REG(lr)
  add sp, #4
  .cfi_adjust_cfa_offset -4
  bx ip

  // Force constant pool for ldr above
  .ltorg

  .cfi_endproc

3:
  .word _libglib_2_0_so_tramp_table - (2b + 8) + 100

/*
 * Copyright 2018-2025 Yury Gribov
 *
 * The MIT License (MIT)
 *
 * Use of this source code is governed by MIT license that can be
 * found in the LICENSE.txt file.
 */

  .globl g_array_steal
  .p2align 4
  .type g_array_steal, %function
#ifndef IMPLIB_EXPORT_SHIMS
  .hidden g_array_steal
#endif
g_array_steal:
  .cfi_startproc

1:
  // Load address
  // TODO: can we do this faster on newer ARMs?
  ldr ip, 3f
2:
  add ip, pc, ip
  ldr ip, [ip]

  cmp ip, #0

  // Fast path
  bxne ip

  // Slow path
  ldr ip, =26
  push {ip}
  .cfi_adjust_cfa_offset 4
  PUSH_REG(lr)
  bl _libglib_2_0_so_save_regs_and_resolve
  POP_REG(lr)
  add sp, #4
  .cfi_adjust_cfa_offset -4
  bx ip

  // Force constant pool for ldr above
  .ltorg

  .cfi_endproc

3:
  .word _libglib_2_0_so_tramp_table - (2b + 8) + 104

/*
 * Copyright 2018-2025 Yury Gribov
 *
 * The MIT License (MIT)
 *
 * Use of this source code is governed by MIT license that can be
 * found in the LICENSE.txt file.
 */

  .globl g_array_unref
  .p2align 4
  .type g_array_unref, %function
#ifndef IMPLIB_EXPORT_SHIMS
  .hidden g_array_unref
#endif
g_array_unref:
  .cfi_startproc

1:
  // Load address
  // TODO: can we do this faster on newer ARMs?
  ldr ip, 3f
2:
  add ip, pc, ip
  ldr ip, [ip]

  cmp ip, #0

  // Fast path
  bxne ip

  // Slow path
  ldr ip, =27
  push {ip}
  .cfi_adjust_cfa_offset 4
  PUSH_REG(lr)
  bl _libglib_2_0_so_save_regs_and_resolve
  POP_REG(lr)
  add sp, #4
  .cfi_adjust_cfa_offset -4
  bx ip

  // Force constant pool for ldr above
  .ltorg

  .cfi_endproc

3:
  .word _libglib_2_0_so_tramp_table - (2b + 8) + 108

/*
 * Copyright 2018-2025 Yury Gribov
 *
 * The MIT License (MIT)
 *
 * Use of this source code is governed by MIT license that can be
 * found in the LICENSE.txt file.
 */

  .globl g_ascii_digit_value
  .p2align 4
  .type g_ascii_digit_value, %function
#ifndef IMPLIB_EXPORT_SHIMS
  .hidden g_ascii_digit_value
#endif
g_ascii_digit_value:
  .cfi_startproc

1:
  // Load address
  // TODO: can we do this faster on newer ARMs?
  ldr ip, 3f
2:
  add ip, pc, ip
  ldr ip, [ip]

  cmp ip, #0

  // Fast path
  bxne ip

  // Slow path
  ldr ip, =28
  push {ip}
  .cfi_adjust_cfa_offset 4
  PUSH_REG(lr)
  bl _libglib_2_0_so_save_regs_and_resolve
  POP_REG(lr)
  add sp, #4
  .cfi_adjust_cfa_offset -4
  bx ip

  // Force constant pool for ldr above
  .ltorg

  .cfi_endproc

3:
  .word _libglib_2_0_so_tramp_table - (2b + 8) + 112

/*
 * Copyright 2018-2025 Yury Gribov
 *
 * The MIT License (MIT)
 *
 * Use of this source code is governed by MIT license that can be
 * found in the LICENSE.txt file.
 */

  .globl g_ascii_dtostr
  .p2align 4
  .type g_ascii_dtostr, %function
#ifndef IMPLIB_EXPORT_SHIMS
  .hidden g_ascii_dtostr
#endif
g_ascii_dtostr:
  .cfi_startproc

1:
  // Load address
  // TODO: can we do this faster on newer ARMs?
  ldr ip, 3f
2:
  add ip, pc, ip
  ldr ip, [ip]

  cmp ip, #0

  // Fast path
  bxne ip

  // Slow path
  ldr ip, =29
  push {ip}
  .cfi_adjust_cfa_offset 4
  PUSH_REG(lr)
  bl _libglib_2_0_so_save_regs_and_resolve
  POP_REG(lr)
  add sp, #4
  .cfi_adjust_cfa_offset -4
  bx ip

  // Force constant pool for ldr above
  .ltorg

  .cfi_endproc

3:
  .word _libglib_2_0_so_tramp_table - (2b + 8) + 116

/*
 * Copyright 2018-2025 Yury Gribov
 *
 * The MIT License (MIT)
 *
 * Use of this source code is governed by MIT license that can be
 * found in the LICENSE.txt file.
 */

  .globl g_ascii_formatd
  .p2align 4
  .type g_ascii_formatd, %function
#ifndef IMPLIB_EXPORT_SHIMS
  .hidden g_ascii_formatd
#endif
g_ascii_formatd:
  .cfi_startproc

1:
  // Load address
  // TODO: can we do this faster on newer ARMs?
  ldr ip, 3f
2:
  add ip, pc, ip
  ldr ip, [ip]

  cmp ip, #0

  // Fast path
  bxne ip

  // Slow path
  ldr ip, =30
  push {ip}
  .cfi_adjust_cfa_offset 4
  PUSH_REG(lr)
  bl _libglib_2_0_so_save_regs_and_resolve
  POP_REG(lr)
  add sp, #4
  .cfi_adjust_cfa_offset -4
  bx ip

  // Force constant pool for ldr above
  .ltorg

  .cfi_endproc

3:
  .word _libglib_2_0_so_tramp_table - (2b + 8) + 120

/*
 * Copyright 2018-2025 Yury Gribov
 *
 * The MIT License (MIT)
 *
 * Use of this source code is governed by MIT license that can be
 * found in the LICENSE.txt file.
 */

  .globl g_ascii_strcasecmp
  .p2align 4
  .type g_ascii_strcasecmp, %function
#ifndef IMPLIB_EXPORT_SHIMS
  .hidden g_ascii_strcasecmp
#endif
g_ascii_strcasecmp:
  .cfi_startproc

1:
  // Load address
  // TODO: can we do this faster on newer ARMs?
  ldr ip, 3f
2:
  add ip, pc, ip
  ldr ip, [ip]

  cmp ip, #0

  // Fast path
  bxne ip

  // Slow path
  ldr ip, =31
  push {ip}
  .cfi_adjust_cfa_offset 4
  PUSH_REG(lr)
  bl _libglib_2_0_so_save_regs_and_resolve
  POP_REG(lr)
  add sp, #4
  .cfi_adjust_cfa_offset -4
  bx ip

  // Force constant pool for ldr above
  .ltorg

  .cfi_endproc

3:
  .word _libglib_2_0_so_tramp_table - (2b + 8) + 124

/*
 * Copyright 2018-2025 Yury Gribov
 *
 * The MIT License (MIT)
 *
 * Use of this source code is governed by MIT license that can be
 * found in the LICENSE.txt file.
 */

  .globl g_ascii_strdown
  .p2align 4
  .type g_ascii_strdown, %function
#ifndef IMPLIB_EXPORT_SHIMS
  .hidden g_ascii_strdown
#endif
g_ascii_strdown:
  .cfi_startproc

1:
  // Load address
  // TODO: can we do this faster on newer ARMs?
  ldr ip, 3f
2:
  add ip, pc, ip
  ldr ip, [ip]

  cmp ip, #0

  // Fast path
  bxne ip

  // Slow path
  ldr ip, =32
  push {ip}
  .cfi_adjust_cfa_offset 4
  PUSH_REG(lr)
  bl _libglib_2_0_so_save_regs_and_resolve
  POP_REG(lr)
  add sp, #4
  .cfi_adjust_cfa_offset -4
  bx ip

  // Force constant pool for ldr above
  .ltorg

  .cfi_endproc

3:
  .word _libglib_2_0_so_tramp_table - (2b + 8) + 128

/*
 * Copyright 2018-2025 Yury Gribov
 *
 * The MIT License (MIT)
 *
 * Use of this source code is governed by MIT license that can be
 * found in the LICENSE.txt file.
 */

  .globl g_ascii_string_to_signed
  .p2align 4
  .type g_ascii_string_to_signed, %function
#ifndef IMPLIB_EXPORT_SHIMS
  .hidden g_ascii_string_to_signed
#endif
g_ascii_string_to_signed:
  .cfi_startproc

1:
  // Load address
  // TODO: can we do this faster on newer ARMs?
  ldr ip, 3f
2:
  add ip, pc, ip
  ldr ip, [ip]

  cmp ip, #0

  // Fast path
  bxne ip

  // Slow path
  ldr ip, =33
  push {ip}
  .cfi_adjust_cfa_offset 4
  PUSH_REG(lr)
  bl _libglib_2_0_so_save_regs_and_resolve
  POP_REG(lr)
  add sp, #4
  .cfi_adjust_cfa_offset -4
  bx ip

  // Force constant pool for ldr above
  .ltorg

  .cfi_endproc

3:
  .word _libglib_2_0_so_tramp_table - (2b + 8) + 132

/*
 * Copyright 2018-2025 Yury Gribov
 *
 * The MIT License (MIT)
 *
 * Use of this source code is governed by MIT license that can be
 * found in the LICENSE.txt file.
 */

  .globl g_ascii_string_to_unsigned
  .p2align 4
  .type g_ascii_string_to_unsigned, %function
#ifndef IMPLIB_EXPORT_SHIMS
  .hidden g_ascii_string_to_unsigned
#endif
g_ascii_string_to_unsigned:
  .cfi_startproc

1:
  // Load address
  // TODO: can we do this faster on newer ARMs?
  ldr ip, 3f
2:
  add ip, pc, ip
  ldr ip, [ip]

  cmp ip, #0

  // Fast path
  bxne ip

  // Slow path
  ldr ip, =34
  push {ip}
  .cfi_adjust_cfa_offset 4
  PUSH_REG(lr)
  bl _libglib_2_0_so_save_regs_and_resolve
  POP_REG(lr)
  add sp, #4
  .cfi_adjust_cfa_offset -4
  bx ip

  // Force constant pool for ldr above
  .ltorg

  .cfi_endproc

3:
  .word _libglib_2_0_so_tramp_table - (2b + 8) + 136

/*
 * Copyright 2018-2025 Yury Gribov
 *
 * The MIT License (MIT)
 *
 * Use of this source code is governed by MIT license that can be
 * found in the LICENSE.txt file.
 */

  .globl g_ascii_strncasecmp
  .p2align 4
  .type g_ascii_strncasecmp, %function
#ifndef IMPLIB_EXPORT_SHIMS
  .hidden g_ascii_strncasecmp
#endif
g_ascii_strncasecmp:
  .cfi_startproc

1:
  // Load address
  // TODO: can we do this faster on newer ARMs?
  ldr ip, 3f
2:
  add ip, pc, ip
  ldr ip, [ip]

  cmp ip, #0

  // Fast path
  bxne ip

  // Slow path
  ldr ip, =35
  push {ip}
  .cfi_adjust_cfa_offset 4
  PUSH_REG(lr)
  bl _libglib_2_0_so_save_regs_and_resolve
  POP_REG(lr)
  add sp, #4
  .cfi_adjust_cfa_offset -4
  bx ip

  // Force constant pool for ldr above
  .ltorg

  .cfi_endproc

3:
  .word _libglib_2_0_so_tramp_table - (2b + 8) + 140

/*
 * Copyright 2018-2025 Yury Gribov
 *
 * The MIT License (MIT)
 *
 * Use of this source code is governed by MIT license that can be
 * found in the LICENSE.txt file.
 */

  .globl g_ascii_strtod
  .p2align 4
  .type g_ascii_strtod, %function
#ifndef IMPLIB_EXPORT_SHIMS
  .hidden g_ascii_strtod
#endif
g_ascii_strtod:
  .cfi_startproc

1:
  // Load address
  // TODO: can we do this faster on newer ARMs?
  ldr ip, 3f
2:
  add ip, pc, ip
  ldr ip, [ip]

  cmp ip, #0

  // Fast path
  bxne ip

  // Slow path
  ldr ip, =36
  push {ip}
  .cfi_adjust_cfa_offset 4
  PUSH_REG(lr)
  bl _libglib_2_0_so_save_regs_and_resolve
  POP_REG(lr)
  add sp, #4
  .cfi_adjust_cfa_offset -4
  bx ip

  // Force constant pool for ldr above
  .ltorg

  .cfi_endproc

3:
  .word _libglib_2_0_so_tramp_table - (2b + 8) + 144

/*
 * Copyright 2018-2025 Yury Gribov
 *
 * The MIT License (MIT)
 *
 * Use of this source code is governed by MIT license that can be
 * found in the LICENSE.txt file.
 */

  .globl g_ascii_strtoll
  .p2align 4
  .type g_ascii_strtoll, %function
#ifndef IMPLIB_EXPORT_SHIMS
  .hidden g_ascii_strtoll
#endif
g_ascii_strtoll:
  .cfi_startproc

1:
  // Load address
  // TODO: can we do this faster on newer ARMs?
  ldr ip, 3f
2:
  add ip, pc, ip
  ldr ip, [ip]

  cmp ip, #0

  // Fast path
  bxne ip

  // Slow path
  ldr ip, =37
  push {ip}
  .cfi_adjust_cfa_offset 4
  PUSH_REG(lr)
  bl _libglib_2_0_so_save_regs_and_resolve
  POP_REG(lr)
  add sp, #4
  .cfi_adjust_cfa_offset -4
  bx ip

  // Force constant pool for ldr above
  .ltorg

  .cfi_endproc

3:
  .word _libglib_2_0_so_tramp_table - (2b + 8) + 148

/*
 * Copyright 2018-2025 Yury Gribov
 *
 * The MIT License (MIT)
 *
 * Use of this source code is governed by MIT license that can be
 * found in the LICENSE.txt file.
 */

  .globl g_ascii_strtoull
  .p2align 4
  .type g_ascii_strtoull, %function
#ifndef IMPLIB_EXPORT_SHIMS
  .hidden g_ascii_strtoull
#endif
g_ascii_strtoull:
  .cfi_startproc

1:
  // Load address
  // TODO: can we do this faster on newer ARMs?
  ldr ip, 3f
2:
  add ip, pc, ip
  ldr ip, [ip]

  cmp ip, #0

  // Fast path
  bxne ip

  // Slow path
  ldr ip, =38
  push {ip}
  .cfi_adjust_cfa_offset 4
  PUSH_REG(lr)
  bl _libglib_2_0_so_save_regs_and_resolve
  POP_REG(lr)
  add sp, #4
  .cfi_adjust_cfa_offset -4
  bx ip

  // Force constant pool for ldr above
  .ltorg

  .cfi_endproc

3:
  .word _libglib_2_0_so_tramp_table - (2b + 8) + 152

/*
 * Copyright 2018-2025 Yury Gribov
 *
 * The MIT License (MIT)
 *
 * Use of this source code is governed by MIT license that can be
 * found in the LICENSE.txt file.
 */

  .globl g_ascii_strup
  .p2align 4
  .type g_ascii_strup, %function
#ifndef IMPLIB_EXPORT_SHIMS
  .hidden g_ascii_strup
#endif
g_ascii_strup:
  .cfi_startproc

1:
  // Load address
  // TODO: can we do this faster on newer ARMs?
  ldr ip, 3f
2:
  add ip, pc, ip
  ldr ip, [ip]

  cmp ip, #0

  // Fast path
  bxne ip

  // Slow path
  ldr ip, =39
  push {ip}
  .cfi_adjust_cfa_offset 4
  PUSH_REG(lr)
  bl _libglib_2_0_so_save_regs_and_resolve
  POP_REG(lr)
  add sp, #4
  .cfi_adjust_cfa_offset -4
  bx ip

  // Force constant pool for ldr above
  .ltorg

  .cfi_endproc

3:
  .word _libglib_2_0_so_tramp_table - (2b + 8) + 156

/*
 * Copyright 2018-2025 Yury Gribov
 *
 * The MIT License (MIT)
 *
 * Use of this source code is governed by MIT license that can be
 * found in the LICENSE.txt file.
 */

  .globl g_ascii_tolower
  .p2align 4
  .type g_ascii_tolower, %function
#ifndef IMPLIB_EXPORT_SHIMS
  .hidden g_ascii_tolower
#endif
g_ascii_tolower:
  .cfi_startproc

1:
  // Load address
  // TODO: can we do this faster on newer ARMs?
  ldr ip, 3f
2:
  add ip, pc, ip
  ldr ip, [ip]

  cmp ip, #0

  // Fast path
  bxne ip

  // Slow path
  ldr ip, =40
  push {ip}
  .cfi_adjust_cfa_offset 4
  PUSH_REG(lr)
  bl _libglib_2_0_so_save_regs_and_resolve
  POP_REG(lr)
  add sp, #4
  .cfi_adjust_cfa_offset -4
  bx ip

  // Force constant pool for ldr above
  .ltorg

  .cfi_endproc

3:
  .word _libglib_2_0_so_tramp_table - (2b + 8) + 160

/*
 * Copyright 2018-2025 Yury Gribov
 *
 * The MIT License (MIT)
 *
 * Use of this source code is governed by MIT license that can be
 * found in the LICENSE.txt file.
 */

  .globl g_ascii_toupper
  .p2align 4
  .type g_ascii_toupper, %function
#ifndef IMPLIB_EXPORT_SHIMS
  .hidden g_ascii_toupper
#endif
g_ascii_toupper:
  .cfi_startproc

1:
  // Load address
  // TODO: can we do this faster on newer ARMs?
  ldr ip, 3f
2:
  add ip, pc, ip
  ldr ip, [ip]

  cmp ip, #0

  // Fast path
  bxne ip

  // Slow path
  ldr ip, =41
  push {ip}
  .cfi_adjust_cfa_offset 4
  PUSH_REG(lr)
  bl _libglib_2_0_so_save_regs_and_resolve
  POP_REG(lr)
  add sp, #4
  .cfi_adjust_cfa_offset -4
  bx ip

  // Force constant pool for ldr above
  .ltorg

  .cfi_endproc

3:
  .word _libglib_2_0_so_tramp_table - (2b + 8) + 164

/*
 * Copyright 2018-2025 Yury Gribov
 *
 * The MIT License (MIT)
 *
 * Use of this source code is governed by MIT license that can be
 * found in the LICENSE.txt file.
 */

  .globl g_ascii_xdigit_value
  .p2align 4
  .type g_ascii_xdigit_value, %function
#ifndef IMPLIB_EXPORT_SHIMS
  .hidden g_ascii_xdigit_value
#endif
g_ascii_xdigit_value:
  .cfi_startproc

1:
  // Load address
  // TODO: can we do this faster on newer ARMs?
  ldr ip, 3f
2:
  add ip, pc, ip
  ldr ip, [ip]

  cmp ip, #0

  // Fast path
  bxne ip

  // Slow path
  ldr ip, =42
  push {ip}
  .cfi_adjust_cfa_offset 4
  PUSH_REG(lr)
  bl _libglib_2_0_so_save_regs_and_resolve
  POP_REG(lr)
  add sp, #4
  .cfi_adjust_cfa_offset -4
  bx ip

  // Force constant pool for ldr above
  .ltorg

  .cfi_endproc

3:
  .word _libglib_2_0_so_tramp_table - (2b + 8) + 168

/*
 * Copyright 2018-2025 Yury Gribov
 *
 * The MIT License (MIT)
 *
 * Use of this source code is governed by MIT license that can be
 * found in the LICENSE.txt file.
 */

  .globl g_assert_warning
  .p2align 4
  .type g_assert_warning, %function
#ifndef IMPLIB_EXPORT_SHIMS
  .hidden g_assert_warning
#endif
g_assert_warning:
  .cfi_startproc

1:
  // Load address
  // TODO: can we do this faster on newer ARMs?
  ldr ip, 3f
2:
  add ip, pc, ip
  ldr ip, [ip]

  cmp ip, #0

  // Fast path
  bxne ip

  // Slow path
  ldr ip, =43
  push {ip}
  .cfi_adjust_cfa_offset 4
  PUSH_REG(lr)
  bl _libglib_2_0_so_save_regs_and_resolve
  POP_REG(lr)
  add sp, #4
  .cfi_adjust_cfa_offset -4
  bx ip

  // Force constant pool for ldr above
  .ltorg

  .cfi_endproc

3:
  .word _libglib_2_0_so_tramp_table - (2b + 8) + 172

/*
 * Copyright 2018-2025 Yury Gribov
 *
 * The MIT License (MIT)
 *
 * Use of this source code is governed by MIT license that can be
 * found in the LICENSE.txt file.
 */

  .globl g_assertion_message
  .p2align 4
  .type g_assertion_message, %function
#ifndef IMPLIB_EXPORT_SHIMS
  .hidden g_assertion_message
#endif
g_assertion_message:
  .cfi_startproc

1:
  // Load address
  // TODO: can we do this faster on newer ARMs?
  ldr ip, 3f
2:
  add ip, pc, ip
  ldr ip, [ip]

  cmp ip, #0

  // Fast path
  bxne ip

  // Slow path
  ldr ip, =44
  push {ip}
  .cfi_adjust_cfa_offset 4
  PUSH_REG(lr)
  bl _libglib_2_0_so_save_regs_and_resolve
  POP_REG(lr)
  add sp, #4
  .cfi_adjust_cfa_offset -4
  bx ip

  // Force constant pool for ldr above
  .ltorg

  .cfi_endproc

3:
  .word _libglib_2_0_so_tramp_table - (2b + 8) + 176

/*
 * Copyright 2018-2025 Yury Gribov
 *
 * The MIT License (MIT)
 *
 * Use of this source code is governed by MIT license that can be
 * found in the LICENSE.txt file.
 */

  .globl g_assertion_message_cmpint
  .p2align 4
  .type g_assertion_message_cmpint, %function
#ifndef IMPLIB_EXPORT_SHIMS
  .hidden g_assertion_message_cmpint
#endif
g_assertion_message_cmpint:
  .cfi_startproc

1:
  // Load address
  // TODO: can we do this faster on newer ARMs?
  ldr ip, 3f
2:
  add ip, pc, ip
  ldr ip, [ip]

  cmp ip, #0

  // Fast path
  bxne ip

  // Slow path
  ldr ip, =45
  push {ip}
  .cfi_adjust_cfa_offset 4
  PUSH_REG(lr)
  bl _libglib_2_0_so_save_regs_and_resolve
  POP_REG(lr)
  add sp, #4
  .cfi_adjust_cfa_offset -4
  bx ip

  // Force constant pool for ldr above
  .ltorg

  .cfi_endproc

3:
  .word _libglib_2_0_so_tramp_table - (2b + 8) + 180

/*
 * Copyright 2018-2025 Yury Gribov
 *
 * The MIT License (MIT)
 *
 * Use of this source code is governed by MIT license that can be
 * found in the LICENSE.txt file.
 */

  .globl g_assertion_message_cmpnum
  .p2align 4
  .type g_assertion_message_cmpnum, %function
#ifndef IMPLIB_EXPORT_SHIMS
  .hidden g_assertion_message_cmpnum
#endif
g_assertion_message_cmpnum:
  .cfi_startproc

1:
  // Load address
  // TODO: can we do this faster on newer ARMs?
  ldr ip, 3f
2:
  add ip, pc, ip
  ldr ip, [ip]

  cmp ip, #0

  // Fast path
  bxne ip

  // Slow path
  ldr ip, =46
  push {ip}
  .cfi_adjust_cfa_offset 4
  PUSH_REG(lr)
  bl _libglib_2_0_so_save_regs_and_resolve
  POP_REG(lr)
  add sp, #4
  .cfi_adjust_cfa_offset -4
  bx ip

  // Force constant pool for ldr above
  .ltorg

  .cfi_endproc

3:
  .word _libglib_2_0_so_tramp_table - (2b + 8) + 184

/*
 * Copyright 2018-2025 Yury Gribov
 *
 * The MIT License (MIT)
 *
 * Use of this source code is governed by MIT license that can be
 * found in the LICENSE.txt file.
 */

  .globl g_assertion_message_cmpstr
  .p2align 4
  .type g_assertion_message_cmpstr, %function
#ifndef IMPLIB_EXPORT_SHIMS
  .hidden g_assertion_message_cmpstr
#endif
g_assertion_message_cmpstr:
  .cfi_startproc

1:
  // Load address
  // TODO: can we do this faster on newer ARMs?
  ldr ip, 3f
2:
  add ip, pc, ip
  ldr ip, [ip]

  cmp ip, #0

  // Fast path
  bxne ip

  // Slow path
  ldr ip, =47
  push {ip}
  .cfi_adjust_cfa_offset 4
  PUSH_REG(lr)
  bl _libglib_2_0_so_save_regs_and_resolve
  POP_REG(lr)
  add sp, #4
  .cfi_adjust_cfa_offset -4
  bx ip

  // Force constant pool for ldr above
  .ltorg

  .cfi_endproc

3:
  .word _libglib_2_0_so_tramp_table - (2b + 8) + 188

/*
 * Copyright 2018-2025 Yury Gribov
 *
 * The MIT License (MIT)
 *
 * Use of this source code is governed by MIT license that can be
 * found in the LICENSE.txt file.
 */

  .globl g_assertion_message_cmpstrv
  .p2align 4
  .type g_assertion_message_cmpstrv, %function
#ifndef IMPLIB_EXPORT_SHIMS
  .hidden g_assertion_message_cmpstrv
#endif
g_assertion_message_cmpstrv:
  .cfi_startproc

1:
  // Load address
  // TODO: can we do this faster on newer ARMs?
  ldr ip, 3f
2:
  add ip, pc, ip
  ldr ip, [ip]

  cmp ip, #0

  // Fast path
  bxne ip

  // Slow path
  ldr ip, =48
  push {ip}
  .cfi_adjust_cfa_offset 4
  PUSH_REG(lr)
  bl _libglib_2_0_so_save_regs_and_resolve
  POP_REG(lr)
  add sp, #4
  .cfi_adjust_cfa_offset -4
  bx ip

  // Force constant pool for ldr above
  .ltorg

  .cfi_endproc

3:
  .word _libglib_2_0_so_tramp_table - (2b + 8) + 192

/*
 * Copyright 2018-2025 Yury Gribov
 *
 * The MIT License (MIT)
 *
 * Use of this source code is governed by MIT license that can be
 * found in the LICENSE.txt file.
 */

  .globl g_assertion_message_error
  .p2align 4
  .type g_assertion_message_error, %function
#ifndef IMPLIB_EXPORT_SHIMS
  .hidden g_assertion_message_error
#endif
g_assertion_message_error:
  .cfi_startproc

1:
  // Load address
  // TODO: can we do this faster on newer ARMs?
  ldr ip, 3f
2:
  add ip, pc, ip
  ldr ip, [ip]

  cmp ip, #0

  // Fast path
  bxne ip

  // Slow path
  ldr ip, =49
  push {ip}
  .cfi_adjust_cfa_offset 4
  PUSH_REG(lr)
  bl _libglib_2_0_so_save_regs_and_resolve
  POP_REG(lr)
  add sp, #4
  .cfi_adjust_cfa_offset -4
  bx ip

  // Force constant pool for ldr above
  .ltorg

  .cfi_endproc

3:
  .word _libglib_2_0_so_tramp_table - (2b + 8) + 196

/*
 * Copyright 2018-2025 Yury Gribov
 *
 * The MIT License (MIT)
 *
 * Use of this source code is governed by MIT license that can be
 * found in the LICENSE.txt file.
 */

  .globl g_assertion_message_expr
  .p2align 4
  .type g_assertion_message_expr, %function
#ifndef IMPLIB_EXPORT_SHIMS
  .hidden g_assertion_message_expr
#endif
g_assertion_message_expr:
  .cfi_startproc

1:
  // Load address
  // TODO: can we do this faster on newer ARMs?
  ldr ip, 3f
2:
  add ip, pc, ip
  ldr ip, [ip]

  cmp ip, #0

  // Fast path
  bxne ip

  // Slow path
  ldr ip, =50
  push {ip}
  .cfi_adjust_cfa_offset 4
  PUSH_REG(lr)
  bl _libglib_2_0_so_save_regs_and_resolve
  POP_REG(lr)
  add sp, #4
  .cfi_adjust_cfa_offset -4
  bx ip

  // Force constant pool for ldr above
  .ltorg

  .cfi_endproc

3:
  .word _libglib_2_0_so_tramp_table - (2b + 8) + 200

/*
 * Copyright 2018-2025 Yury Gribov
 *
 * The MIT License (MIT)
 *
 * Use of this source code is governed by MIT license that can be
 * found in the LICENSE.txt file.
 */

  .globl g_async_queue_length
  .p2align 4
  .type g_async_queue_length, %function
#ifndef IMPLIB_EXPORT_SHIMS
  .hidden g_async_queue_length
#endif
g_async_queue_length:
  .cfi_startproc

1:
  // Load address
  // TODO: can we do this faster on newer ARMs?
  ldr ip, 3f
2:
  add ip, pc, ip
  ldr ip, [ip]

  cmp ip, #0

  // Fast path
  bxne ip

  // Slow path
  ldr ip, =51
  push {ip}
  .cfi_adjust_cfa_offset 4
  PUSH_REG(lr)
  bl _libglib_2_0_so_save_regs_and_resolve
  POP_REG(lr)
  add sp, #4
  .cfi_adjust_cfa_offset -4
  bx ip

  // Force constant pool for ldr above
  .ltorg

  .cfi_endproc

3:
  .word _libglib_2_0_so_tramp_table - (2b + 8) + 204

/*
 * Copyright 2018-2025 Yury Gribov
 *
 * The MIT License (MIT)
 *
 * Use of this source code is governed by MIT license that can be
 * found in the LICENSE.txt file.
 */

  .globl g_async_queue_length_unlocked
  .p2align 4
  .type g_async_queue_length_unlocked, %function
#ifndef IMPLIB_EXPORT_SHIMS
  .hidden g_async_queue_length_unlocked
#endif
g_async_queue_length_unlocked:
  .cfi_startproc

1:
  // Load address
  // TODO: can we do this faster on newer ARMs?
  ldr ip, 3f
2:
  add ip, pc, ip
  ldr ip, [ip]

  cmp ip, #0

  // Fast path
  bxne ip

  // Slow path
  ldr ip, =52
  push {ip}
  .cfi_adjust_cfa_offset 4
  PUSH_REG(lr)
  bl _libglib_2_0_so_save_regs_and_resolve
  POP_REG(lr)
  add sp, #4
  .cfi_adjust_cfa_offset -4
  bx ip

  // Force constant pool for ldr above
  .ltorg

  .cfi_endproc

3:
  .word _libglib_2_0_so_tramp_table - (2b + 8) + 208

/*
 * Copyright 2018-2025 Yury Gribov
 *
 * The MIT License (MIT)
 *
 * Use of this source code is governed by MIT license that can be
 * found in the LICENSE.txt file.
 */

  .globl g_async_queue_lock
  .p2align 4
  .type g_async_queue_lock, %function
#ifndef IMPLIB_EXPORT_SHIMS
  .hidden g_async_queue_lock
#endif
g_async_queue_lock:
  .cfi_startproc

1:
  // Load address
  // TODO: can we do this faster on newer ARMs?
  ldr ip, 3f
2:
  add ip, pc, ip
  ldr ip, [ip]

  cmp ip, #0

  // Fast path
  bxne ip

  // Slow path
  ldr ip, =53
  push {ip}
  .cfi_adjust_cfa_offset 4
  PUSH_REG(lr)
  bl _libglib_2_0_so_save_regs_and_resolve
  POP_REG(lr)
  add sp, #4
  .cfi_adjust_cfa_offset -4
  bx ip

  // Force constant pool for ldr above
  .ltorg

  .cfi_endproc

3:
  .word _libglib_2_0_so_tramp_table - (2b + 8) + 212

/*
 * Copyright 2018-2025 Yury Gribov
 *
 * The MIT License (MIT)
 *
 * Use of this source code is governed by MIT license that can be
 * found in the LICENSE.txt file.
 */

  .globl g_async_queue_new
  .p2align 4
  .type g_async_queue_new, %function
#ifndef IMPLIB_EXPORT_SHIMS
  .hidden g_async_queue_new
#endif
g_async_queue_new:
  .cfi_startproc

1:
  // Load address
  // TODO: can we do this faster on newer ARMs?
  ldr ip, 3f
2:
  add ip, pc, ip
  ldr ip, [ip]

  cmp ip, #0

  // Fast path
  bxne ip

  // Slow path
  ldr ip, =54
  push {ip}
  .cfi_adjust_cfa_offset 4
  PUSH_REG(lr)
  bl _libglib_2_0_so_save_regs_and_resolve
  POP_REG(lr)
  add sp, #4
  .cfi_adjust_cfa_offset -4
  bx ip

  // Force constant pool for ldr above
  .ltorg

  .cfi_endproc

3:
  .word _libglib_2_0_so_tramp_table - (2b + 8) + 216

/*
 * Copyright 2018-2025 Yury Gribov
 *
 * The MIT License (MIT)
 *
 * Use of this source code is governed by MIT license that can be
 * found in the LICENSE.txt file.
 */

  .globl g_async_queue_new_full
  .p2align 4
  .type g_async_queue_new_full, %function
#ifndef IMPLIB_EXPORT_SHIMS
  .hidden g_async_queue_new_full
#endif
g_async_queue_new_full:
  .cfi_startproc

1:
  // Load address
  // TODO: can we do this faster on newer ARMs?
  ldr ip, 3f
2:
  add ip, pc, ip
  ldr ip, [ip]

  cmp ip, #0

  // Fast path
  bxne ip

  // Slow path
  ldr ip, =55
  push {ip}
  .cfi_adjust_cfa_offset 4
  PUSH_REG(lr)
  bl _libglib_2_0_so_save_regs_and_resolve
  POP_REG(lr)
  add sp, #4
  .cfi_adjust_cfa_offset -4
  bx ip

  // Force constant pool for ldr above
  .ltorg

  .cfi_endproc

3:
  .word _libglib_2_0_so_tramp_table - (2b + 8) + 220

/*
 * Copyright 2018-2025 Yury Gribov
 *
 * The MIT License (MIT)
 *
 * Use of this source code is governed by MIT license that can be
 * found in the LICENSE.txt file.
 */

  .globl g_async_queue_pop
  .p2align 4
  .type g_async_queue_pop, %function
#ifndef IMPLIB_EXPORT_SHIMS
  .hidden g_async_queue_pop
#endif
g_async_queue_pop:
  .cfi_startproc

1:
  // Load address
  // TODO: can we do this faster on newer ARMs?
  ldr ip, 3f
2:
  add ip, pc, ip
  ldr ip, [ip]

  cmp ip, #0

  // Fast path
  bxne ip

  // Slow path
  ldr ip, =56
  push {ip}
  .cfi_adjust_cfa_offset 4
  PUSH_REG(lr)
  bl _libglib_2_0_so_save_regs_and_resolve
  POP_REG(lr)
  add sp, #4
  .cfi_adjust_cfa_offset -4
  bx ip

  // Force constant pool for ldr above
  .ltorg

  .cfi_endproc

3:
  .word _libglib_2_0_so_tramp_table - (2b + 8) + 224

/*
 * Copyright 2018-2025 Yury Gribov
 *
 * The MIT License (MIT)
 *
 * Use of this source code is governed by MIT license that can be
 * found in the LICENSE.txt file.
 */

  .globl g_async_queue_pop_unlocked
  .p2align 4
  .type g_async_queue_pop_unlocked, %function
#ifndef IMPLIB_EXPORT_SHIMS
  .hidden g_async_queue_pop_unlocked
#endif
g_async_queue_pop_unlocked:
  .cfi_startproc

1:
  // Load address
  // TODO: can we do this faster on newer ARMs?
  ldr ip, 3f
2:
  add ip, pc, ip
  ldr ip, [ip]

  cmp ip, #0

  // Fast path
  bxne ip

  // Slow path
  ldr ip, =57
  push {ip}
  .cfi_adjust_cfa_offset 4
  PUSH_REG(lr)
  bl _libglib_2_0_so_save_regs_and_resolve
  POP_REG(lr)
  add sp, #4
  .cfi_adjust_cfa_offset -4
  bx ip

  // Force constant pool for ldr above
  .ltorg

  .cfi_endproc

3:
  .word _libglib_2_0_so_tramp_table - (2b + 8) + 228

/*
 * Copyright 2018-2025 Yury Gribov
 *
 * The MIT License (MIT)
 *
 * Use of this source code is governed by MIT license that can be
 * found in the LICENSE.txt file.
 */

  .globl g_async_queue_push
  .p2align 4
  .type g_async_queue_push, %function
#ifndef IMPLIB_EXPORT_SHIMS
  .hidden g_async_queue_push
#endif
g_async_queue_push:
  .cfi_startproc

1:
  // Load address
  // TODO: can we do this faster on newer ARMs?
  ldr ip, 3f
2:
  add ip, pc, ip
  ldr ip, [ip]

  cmp ip, #0

  // Fast path
  bxne ip

  // Slow path
  ldr ip, =58
  push {ip}
  .cfi_adjust_cfa_offset 4
  PUSH_REG(lr)
  bl _libglib_2_0_so_save_regs_and_resolve
  POP_REG(lr)
  add sp, #4
  .cfi_adjust_cfa_offset -4
  bx ip

  // Force constant pool for ldr above
  .ltorg

  .cfi_endproc

3:
  .word _libglib_2_0_so_tramp_table - (2b + 8) + 232

/*
 * Copyright 2018-2025 Yury Gribov
 *
 * The MIT License (MIT)
 *
 * Use of this source code is governed by MIT license that can be
 * found in the LICENSE.txt file.
 */

  .globl g_async_queue_push_front
  .p2align 4
  .type g_async_queue_push_front, %function
#ifndef IMPLIB_EXPORT_SHIMS
  .hidden g_async_queue_push_front
#endif
g_async_queue_push_front:
  .cfi_startproc

1:
  // Load address
  // TODO: can we do this faster on newer ARMs?
  ldr ip, 3f
2:
  add ip, pc, ip
  ldr ip, [ip]

  cmp ip, #0

  // Fast path
  bxne ip

  // Slow path
  ldr ip, =59
  push {ip}
  .cfi_adjust_cfa_offset 4
  PUSH_REG(lr)
  bl _libglib_2_0_so_save_regs_and_resolve
  POP_REG(lr)
  add sp, #4
  .cfi_adjust_cfa_offset -4
  bx ip

  // Force constant pool for ldr above
  .ltorg

  .cfi_endproc

3:
  .word _libglib_2_0_so_tramp_table - (2b + 8) + 236

/*
 * Copyright 2018-2025 Yury Gribov
 *
 * The MIT License (MIT)
 *
 * Use of this source code is governed by MIT license that can be
 * found in the LICENSE.txt file.
 */

  .globl g_async_queue_push_front_unlocked
  .p2align 4
  .type g_async_queue_push_front_unlocked, %function
#ifndef IMPLIB_EXPORT_SHIMS
  .hidden g_async_queue_push_front_unlocked
#endif
g_async_queue_push_front_unlocked:
  .cfi_startproc

1:
  // Load address
  // TODO: can we do this faster on newer ARMs?
  ldr ip, 3f
2:
  add ip, pc, ip
  ldr ip, [ip]

  cmp ip, #0

  // Fast path
  bxne ip

  // Slow path
  ldr ip, =60
  push {ip}
  .cfi_adjust_cfa_offset 4
  PUSH_REG(lr)
  bl _libglib_2_0_so_save_regs_and_resolve
  POP_REG(lr)
  add sp, #4
  .cfi_adjust_cfa_offset -4
  bx ip

  // Force constant pool for ldr above
  .ltorg

  .cfi_endproc

3:
  .word _libglib_2_0_so_tramp_table - (2b + 8) + 240

/*
 * Copyright 2018-2025 Yury Gribov
 *
 * The MIT License (MIT)
 *
 * Use of this source code is governed by MIT license that can be
 * found in the LICENSE.txt file.
 */

  .globl g_async_queue_push_sorted
  .p2align 4
  .type g_async_queue_push_sorted, %function
#ifndef IMPLIB_EXPORT_SHIMS
  .hidden g_async_queue_push_sorted
#endif
g_async_queue_push_sorted:
  .cfi_startproc

1:
  // Load address
  // TODO: can we do this faster on newer ARMs?
  ldr ip, 3f
2:
  add ip, pc, ip
  ldr ip, [ip]

  cmp ip, #0

  // Fast path
  bxne ip

  // Slow path
  ldr ip, =61
  push {ip}
  .cfi_adjust_cfa_offset 4
  PUSH_REG(lr)
  bl _libglib_2_0_so_save_regs_and_resolve
  POP_REG(lr)
  add sp, #4
  .cfi_adjust_cfa_offset -4
  bx ip

  // Force constant pool for ldr above
  .ltorg

  .cfi_endproc

3:
  .word _libglib_2_0_so_tramp_table - (2b + 8) + 244

/*
 * Copyright 2018-2025 Yury Gribov
 *
 * The MIT License (MIT)
 *
 * Use of this source code is governed by MIT license that can be
 * found in the LICENSE.txt file.
 */

  .globl g_async_queue_push_sorted_unlocked
  .p2align 4
  .type g_async_queue_push_sorted_unlocked, %function
#ifndef IMPLIB_EXPORT_SHIMS
  .hidden g_async_queue_push_sorted_unlocked
#endif
g_async_queue_push_sorted_unlocked:
  .cfi_startproc

1:
  // Load address
  // TODO: can we do this faster on newer ARMs?
  ldr ip, 3f
2:
  add ip, pc, ip
  ldr ip, [ip]

  cmp ip, #0

  // Fast path
  bxne ip

  // Slow path
  ldr ip, =62
  push {ip}
  .cfi_adjust_cfa_offset 4
  PUSH_REG(lr)
  bl _libglib_2_0_so_save_regs_and_resolve
  POP_REG(lr)
  add sp, #4
  .cfi_adjust_cfa_offset -4
  bx ip

  // Force constant pool for ldr above
  .ltorg

  .cfi_endproc

3:
  .word _libglib_2_0_so_tramp_table - (2b + 8) + 248

/*
 * Copyright 2018-2025 Yury Gribov
 *
 * The MIT License (MIT)
 *
 * Use of this source code is governed by MIT license that can be
 * found in the LICENSE.txt file.
 */

  .globl g_async_queue_push_unlocked
  .p2align 4
  .type g_async_queue_push_unlocked, %function
#ifndef IMPLIB_EXPORT_SHIMS
  .hidden g_async_queue_push_unlocked
#endif
g_async_queue_push_unlocked:
  .cfi_startproc

1:
  // Load address
  // TODO: can we do this faster on newer ARMs?
  ldr ip, 3f
2:
  add ip, pc, ip
  ldr ip, [ip]

  cmp ip, #0

  // Fast path
  bxne ip

  // Slow path
  ldr ip, =63
  push {ip}
  .cfi_adjust_cfa_offset 4
  PUSH_REG(lr)
  bl _libglib_2_0_so_save_regs_and_resolve
  POP_REG(lr)
  add sp, #4
  .cfi_adjust_cfa_offset -4
  bx ip

  // Force constant pool for ldr above
  .ltorg

  .cfi_endproc

3:
  .word _libglib_2_0_so_tramp_table - (2b + 8) + 252

/*
 * Copyright 2018-2025 Yury Gribov
 *
 * The MIT License (MIT)
 *
 * Use of this source code is governed by MIT license that can be
 * found in the LICENSE.txt file.
 */

  .globl g_async_queue_ref
  .p2align 4
  .type g_async_queue_ref, %function
#ifndef IMPLIB_EXPORT_SHIMS
  .hidden g_async_queue_ref
#endif
g_async_queue_ref:
  .cfi_startproc

1:
  // Load address
  // TODO: can we do this faster on newer ARMs?
  ldr ip, 3f
2:
  add ip, pc, ip
  ldr ip, [ip]

  cmp ip, #0

  // Fast path
  bxne ip

  // Slow path
  ldr ip, =64
  push {ip}
  .cfi_adjust_cfa_offset 4
  PUSH_REG(lr)
  bl _libglib_2_0_so_save_regs_and_resolve
  POP_REG(lr)
  add sp, #4
  .cfi_adjust_cfa_offset -4
  bx ip

  // Force constant pool for ldr above
  .ltorg

  .cfi_endproc

3:
  .word _libglib_2_0_so_tramp_table - (2b + 8) + 256

/*
 * Copyright 2018-2025 Yury Gribov
 *
 * The MIT License (MIT)
 *
 * Use of this source code is governed by MIT license that can be
 * found in the LICENSE.txt file.
 */

  .globl g_async_queue_ref_unlocked
  .p2align 4
  .type g_async_queue_ref_unlocked, %function
#ifndef IMPLIB_EXPORT_SHIMS
  .hidden g_async_queue_ref_unlocked
#endif
g_async_queue_ref_unlocked:
  .cfi_startproc

1:
  // Load address
  // TODO: can we do this faster on newer ARMs?
  ldr ip, 3f
2:
  add ip, pc, ip
  ldr ip, [ip]

  cmp ip, #0

  // Fast path
  bxne ip

  // Slow path
  ldr ip, =65
  push {ip}
  .cfi_adjust_cfa_offset 4
  PUSH_REG(lr)
  bl _libglib_2_0_so_save_regs_and_resolve
  POP_REG(lr)
  add sp, #4
  .cfi_adjust_cfa_offset -4
  bx ip

  // Force constant pool for ldr above
  .ltorg

  .cfi_endproc

3:
  .word _libglib_2_0_so_tramp_table - (2b + 8) + 260

/*
 * Copyright 2018-2025 Yury Gribov
 *
 * The MIT License (MIT)
 *
 * Use of this source code is governed by MIT license that can be
 * found in the LICENSE.txt file.
 */

  .globl g_async_queue_remove
  .p2align 4
  .type g_async_queue_remove, %function
#ifndef IMPLIB_EXPORT_SHIMS
  .hidden g_async_queue_remove
#endif
g_async_queue_remove:
  .cfi_startproc

1:
  // Load address
  // TODO: can we do this faster on newer ARMs?
  ldr ip, 3f
2:
  add ip, pc, ip
  ldr ip, [ip]

  cmp ip, #0

  // Fast path
  bxne ip

  // Slow path
  ldr ip, =66
  push {ip}
  .cfi_adjust_cfa_offset 4
  PUSH_REG(lr)
  bl _libglib_2_0_so_save_regs_and_resolve
  POP_REG(lr)
  add sp, #4
  .cfi_adjust_cfa_offset -4
  bx ip

  // Force constant pool for ldr above
  .ltorg

  .cfi_endproc

3:
  .word _libglib_2_0_so_tramp_table - (2b + 8) + 264

/*
 * Copyright 2018-2025 Yury Gribov
 *
 * The MIT License (MIT)
 *
 * Use of this source code is governed by MIT license that can be
 * found in the LICENSE.txt file.
 */

  .globl g_async_queue_remove_unlocked
  .p2align 4
  .type g_async_queue_remove_unlocked, %function
#ifndef IMPLIB_EXPORT_SHIMS
  .hidden g_async_queue_remove_unlocked
#endif
g_async_queue_remove_unlocked:
  .cfi_startproc

1:
  // Load address
  // TODO: can we do this faster on newer ARMs?
  ldr ip, 3f
2:
  add ip, pc, ip
  ldr ip, [ip]

  cmp ip, #0

  // Fast path
  bxne ip

  // Slow path
  ldr ip, =67
  push {ip}
  .cfi_adjust_cfa_offset 4
  PUSH_REG(lr)
  bl _libglib_2_0_so_save_regs_and_resolve
  POP_REG(lr)
  add sp, #4
  .cfi_adjust_cfa_offset -4
  bx ip

  // Force constant pool for ldr above
  .ltorg

  .cfi_endproc

3:
  .word _libglib_2_0_so_tramp_table - (2b + 8) + 268

/*
 * Copyright 2018-2025 Yury Gribov
 *
 * The MIT License (MIT)
 *
 * Use of this source code is governed by MIT license that can be
 * found in the LICENSE.txt file.
 */

  .globl g_async_queue_sort
  .p2align 4
  .type g_async_queue_sort, %function
#ifndef IMPLIB_EXPORT_SHIMS
  .hidden g_async_queue_sort
#endif
g_async_queue_sort:
  .cfi_startproc

1:
  // Load address
  // TODO: can we do this faster on newer ARMs?
  ldr ip, 3f
2:
  add ip, pc, ip
  ldr ip, [ip]

  cmp ip, #0

  // Fast path
  bxne ip

  // Slow path
  ldr ip, =68
  push {ip}
  .cfi_adjust_cfa_offset 4
  PUSH_REG(lr)
  bl _libglib_2_0_so_save_regs_and_resolve
  POP_REG(lr)
  add sp, #4
  .cfi_adjust_cfa_offset -4
  bx ip

  // Force constant pool for ldr above
  .ltorg

  .cfi_endproc

3:
  .word _libglib_2_0_so_tramp_table - (2b + 8) + 272

/*
 * Copyright 2018-2025 Yury Gribov
 *
 * The MIT License (MIT)
 *
 * Use of this source code is governed by MIT license that can be
 * found in the LICENSE.txt file.
 */

  .globl g_async_queue_sort_unlocked
  .p2align 4
  .type g_async_queue_sort_unlocked, %function
#ifndef IMPLIB_EXPORT_SHIMS
  .hidden g_async_queue_sort_unlocked
#endif
g_async_queue_sort_unlocked:
  .cfi_startproc

1:
  // Load address
  // TODO: can we do this faster on newer ARMs?
  ldr ip, 3f
2:
  add ip, pc, ip
  ldr ip, [ip]

  cmp ip, #0

  // Fast path
  bxne ip

  // Slow path
  ldr ip, =69
  push {ip}
  .cfi_adjust_cfa_offset 4
  PUSH_REG(lr)
  bl _libglib_2_0_so_save_regs_and_resolve
  POP_REG(lr)
  add sp, #4
  .cfi_adjust_cfa_offset -4
  bx ip

  // Force constant pool for ldr above
  .ltorg

  .cfi_endproc

3:
  .word _libglib_2_0_so_tramp_table - (2b + 8) + 276

/*
 * Copyright 2018-2025 Yury Gribov
 *
 * The MIT License (MIT)
 *
 * Use of this source code is governed by MIT license that can be
 * found in the LICENSE.txt file.
 */

  .globl g_async_queue_timed_pop
  .p2align 4
  .type g_async_queue_timed_pop, %function
#ifndef IMPLIB_EXPORT_SHIMS
  .hidden g_async_queue_timed_pop
#endif
g_async_queue_timed_pop:
  .cfi_startproc

1:
  // Load address
  // TODO: can we do this faster on newer ARMs?
  ldr ip, 3f
2:
  add ip, pc, ip
  ldr ip, [ip]

  cmp ip, #0

  // Fast path
  bxne ip

  // Slow path
  ldr ip, =70
  push {ip}
  .cfi_adjust_cfa_offset 4
  PUSH_REG(lr)
  bl _libglib_2_0_so_save_regs_and_resolve
  POP_REG(lr)
  add sp, #4
  .cfi_adjust_cfa_offset -4
  bx ip

  // Force constant pool for ldr above
  .ltorg

  .cfi_endproc

3:
  .word _libglib_2_0_so_tramp_table - (2b + 8) + 280

/*
 * Copyright 2018-2025 Yury Gribov
 *
 * The MIT License (MIT)
 *
 * Use of this source code is governed by MIT license that can be
 * found in the LICENSE.txt file.
 */

  .globl g_async_queue_timed_pop_unlocked
  .p2align 4
  .type g_async_queue_timed_pop_unlocked, %function
#ifndef IMPLIB_EXPORT_SHIMS
  .hidden g_async_queue_timed_pop_unlocked
#endif
g_async_queue_timed_pop_unlocked:
  .cfi_startproc

1:
  // Load address
  // TODO: can we do this faster on newer ARMs?
  ldr ip, 3f
2:
  add ip, pc, ip
  ldr ip, [ip]

  cmp ip, #0

  // Fast path
  bxne ip

  // Slow path
  ldr ip, =71
  push {ip}
  .cfi_adjust_cfa_offset 4
  PUSH_REG(lr)
  bl _libglib_2_0_so_save_regs_and_resolve
  POP_REG(lr)
  add sp, #4
  .cfi_adjust_cfa_offset -4
  bx ip

  // Force constant pool for ldr above
  .ltorg

  .cfi_endproc

3:
  .word _libglib_2_0_so_tramp_table - (2b + 8) + 284

/*
 * Copyright 2018-2025 Yury Gribov
 *
 * The MIT License (MIT)
 *
 * Use of this source code is governed by MIT license that can be
 * found in the LICENSE.txt file.
 */

  .globl g_async_queue_timeout_pop
  .p2align 4
  .type g_async_queue_timeout_pop, %function
#ifndef IMPLIB_EXPORT_SHIMS
  .hidden g_async_queue_timeout_pop
#endif
g_async_queue_timeout_pop:
  .cfi_startproc

1:
  // Load address
  // TODO: can we do this faster on newer ARMs?
  ldr ip, 3f
2:
  add ip, pc, ip
  ldr ip, [ip]

  cmp ip, #0

  // Fast path
  bxne ip

  // Slow path
  ldr ip, =72
  push {ip}
  .cfi_adjust_cfa_offset 4
  PUSH_REG(lr)
  bl _libglib_2_0_so_save_regs_and_resolve
  POP_REG(lr)
  add sp, #4
  .cfi_adjust_cfa_offset -4
  bx ip

  // Force constant pool for ldr above
  .ltorg

  .cfi_endproc

3:
  .word _libglib_2_0_so_tramp_table - (2b + 8) + 288

/*
 * Copyright 2018-2025 Yury Gribov
 *
 * The MIT License (MIT)
 *
 * Use of this source code is governed by MIT license that can be
 * found in the LICENSE.txt file.
 */

  .globl g_async_queue_timeout_pop_unlocked
  .p2align 4
  .type g_async_queue_timeout_pop_unlocked, %function
#ifndef IMPLIB_EXPORT_SHIMS
  .hidden g_async_queue_timeout_pop_unlocked
#endif
g_async_queue_timeout_pop_unlocked:
  .cfi_startproc

1:
  // Load address
  // TODO: can we do this faster on newer ARMs?
  ldr ip, 3f
2:
  add ip, pc, ip
  ldr ip, [ip]

  cmp ip, #0

  // Fast path
  bxne ip

  // Slow path
  ldr ip, =73
  push {ip}
  .cfi_adjust_cfa_offset 4
  PUSH_REG(lr)
  bl _libglib_2_0_so_save_regs_and_resolve
  POP_REG(lr)
  add sp, #4
  .cfi_adjust_cfa_offset -4
  bx ip

  // Force constant pool for ldr above
  .ltorg

  .cfi_endproc

3:
  .word _libglib_2_0_so_tramp_table - (2b + 8) + 292

/*
 * Copyright 2018-2025 Yury Gribov
 *
 * The MIT License (MIT)
 *
 * Use of this source code is governed by MIT license that can be
 * found in the LICENSE.txt file.
 */

  .globl g_async_queue_try_pop
  .p2align 4
  .type g_async_queue_try_pop, %function
#ifndef IMPLIB_EXPORT_SHIMS
  .hidden g_async_queue_try_pop
#endif
g_async_queue_try_pop:
  .cfi_startproc

1:
  // Load address
  // TODO: can we do this faster on newer ARMs?
  ldr ip, 3f
2:
  add ip, pc, ip
  ldr ip, [ip]

  cmp ip, #0

  // Fast path
  bxne ip

  // Slow path
  ldr ip, =74
  push {ip}
  .cfi_adjust_cfa_offset 4
  PUSH_REG(lr)
  bl _libglib_2_0_so_save_regs_and_resolve
  POP_REG(lr)
  add sp, #4
  .cfi_adjust_cfa_offset -4
  bx ip

  // Force constant pool for ldr above
  .ltorg

  .cfi_endproc

3:
  .word _libglib_2_0_so_tramp_table - (2b + 8) + 296

/*
 * Copyright 2018-2025 Yury Gribov
 *
 * The MIT License (MIT)
 *
 * Use of this source code is governed by MIT license that can be
 * found in the LICENSE.txt file.
 */

  .globl g_async_queue_try_pop_unlocked
  .p2align 4
  .type g_async_queue_try_pop_unlocked, %function
#ifndef IMPLIB_EXPORT_SHIMS
  .hidden g_async_queue_try_pop_unlocked
#endif
g_async_queue_try_pop_unlocked:
  .cfi_startproc

1:
  // Load address
  // TODO: can we do this faster on newer ARMs?
  ldr ip, 3f
2:
  add ip, pc, ip
  ldr ip, [ip]

  cmp ip, #0

  // Fast path
  bxne ip

  // Slow path
  ldr ip, =75
  push {ip}
  .cfi_adjust_cfa_offset 4
  PUSH_REG(lr)
  bl _libglib_2_0_so_save_regs_and_resolve
  POP_REG(lr)
  add sp, #4
  .cfi_adjust_cfa_offset -4
  bx ip

  // Force constant pool for ldr above
  .ltorg

  .cfi_endproc

3:
  .word _libglib_2_0_so_tramp_table - (2b + 8) + 300

/*
 * Copyright 2018-2025 Yury Gribov
 *
 * The MIT License (MIT)
 *
 * Use of this source code is governed by MIT license that can be
 * found in the LICENSE.txt file.
 */

  .globl g_async_queue_unlock
  .p2align 4
  .type g_async_queue_unlock, %function
#ifndef IMPLIB_EXPORT_SHIMS
  .hidden g_async_queue_unlock
#endif
g_async_queue_unlock:
  .cfi_startproc

1:
  // Load address
  // TODO: can we do this faster on newer ARMs?
  ldr ip, 3f
2:
  add ip, pc, ip
  ldr ip, [ip]

  cmp ip, #0

  // Fast path
  bxne ip

  // Slow path
  ldr ip, =76
  push {ip}
  .cfi_adjust_cfa_offset 4
  PUSH_REG(lr)
  bl _libglib_2_0_so_save_regs_and_resolve
  POP_REG(lr)
  add sp, #4
  .cfi_adjust_cfa_offset -4
  bx ip

  // Force constant pool for ldr above
  .ltorg

  .cfi_endproc

3:
  .word _libglib_2_0_so_tramp_table - (2b + 8) + 304

/*
 * Copyright 2018-2025 Yury Gribov
 *
 * The MIT License (MIT)
 *
 * Use of this source code is governed by MIT license that can be
 * found in the LICENSE.txt file.
 */

  .globl g_async_queue_unref
  .p2align 4
  .type g_async_queue_unref, %function
#ifndef IMPLIB_EXPORT_SHIMS
  .hidden g_async_queue_unref
#endif
g_async_queue_unref:
  .cfi_startproc

1:
  // Load address
  // TODO: can we do this faster on newer ARMs?
  ldr ip, 3f
2:
  add ip, pc, ip
  ldr ip, [ip]

  cmp ip, #0

  // Fast path
  bxne ip

  // Slow path
  ldr ip, =77
  push {ip}
  .cfi_adjust_cfa_offset 4
  PUSH_REG(lr)
  bl _libglib_2_0_so_save_regs_and_resolve
  POP_REG(lr)
  add sp, #4
  .cfi_adjust_cfa_offset -4
  bx ip

  // Force constant pool for ldr above
  .ltorg

  .cfi_endproc

3:
  .word _libglib_2_0_so_tramp_table - (2b + 8) + 308

/*
 * Copyright 2018-2025 Yury Gribov
 *
 * The MIT License (MIT)
 *
 * Use of this source code is governed by MIT license that can be
 * found in the LICENSE.txt file.
 */

  .globl g_async_queue_unref_and_unlock
  .p2align 4
  .type g_async_queue_unref_and_unlock, %function
#ifndef IMPLIB_EXPORT_SHIMS
  .hidden g_async_queue_unref_and_unlock
#endif
g_async_queue_unref_and_unlock:
  .cfi_startproc

1:
  // Load address
  // TODO: can we do this faster on newer ARMs?
  ldr ip, 3f
2:
  add ip, pc, ip
  ldr ip, [ip]

  cmp ip, #0

  // Fast path
  bxne ip

  // Slow path
  ldr ip, =78
  push {ip}
  .cfi_adjust_cfa_offset 4
  PUSH_REG(lr)
  bl _libglib_2_0_so_save_regs_and_resolve
  POP_REG(lr)
  add sp, #4
  .cfi_adjust_cfa_offset -4
  bx ip

  // Force constant pool for ldr above
  .ltorg

  .cfi_endproc

3:
  .word _libglib_2_0_so_tramp_table - (2b + 8) + 312

/*
 * Copyright 2018-2025 Yury Gribov
 *
 * The MIT License (MIT)
 *
 * Use of this source code is governed by MIT license that can be
 * found in the LICENSE.txt file.
 */

  .globl g_atexit
  .p2align 4
  .type g_atexit, %function
#ifndef IMPLIB_EXPORT_SHIMS
  .hidden g_atexit
#endif
g_atexit:
  .cfi_startproc

1:
  // Load address
  // TODO: can we do this faster on newer ARMs?
  ldr ip, 3f
2:
  add ip, pc, ip
  ldr ip, [ip]

  cmp ip, #0

  // Fast path
  bxne ip

  // Slow path
  ldr ip, =79
  push {ip}
  .cfi_adjust_cfa_offset 4
  PUSH_REG(lr)
  bl _libglib_2_0_so_save_regs_and_resolve
  POP_REG(lr)
  add sp, #4
  .cfi_adjust_cfa_offset -4
  bx ip

  // Force constant pool for ldr above
  .ltorg

  .cfi_endproc

3:
  .word _libglib_2_0_so_tramp_table - (2b + 8) + 316

/*
 * Copyright 2018-2025 Yury Gribov
 *
 * The MIT License (MIT)
 *
 * Use of this source code is governed by MIT license that can be
 * found in the LICENSE.txt file.
 */

  .globl g_atomic_int_add
  .p2align 4
  .type g_atomic_int_add, %function
#ifndef IMPLIB_EXPORT_SHIMS
  .hidden g_atomic_int_add
#endif
g_atomic_int_add:
  .cfi_startproc

1:
  // Load address
  // TODO: can we do this faster on newer ARMs?
  ldr ip, 3f
2:
  add ip, pc, ip
  ldr ip, [ip]

  cmp ip, #0

  // Fast path
  bxne ip

  // Slow path
  ldr ip, =80
  push {ip}
  .cfi_adjust_cfa_offset 4
  PUSH_REG(lr)
  bl _libglib_2_0_so_save_regs_and_resolve
  POP_REG(lr)
  add sp, #4
  .cfi_adjust_cfa_offset -4
  bx ip

  // Force constant pool for ldr above
  .ltorg

  .cfi_endproc

3:
  .word _libglib_2_0_so_tramp_table - (2b + 8) + 320

/*
 * Copyright 2018-2025 Yury Gribov
 *
 * The MIT License (MIT)
 *
 * Use of this source code is governed by MIT license that can be
 * found in the LICENSE.txt file.
 */

  .globl g_atomic_int_and
  .p2align 4
  .type g_atomic_int_and, %function
#ifndef IMPLIB_EXPORT_SHIMS
  .hidden g_atomic_int_and
#endif
g_atomic_int_and:
  .cfi_startproc

1:
  // Load address
  // TODO: can we do this faster on newer ARMs?
  ldr ip, 3f
2:
  add ip, pc, ip
  ldr ip, [ip]

  cmp ip, #0

  // Fast path
  bxne ip

  // Slow path
  ldr ip, =81
  push {ip}
  .cfi_adjust_cfa_offset 4
  PUSH_REG(lr)
  bl _libglib_2_0_so_save_regs_and_resolve
  POP_REG(lr)
  add sp, #4
  .cfi_adjust_cfa_offset -4
  bx ip

  // Force constant pool for ldr above
  .ltorg

  .cfi_endproc

3:
  .word _libglib_2_0_so_tramp_table - (2b + 8) + 324

/*
 * Copyright 2018-2025 Yury Gribov
 *
 * The MIT License (MIT)
 *
 * Use of this source code is governed by MIT license that can be
 * found in the LICENSE.txt file.
 */

  .globl g_atomic_int_compare_and_exchange
  .p2align 4
  .type g_atomic_int_compare_and_exchange, %function
#ifndef IMPLIB_EXPORT_SHIMS
  .hidden g_atomic_int_compare_and_exchange
#endif
g_atomic_int_compare_and_exchange:
  .cfi_startproc

1:
  // Load address
  // TODO: can we do this faster on newer ARMs?
  ldr ip, 3f
2:
  add ip, pc, ip
  ldr ip, [ip]

  cmp ip, #0

  // Fast path
  bxne ip

  // Slow path
  ldr ip, =82
  push {ip}
  .cfi_adjust_cfa_offset 4
  PUSH_REG(lr)
  bl _libglib_2_0_so_save_regs_and_resolve
  POP_REG(lr)
  add sp, #4
  .cfi_adjust_cfa_offset -4
  bx ip

  // Force constant pool for ldr above
  .ltorg

  .cfi_endproc

3:
  .word _libglib_2_0_so_tramp_table - (2b + 8) + 328

/*
 * Copyright 2018-2025 Yury Gribov
 *
 * The MIT License (MIT)
 *
 * Use of this source code is governed by MIT license that can be
 * found in the LICENSE.txt file.
 */

  .globl g_atomic_int_compare_and_exchange_full
  .p2align 4
  .type g_atomic_int_compare_and_exchange_full, %function
#ifndef IMPLIB_EXPORT_SHIMS
  .hidden g_atomic_int_compare_and_exchange_full
#endif
g_atomic_int_compare_and_exchange_full:
  .cfi_startproc

1:
  // Load address
  // TODO: can we do this faster on newer ARMs?
  ldr ip, 3f
2:
  add ip, pc, ip
  ldr ip, [ip]

  cmp ip, #0

  // Fast path
  bxne ip

  // Slow path
  ldr ip, =83
  push {ip}
  .cfi_adjust_cfa_offset 4
  PUSH_REG(lr)
  bl _libglib_2_0_so_save_regs_and_resolve
  POP_REG(lr)
  add sp, #4
  .cfi_adjust_cfa_offset -4
  bx ip

  // Force constant pool for ldr above
  .ltorg

  .cfi_endproc

3:
  .word _libglib_2_0_so_tramp_table - (2b + 8) + 332

/*
 * Copyright 2018-2025 Yury Gribov
 *
 * The MIT License (MIT)
 *
 * Use of this source code is governed by MIT license that can be
 * found in the LICENSE.txt file.
 */

  .globl g_atomic_int_dec_and_test
  .p2align 4
  .type g_atomic_int_dec_and_test, %function
#ifndef IMPLIB_EXPORT_SHIMS
  .hidden g_atomic_int_dec_and_test
#endif
g_atomic_int_dec_and_test:
  .cfi_startproc

1:
  // Load address
  // TODO: can we do this faster on newer ARMs?
  ldr ip, 3f
2:
  add ip, pc, ip
  ldr ip, [ip]

  cmp ip, #0

  // Fast path
  bxne ip

  // Slow path
  ldr ip, =84
  push {ip}
  .cfi_adjust_cfa_offset 4
  PUSH_REG(lr)
  bl _libglib_2_0_so_save_regs_and_resolve
  POP_REG(lr)
  add sp, #4
  .cfi_adjust_cfa_offset -4
  bx ip

  // Force constant pool for ldr above
  .ltorg

  .cfi_endproc

3:
  .word _libglib_2_0_so_tramp_table - (2b + 8) + 336

/*
 * Copyright 2018-2025 Yury Gribov
 *
 * The MIT License (MIT)
 *
 * Use of this source code is governed by MIT license that can be
 * found in the LICENSE.txt file.
 */

  .globl g_atomic_int_exchange
  .p2align 4
  .type g_atomic_int_exchange, %function
#ifndef IMPLIB_EXPORT_SHIMS
  .hidden g_atomic_int_exchange
#endif
g_atomic_int_exchange:
  .cfi_startproc

1:
  // Load address
  // TODO: can we do this faster on newer ARMs?
  ldr ip, 3f
2:
  add ip, pc, ip
  ldr ip, [ip]

  cmp ip, #0

  // Fast path
  bxne ip

  // Slow path
  ldr ip, =85
  push {ip}
  .cfi_adjust_cfa_offset 4
  PUSH_REG(lr)
  bl _libglib_2_0_so_save_regs_and_resolve
  POP_REG(lr)
  add sp, #4
  .cfi_adjust_cfa_offset -4
  bx ip

  // Force constant pool for ldr above
  .ltorg

  .cfi_endproc

3:
  .word _libglib_2_0_so_tramp_table - (2b + 8) + 340

/*
 * Copyright 2018-2025 Yury Gribov
 *
 * The MIT License (MIT)
 *
 * Use of this source code is governed by MIT license that can be
 * found in the LICENSE.txt file.
 */

  .globl g_atomic_int_exchange_and_add
  .p2align 4
  .type g_atomic_int_exchange_and_add, %function
#ifndef IMPLIB_EXPORT_SHIMS
  .hidden g_atomic_int_exchange_and_add
#endif
g_atomic_int_exchange_and_add:
  .cfi_startproc

1:
  // Load address
  // TODO: can we do this faster on newer ARMs?
  ldr ip, 3f
2:
  add ip, pc, ip
  ldr ip, [ip]

  cmp ip, #0

  // Fast path
  bxne ip

  // Slow path
  ldr ip, =86
  push {ip}
  .cfi_adjust_cfa_offset 4
  PUSH_REG(lr)
  bl _libglib_2_0_so_save_regs_and_resolve
  POP_REG(lr)
  add sp, #4
  .cfi_adjust_cfa_offset -4
  bx ip

  // Force constant pool for ldr above
  .ltorg

  .cfi_endproc

3:
  .word _libglib_2_0_so_tramp_table - (2b + 8) + 344

/*
 * Copyright 2018-2025 Yury Gribov
 *
 * The MIT License (MIT)
 *
 * Use of this source code is governed by MIT license that can be
 * found in the LICENSE.txt file.
 */

  .globl g_atomic_int_get
  .p2align 4
  .type g_atomic_int_get, %function
#ifndef IMPLIB_EXPORT_SHIMS
  .hidden g_atomic_int_get
#endif
g_atomic_int_get:
  .cfi_startproc

1:
  // Load address
  // TODO: can we do this faster on newer ARMs?
  ldr ip, 3f
2:
  add ip, pc, ip
  ldr ip, [ip]

  cmp ip, #0

  // Fast path
  bxne ip

  // Slow path
  ldr ip, =87
  push {ip}
  .cfi_adjust_cfa_offset 4
  PUSH_REG(lr)
  bl _libglib_2_0_so_save_regs_and_resolve
  POP_REG(lr)
  add sp, #4
  .cfi_adjust_cfa_offset -4
  bx ip

  // Force constant pool for ldr above
  .ltorg

  .cfi_endproc

3:
  .word _libglib_2_0_so_tramp_table - (2b + 8) + 348

/*
 * Copyright 2018-2025 Yury Gribov
 *
 * The MIT License (MIT)
 *
 * Use of this source code is governed by MIT license that can be
 * found in the LICENSE.txt file.
 */

  .globl g_atomic_int_inc
  .p2align 4
  .type g_atomic_int_inc, %function
#ifndef IMPLIB_EXPORT_SHIMS
  .hidden g_atomic_int_inc
#endif
g_atomic_int_inc:
  .cfi_startproc

1:
  // Load address
  // TODO: can we do this faster on newer ARMs?
  ldr ip, 3f
2:
  add ip, pc, ip
  ldr ip, [ip]

  cmp ip, #0

  // Fast path
  bxne ip

  // Slow path
  ldr ip, =88
  push {ip}
  .cfi_adjust_cfa_offset 4
  PUSH_REG(lr)
  bl _libglib_2_0_so_save_regs_and_resolve
  POP_REG(lr)
  add sp, #4
  .cfi_adjust_cfa_offset -4
  bx ip

  // Force constant pool for ldr above
  .ltorg

  .cfi_endproc

3:
  .word _libglib_2_0_so_tramp_table - (2b + 8) + 352

/*
 * Copyright 2018-2025 Yury Gribov
 *
 * The MIT License (MIT)
 *
 * Use of this source code is governed by MIT license that can be
 * found in the LICENSE.txt file.
 */

  .globl g_atomic_int_or
  .p2align 4
  .type g_atomic_int_or, %function
#ifndef IMPLIB_EXPORT_SHIMS
  .hidden g_atomic_int_or
#endif
g_atomic_int_or:
  .cfi_startproc

1:
  // Load address
  // TODO: can we do this faster on newer ARMs?
  ldr ip, 3f
2:
  add ip, pc, ip
  ldr ip, [ip]

  cmp ip, #0

  // Fast path
  bxne ip

  // Slow path
  ldr ip, =89
  push {ip}
  .cfi_adjust_cfa_offset 4
  PUSH_REG(lr)
  bl _libglib_2_0_so_save_regs_and_resolve
  POP_REG(lr)
  add sp, #4
  .cfi_adjust_cfa_offset -4
  bx ip

  // Force constant pool for ldr above
  .ltorg

  .cfi_endproc

3:
  .word _libglib_2_0_so_tramp_table - (2b + 8) + 356

/*
 * Copyright 2018-2025 Yury Gribov
 *
 * The MIT License (MIT)
 *
 * Use of this source code is governed by MIT license that can be
 * found in the LICENSE.txt file.
 */

  .globl g_atomic_int_set
  .p2align 4
  .type g_atomic_int_set, %function
#ifndef IMPLIB_EXPORT_SHIMS
  .hidden g_atomic_int_set
#endif
g_atomic_int_set:
  .cfi_startproc

1:
  // Load address
  // TODO: can we do this faster on newer ARMs?
  ldr ip, 3f
2:
  add ip, pc, ip
  ldr ip, [ip]

  cmp ip, #0

  // Fast path
  bxne ip

  // Slow path
  ldr ip, =90
  push {ip}
  .cfi_adjust_cfa_offset 4
  PUSH_REG(lr)
  bl _libglib_2_0_so_save_regs_and_resolve
  POP_REG(lr)
  add sp, #4
  .cfi_adjust_cfa_offset -4
  bx ip

  // Force constant pool for ldr above
  .ltorg

  .cfi_endproc

3:
  .word _libglib_2_0_so_tramp_table - (2b + 8) + 360

/*
 * Copyright 2018-2025 Yury Gribov
 *
 * The MIT License (MIT)
 *
 * Use of this source code is governed by MIT license that can be
 * found in the LICENSE.txt file.
 */

  .globl g_atomic_int_xor
  .p2align 4
  .type g_atomic_int_xor, %function
#ifndef IMPLIB_EXPORT_SHIMS
  .hidden g_atomic_int_xor
#endif
g_atomic_int_xor:
  .cfi_startproc

1:
  // Load address
  // TODO: can we do this faster on newer ARMs?
  ldr ip, 3f
2:
  add ip, pc, ip
  ldr ip, [ip]

  cmp ip, #0

  // Fast path
  bxne ip

  // Slow path
  ldr ip, =91
  push {ip}
  .cfi_adjust_cfa_offset 4
  PUSH_REG(lr)
  bl _libglib_2_0_so_save_regs_and_resolve
  POP_REG(lr)
  add sp, #4
  .cfi_adjust_cfa_offset -4
  bx ip

  // Force constant pool for ldr above
  .ltorg

  .cfi_endproc

3:
  .word _libglib_2_0_so_tramp_table - (2b + 8) + 364

/*
 * Copyright 2018-2025 Yury Gribov
 *
 * The MIT License (MIT)
 *
 * Use of this source code is governed by MIT license that can be
 * found in the LICENSE.txt file.
 */

  .globl g_atomic_pointer_add
  .p2align 4
  .type g_atomic_pointer_add, %function
#ifndef IMPLIB_EXPORT_SHIMS
  .hidden g_atomic_pointer_add
#endif
g_atomic_pointer_add:
  .cfi_startproc

1:
  // Load address
  // TODO: can we do this faster on newer ARMs?
  ldr ip, 3f
2:
  add ip, pc, ip
  ldr ip, [ip]

  cmp ip, #0

  // Fast path
  bxne ip

  // Slow path
  ldr ip, =92
  push {ip}
  .cfi_adjust_cfa_offset 4
  PUSH_REG(lr)
  bl _libglib_2_0_so_save_regs_and_resolve
  POP_REG(lr)
  add sp, #4
  .cfi_adjust_cfa_offset -4
  bx ip

  // Force constant pool for ldr above
  .ltorg

  .cfi_endproc

3:
  .word _libglib_2_0_so_tramp_table - (2b + 8) + 368

/*
 * Copyright 2018-2025 Yury Gribov
 *
 * The MIT License (MIT)
 *
 * Use of this source code is governed by MIT license that can be
 * found in the LICENSE.txt file.
 */

  .globl g_atomic_pointer_and
  .p2align 4
  .type g_atomic_pointer_and, %function
#ifndef IMPLIB_EXPORT_SHIMS
  .hidden g_atomic_pointer_and
#endif
g_atomic_pointer_and:
  .cfi_startproc

1:
  // Load address
  // TODO: can we do this faster on newer ARMs?
  ldr ip, 3f
2:
  add ip, pc, ip
  ldr ip, [ip]

  cmp ip, #0

  // Fast path
  bxne ip

  // Slow path
  ldr ip, =93
  push {ip}
  .cfi_adjust_cfa_offset 4
  PUSH_REG(lr)
  bl _libglib_2_0_so_save_regs_and_resolve
  POP_REG(lr)
  add sp, #4
  .cfi_adjust_cfa_offset -4
  bx ip

  // Force constant pool for ldr above
  .ltorg

  .cfi_endproc

3:
  .word _libglib_2_0_so_tramp_table - (2b + 8) + 372

/*
 * Copyright 2018-2025 Yury Gribov
 *
 * The MIT License (MIT)
 *
 * Use of this source code is governed by MIT license that can be
 * found in the LICENSE.txt file.
 */

  .globl g_atomic_pointer_compare_and_exchange
  .p2align 4
  .type g_atomic_pointer_compare_and_exchange, %function
#ifndef IMPLIB_EXPORT_SHIMS
  .hidden g_atomic_pointer_compare_and_exchange
#endif
g_atomic_pointer_compare_and_exchange:
  .cfi_startproc

1:
  // Load address
  // TODO: can we do this faster on newer ARMs?
  ldr ip, 3f
2:
  add ip, pc, ip
  ldr ip, [ip]

  cmp ip, #0

  // Fast path
  bxne ip

  // Slow path
  ldr ip, =94
  push {ip}
  .cfi_adjust_cfa_offset 4
  PUSH_REG(lr)
  bl _libglib_2_0_so_save_regs_and_resolve
  POP_REG(lr)
  add sp, #4
  .cfi_adjust_cfa_offset -4
  bx ip

  // Force constant pool for ldr above
  .ltorg

  .cfi_endproc

3:
  .word _libglib_2_0_so_tramp_table - (2b + 8) + 376

/*
 * Copyright 2018-2025 Yury Gribov
 *
 * The MIT License (MIT)
 *
 * Use of this source code is governed by MIT license that can be
 * found in the LICENSE.txt file.
 */

  .globl g_atomic_pointer_compare_and_exchange_full
  .p2align 4
  .type g_atomic_pointer_compare_and_exchange_full, %function
#ifndef IMPLIB_EXPORT_SHIMS
  .hidden g_atomic_pointer_compare_and_exchange_full
#endif
g_atomic_pointer_compare_and_exchange_full:
  .cfi_startproc

1:
  // Load address
  // TODO: can we do this faster on newer ARMs?
  ldr ip, 3f
2:
  add ip, pc, ip
  ldr ip, [ip]

  cmp ip, #0

  // Fast path
  bxne ip

  // Slow path
  ldr ip, =95
  push {ip}
  .cfi_adjust_cfa_offset 4
  PUSH_REG(lr)
  bl _libglib_2_0_so_save_regs_and_resolve
  POP_REG(lr)
  add sp, #4
  .cfi_adjust_cfa_offset -4
  bx ip

  // Force constant pool for ldr above
  .ltorg

  .cfi_endproc

3:
  .word _libglib_2_0_so_tramp_table - (2b + 8) + 380

/*
 * Copyright 2018-2025 Yury Gribov
 *
 * The MIT License (MIT)
 *
 * Use of this source code is governed by MIT license that can be
 * found in the LICENSE.txt file.
 */

  .globl g_atomic_pointer_exchange
  .p2align 4
  .type g_atomic_pointer_exchange, %function
#ifndef IMPLIB_EXPORT_SHIMS
  .hidden g_atomic_pointer_exchange
#endif
g_atomic_pointer_exchange:
  .cfi_startproc

1:
  // Load address
  // TODO: can we do this faster on newer ARMs?
  ldr ip, 3f
2:
  add ip, pc, ip
  ldr ip, [ip]

  cmp ip, #0

  // Fast path
  bxne ip

  // Slow path
  ldr ip, =96
  push {ip}
  .cfi_adjust_cfa_offset 4
  PUSH_REG(lr)
  bl _libglib_2_0_so_save_regs_and_resolve
  POP_REG(lr)
  add sp, #4
  .cfi_adjust_cfa_offset -4
  bx ip

  // Force constant pool for ldr above
  .ltorg

  .cfi_endproc

3:
  .word _libglib_2_0_so_tramp_table - (2b + 8) + 384

/*
 * Copyright 2018-2025 Yury Gribov
 *
 * The MIT License (MIT)
 *
 * Use of this source code is governed by MIT license that can be
 * found in the LICENSE.txt file.
 */

  .globl g_atomic_pointer_get
  .p2align 4
  .type g_atomic_pointer_get, %function
#ifndef IMPLIB_EXPORT_SHIMS
  .hidden g_atomic_pointer_get
#endif
g_atomic_pointer_get:
  .cfi_startproc

1:
  // Load address
  // TODO: can we do this faster on newer ARMs?
  ldr ip, 3f
2:
  add ip, pc, ip
  ldr ip, [ip]

  cmp ip, #0

  // Fast path
  bxne ip

  // Slow path
  ldr ip, =97
  push {ip}
  .cfi_adjust_cfa_offset 4
  PUSH_REG(lr)
  bl _libglib_2_0_so_save_regs_and_resolve
  POP_REG(lr)
  add sp, #4
  .cfi_adjust_cfa_offset -4
  bx ip

  // Force constant pool for ldr above
  .ltorg

  .cfi_endproc

3:
  .word _libglib_2_0_so_tramp_table - (2b + 8) + 388

/*
 * Copyright 2018-2025 Yury Gribov
 *
 * The MIT License (MIT)
 *
 * Use of this source code is governed by MIT license that can be
 * found in the LICENSE.txt file.
 */

  .globl g_atomic_pointer_or
  .p2align 4
  .type g_atomic_pointer_or, %function
#ifndef IMPLIB_EXPORT_SHIMS
  .hidden g_atomic_pointer_or
#endif
g_atomic_pointer_or:
  .cfi_startproc

1:
  // Load address
  // TODO: can we do this faster on newer ARMs?
  ldr ip, 3f
2:
  add ip, pc, ip
  ldr ip, [ip]

  cmp ip, #0

  // Fast path
  bxne ip

  // Slow path
  ldr ip, =98
  push {ip}
  .cfi_adjust_cfa_offset 4
  PUSH_REG(lr)
  bl _libglib_2_0_so_save_regs_and_resolve
  POP_REG(lr)
  add sp, #4
  .cfi_adjust_cfa_offset -4
  bx ip

  // Force constant pool for ldr above
  .ltorg

  .cfi_endproc

3:
  .word _libglib_2_0_so_tramp_table - (2b + 8) + 392

/*
 * Copyright 2018-2025 Yury Gribov
 *
 * The MIT License (MIT)
 *
 * Use of this source code is governed by MIT license that can be
 * found in the LICENSE.txt file.
 */

  .globl g_atomic_pointer_set
  .p2align 4
  .type g_atomic_pointer_set, %function
#ifndef IMPLIB_EXPORT_SHIMS
  .hidden g_atomic_pointer_set
#endif
g_atomic_pointer_set:
  .cfi_startproc

1:
  // Load address
  // TODO: can we do this faster on newer ARMs?
  ldr ip, 3f
2:
  add ip, pc, ip
  ldr ip, [ip]

  cmp ip, #0

  // Fast path
  bxne ip

  // Slow path
  ldr ip, =99
  push {ip}
  .cfi_adjust_cfa_offset 4
  PUSH_REG(lr)
  bl _libglib_2_0_so_save_regs_and_resolve
  POP_REG(lr)
  add sp, #4
  .cfi_adjust_cfa_offset -4
  bx ip

  // Force constant pool for ldr above
  .ltorg

  .cfi_endproc

3:
  .word _libglib_2_0_so_tramp_table - (2b + 8) + 396

/*
 * Copyright 2018-2025 Yury Gribov
 *
 * The MIT License (MIT)
 *
 * Use of this source code is governed by MIT license that can be
 * found in the LICENSE.txt file.
 */

  .globl g_atomic_pointer_xor
  .p2align 4
  .type g_atomic_pointer_xor, %function
#ifndef IMPLIB_EXPORT_SHIMS
  .hidden g_atomic_pointer_xor
#endif
g_atomic_pointer_xor:
  .cfi_startproc

1:
  // Load address
  // TODO: can we do this faster on newer ARMs?
  ldr ip, 3f
2:
  add ip, pc, ip
  ldr ip, [ip]

  cmp ip, #0

  // Fast path
  bxne ip

  // Slow path
  ldr ip, =100
  push {ip}
  .cfi_adjust_cfa_offset 4
  PUSH_REG(lr)
  bl _libglib_2_0_so_save_regs_and_resolve
  POP_REG(lr)
  add sp, #4
  .cfi_adjust_cfa_offset -4
  bx ip

  // Force constant pool for ldr above
  .ltorg

  .cfi_endproc

3:
  .word _libglib_2_0_so_tramp_table - (2b + 8) + 400

/*
 * Copyright 2018-2025 Yury Gribov
 *
 * The MIT License (MIT)
 *
 * Use of this source code is governed by MIT license that can be
 * found in the LICENSE.txt file.
 */

  .globl g_atomic_rc_box_acquire
  .p2align 4
  .type g_atomic_rc_box_acquire, %function
#ifndef IMPLIB_EXPORT_SHIMS
  .hidden g_atomic_rc_box_acquire
#endif
g_atomic_rc_box_acquire:
  .cfi_startproc

1:
  // Load address
  // TODO: can we do this faster on newer ARMs?
  ldr ip, 3f
2:
  add ip, pc, ip
  ldr ip, [ip]

  cmp ip, #0

  // Fast path
  bxne ip

  // Slow path
  ldr ip, =101
  push {ip}
  .cfi_adjust_cfa_offset 4
  PUSH_REG(lr)
  bl _libglib_2_0_so_save_regs_and_resolve
  POP_REG(lr)
  add sp, #4
  .cfi_adjust_cfa_offset -4
  bx ip

  // Force constant pool for ldr above
  .ltorg

  .cfi_endproc

3:
  .word _libglib_2_0_so_tramp_table - (2b + 8) + 404

/*
 * Copyright 2018-2025 Yury Gribov
 *
 * The MIT License (MIT)
 *
 * Use of this source code is governed by MIT license that can be
 * found in the LICENSE.txt file.
 */

  .globl g_atomic_rc_box_alloc
  .p2align 4
  .type g_atomic_rc_box_alloc, %function
#ifndef IMPLIB_EXPORT_SHIMS
  .hidden g_atomic_rc_box_alloc
#endif
g_atomic_rc_box_alloc:
  .cfi_startproc

1:
  // Load address
  // TODO: can we do this faster on newer ARMs?
  ldr ip, 3f
2:
  add ip, pc, ip
  ldr ip, [ip]

  cmp ip, #0

  // Fast path
  bxne ip

  // Slow path
  ldr ip, =102
  push {ip}
  .cfi_adjust_cfa_offset 4
  PUSH_REG(lr)
  bl _libglib_2_0_so_save_regs_and_resolve
  POP_REG(lr)
  add sp, #4
  .cfi_adjust_cfa_offset -4
  bx ip

  // Force constant pool for ldr above
  .ltorg

  .cfi_endproc

3:
  .word _libglib_2_0_so_tramp_table - (2b + 8) + 408

/*
 * Copyright 2018-2025 Yury Gribov
 *
 * The MIT License (MIT)
 *
 * Use of this source code is governed by MIT license that can be
 * found in the LICENSE.txt file.
 */

  .globl g_atomic_rc_box_alloc0
  .p2align 4
  .type g_atomic_rc_box_alloc0, %function
#ifndef IMPLIB_EXPORT_SHIMS
  .hidden g_atomic_rc_box_alloc0
#endif
g_atomic_rc_box_alloc0:
  .cfi_startproc

1:
  // Load address
  // TODO: can we do this faster on newer ARMs?
  ldr ip, 3f
2:
  add ip, pc, ip
  ldr ip, [ip]

  cmp ip, #0

  // Fast path
  bxne ip

  // Slow path
  ldr ip, =103
  push {ip}
  .cfi_adjust_cfa_offset 4
  PUSH_REG(lr)
  bl _libglib_2_0_so_save_regs_and_resolve
  POP_REG(lr)
  add sp, #4
  .cfi_adjust_cfa_offset -4
  bx ip

  // Force constant pool for ldr above
  .ltorg

  .cfi_endproc

3:
  .word _libglib_2_0_so_tramp_table - (2b + 8) + 412

/*
 * Copyright 2018-2025 Yury Gribov
 *
 * The MIT License (MIT)
 *
 * Use of this source code is governed by MIT license that can be
 * found in the LICENSE.txt file.
 */

  .globl g_atomic_rc_box_dup
  .p2align 4
  .type g_atomic_rc_box_dup, %function
#ifndef IMPLIB_EXPORT_SHIMS
  .hidden g_atomic_rc_box_dup
#endif
g_atomic_rc_box_dup:
  .cfi_startproc

1:
  // Load address
  // TODO: can we do this faster on newer ARMs?
  ldr ip, 3f
2:
  add ip, pc, ip
  ldr ip, [ip]

  cmp ip, #0

  // Fast path
  bxne ip

  // Slow path
  ldr ip, =104
  push {ip}
  .cfi_adjust_cfa_offset 4
  PUSH_REG(lr)
  bl _libglib_2_0_so_save_regs_and_resolve
  POP_REG(lr)
  add sp, #4
  .cfi_adjust_cfa_offset -4
  bx ip

  // Force constant pool for ldr above
  .ltorg

  .cfi_endproc

3:
  .word _libglib_2_0_so_tramp_table - (2b + 8) + 416

/*
 * Copyright 2018-2025 Yury Gribov
 *
 * The MIT License (MIT)
 *
 * Use of this source code is governed by MIT license that can be
 * found in the LICENSE.txt file.
 */

  .globl g_atomic_rc_box_get_size
  .p2align 4
  .type g_atomic_rc_box_get_size, %function
#ifndef IMPLIB_EXPORT_SHIMS
  .hidden g_atomic_rc_box_get_size
#endif
g_atomic_rc_box_get_size:
  .cfi_startproc

1:
  // Load address
  // TODO: can we do this faster on newer ARMs?
  ldr ip, 3f
2:
  add ip, pc, ip
  ldr ip, [ip]

  cmp ip, #0

  // Fast path
  bxne ip

  // Slow path
  ldr ip, =105
  push {ip}
  .cfi_adjust_cfa_offset 4
  PUSH_REG(lr)
  bl _libglib_2_0_so_save_regs_and_resolve
  POP_REG(lr)
  add sp, #4
  .cfi_adjust_cfa_offset -4
  bx ip

  // Force constant pool for ldr above
  .ltorg

  .cfi_endproc

3:
  .word _libglib_2_0_so_tramp_table - (2b + 8) + 420

/*
 * Copyright 2018-2025 Yury Gribov
 *
 * The MIT License (MIT)
 *
 * Use of this source code is governed by MIT license that can be
 * found in the LICENSE.txt file.
 */

  .globl g_atomic_rc_box_release
  .p2align 4
  .type g_atomic_rc_box_release, %function
#ifndef IMPLIB_EXPORT_SHIMS
  .hidden g_atomic_rc_box_release
#endif
g_atomic_rc_box_release:
  .cfi_startproc

1:
  // Load address
  // TODO: can we do this faster on newer ARMs?
  ldr ip, 3f
2:
  add ip, pc, ip
  ldr ip, [ip]

  cmp ip, #0

  // Fast path
  bxne ip

  // Slow path
  ldr ip, =106
  push {ip}
  .cfi_adjust_cfa_offset 4
  PUSH_REG(lr)
  bl _libglib_2_0_so_save_regs_and_resolve
  POP_REG(lr)
  add sp, #4
  .cfi_adjust_cfa_offset -4
  bx ip

  // Force constant pool for ldr above
  .ltorg

  .cfi_endproc

3:
  .word _libglib_2_0_so_tramp_table - (2b + 8) + 424

/*
 * Copyright 2018-2025 Yury Gribov
 *
 * The MIT License (MIT)
 *
 * Use of this source code is governed by MIT license that can be
 * found in the LICENSE.txt file.
 */

  .globl g_atomic_rc_box_release_full
  .p2align 4
  .type g_atomic_rc_box_release_full, %function
#ifndef IMPLIB_EXPORT_SHIMS
  .hidden g_atomic_rc_box_release_full
#endif
g_atomic_rc_box_release_full:
  .cfi_startproc

1:
  // Load address
  // TODO: can we do this faster on newer ARMs?
  ldr ip, 3f
2:
  add ip, pc, ip
  ldr ip, [ip]

  cmp ip, #0

  // Fast path
  bxne ip

  // Slow path
  ldr ip, =107
  push {ip}
  .cfi_adjust_cfa_offset 4
  PUSH_REG(lr)
  bl _libglib_2_0_so_save_regs_and_resolve
  POP_REG(lr)
  add sp, #4
  .cfi_adjust_cfa_offset -4
  bx ip

  // Force constant pool for ldr above
  .ltorg

  .cfi_endproc

3:
  .word _libglib_2_0_so_tramp_table - (2b + 8) + 428

/*
 * Copyright 2018-2025 Yury Gribov
 *
 * The MIT License (MIT)
 *
 * Use of this source code is governed by MIT license that can be
 * found in the LICENSE.txt file.
 */

  .globl g_atomic_ref_count_compare
  .p2align 4
  .type g_atomic_ref_count_compare, %function
#ifndef IMPLIB_EXPORT_SHIMS
  .hidden g_atomic_ref_count_compare
#endif
g_atomic_ref_count_compare:
  .cfi_startproc

1:
  // Load address
  // TODO: can we do this faster on newer ARMs?
  ldr ip, 3f
2:
  add ip, pc, ip
  ldr ip, [ip]

  cmp ip, #0

  // Fast path
  bxne ip

  // Slow path
  ldr ip, =108
  push {ip}
  .cfi_adjust_cfa_offset 4
  PUSH_REG(lr)
  bl _libglib_2_0_so_save_regs_and_resolve
  POP_REG(lr)
  add sp, #4
  .cfi_adjust_cfa_offset -4
  bx ip

  // Force constant pool for ldr above
  .ltorg

  .cfi_endproc

3:
  .word _libglib_2_0_so_tramp_table - (2b + 8) + 432

/*
 * Copyright 2018-2025 Yury Gribov
 *
 * The MIT License (MIT)
 *
 * Use of this source code is governed by MIT license that can be
 * found in the LICENSE.txt file.
 */

  .globl g_atomic_ref_count_dec
  .p2align 4
  .type g_atomic_ref_count_dec, %function
#ifndef IMPLIB_EXPORT_SHIMS
  .hidden g_atomic_ref_count_dec
#endif
g_atomic_ref_count_dec:
  .cfi_startproc

1:
  // Load address
  // TODO: can we do this faster on newer ARMs?
  ldr ip, 3f
2:
  add ip, pc, ip
  ldr ip, [ip]

  cmp ip, #0

  // Fast path
  bxne ip

  // Slow path
  ldr ip, =109
  push {ip}
  .cfi_adjust_cfa_offset 4
  PUSH_REG(lr)
  bl _libglib_2_0_so_save_regs_and_resolve
  POP_REG(lr)
  add sp, #4
  .cfi_adjust_cfa_offset -4
  bx ip

  // Force constant pool for ldr above
  .ltorg

  .cfi_endproc

3:
  .word _libglib_2_0_so_tramp_table - (2b + 8) + 436

/*
 * Copyright 2018-2025 Yury Gribov
 *
 * The MIT License (MIT)
 *
 * Use of this source code is governed by MIT license that can be
 * found in the LICENSE.txt file.
 */

  .globl g_atomic_ref_count_inc
  .p2align 4
  .type g_atomic_ref_count_inc, %function
#ifndef IMPLIB_EXPORT_SHIMS
  .hidden g_atomic_ref_count_inc
#endif
g_atomic_ref_count_inc:
  .cfi_startproc

1:
  // Load address
  // TODO: can we do this faster on newer ARMs?
  ldr ip, 3f
2:
  add ip, pc, ip
  ldr ip, [ip]

  cmp ip, #0

  // Fast path
  bxne ip

  // Slow path
  ldr ip, =110
  push {ip}
  .cfi_adjust_cfa_offset 4
  PUSH_REG(lr)
  bl _libglib_2_0_so_save_regs_and_resolve
  POP_REG(lr)
  add sp, #4
  .cfi_adjust_cfa_offset -4
  bx ip

  // Force constant pool for ldr above
  .ltorg

  .cfi_endproc

3:
  .word _libglib_2_0_so_tramp_table - (2b + 8) + 440

/*
 * Copyright 2018-2025 Yury Gribov
 *
 * The MIT License (MIT)
 *
 * Use of this source code is governed by MIT license that can be
 * found in the LICENSE.txt file.
 */

  .globl g_atomic_ref_count_init
  .p2align 4
  .type g_atomic_ref_count_init, %function
#ifndef IMPLIB_EXPORT_SHIMS
  .hidden g_atomic_ref_count_init
#endif
g_atomic_ref_count_init:
  .cfi_startproc

1:
  // Load address
  // TODO: can we do this faster on newer ARMs?
  ldr ip, 3f
2:
  add ip, pc, ip
  ldr ip, [ip]

  cmp ip, #0

  // Fast path
  bxne ip

  // Slow path
  ldr ip, =111
  push {ip}
  .cfi_adjust_cfa_offset 4
  PUSH_REG(lr)
  bl _libglib_2_0_so_save_regs_and_resolve
  POP_REG(lr)
  add sp, #4
  .cfi_adjust_cfa_offset -4
  bx ip

  // Force constant pool for ldr above
  .ltorg

  .cfi_endproc

3:
  .word _libglib_2_0_so_tramp_table - (2b + 8) + 444

/*
 * Copyright 2018-2025 Yury Gribov
 *
 * The MIT License (MIT)
 *
 * Use of this source code is governed by MIT license that can be
 * found in the LICENSE.txt file.
 */

  .globl g_base64_decode
  .p2align 4
  .type g_base64_decode, %function
#ifndef IMPLIB_EXPORT_SHIMS
  .hidden g_base64_decode
#endif
g_base64_decode:
  .cfi_startproc

1:
  // Load address
  // TODO: can we do this faster on newer ARMs?
  ldr ip, 3f
2:
  add ip, pc, ip
  ldr ip, [ip]

  cmp ip, #0

  // Fast path
  bxne ip

  // Slow path
  ldr ip, =112
  push {ip}
  .cfi_adjust_cfa_offset 4
  PUSH_REG(lr)
  bl _libglib_2_0_so_save_regs_and_resolve
  POP_REG(lr)
  add sp, #4
  .cfi_adjust_cfa_offset -4
  bx ip

  // Force constant pool for ldr above
  .ltorg

  .cfi_endproc

3:
  .word _libglib_2_0_so_tramp_table - (2b + 8) + 448

/*
 * Copyright 2018-2025 Yury Gribov
 *
 * The MIT License (MIT)
 *
 * Use of this source code is governed by MIT license that can be
 * found in the LICENSE.txt file.
 */

  .globl g_base64_decode_inplace
  .p2align 4
  .type g_base64_decode_inplace, %function
#ifndef IMPLIB_EXPORT_SHIMS
  .hidden g_base64_decode_inplace
#endif
g_base64_decode_inplace:
  .cfi_startproc

1:
  // Load address
  // TODO: can we do this faster on newer ARMs?
  ldr ip, 3f
2:
  add ip, pc, ip
  ldr ip, [ip]

  cmp ip, #0

  // Fast path
  bxne ip

  // Slow path
  ldr ip, =113
  push {ip}
  .cfi_adjust_cfa_offset 4
  PUSH_REG(lr)
  bl _libglib_2_0_so_save_regs_and_resolve
  POP_REG(lr)
  add sp, #4
  .cfi_adjust_cfa_offset -4
  bx ip

  // Force constant pool for ldr above
  .ltorg

  .cfi_endproc

3:
  .word _libglib_2_0_so_tramp_table - (2b + 8) + 452

/*
 * Copyright 2018-2025 Yury Gribov
 *
 * The MIT License (MIT)
 *
 * Use of this source code is governed by MIT license that can be
 * found in the LICENSE.txt file.
 */

  .globl g_base64_decode_step
  .p2align 4
  .type g_base64_decode_step, %function
#ifndef IMPLIB_EXPORT_SHIMS
  .hidden g_base64_decode_step
#endif
g_base64_decode_step:
  .cfi_startproc

1:
  // Load address
  // TODO: can we do this faster on newer ARMs?
  ldr ip, 3f
2:
  add ip, pc, ip
  ldr ip, [ip]

  cmp ip, #0

  // Fast path
  bxne ip

  // Slow path
  ldr ip, =114
  push {ip}
  .cfi_adjust_cfa_offset 4
  PUSH_REG(lr)
  bl _libglib_2_0_so_save_regs_and_resolve
  POP_REG(lr)
  add sp, #4
  .cfi_adjust_cfa_offset -4
  bx ip

  // Force constant pool for ldr above
  .ltorg

  .cfi_endproc

3:
  .word _libglib_2_0_so_tramp_table - (2b + 8) + 456

/*
 * Copyright 2018-2025 Yury Gribov
 *
 * The MIT License (MIT)
 *
 * Use of this source code is governed by MIT license that can be
 * found in the LICENSE.txt file.
 */

  .globl g_base64_encode
  .p2align 4
  .type g_base64_encode, %function
#ifndef IMPLIB_EXPORT_SHIMS
  .hidden g_base64_encode
#endif
g_base64_encode:
  .cfi_startproc

1:
  // Load address
  // TODO: can we do this faster on newer ARMs?
  ldr ip, 3f
2:
  add ip, pc, ip
  ldr ip, [ip]

  cmp ip, #0

  // Fast path
  bxne ip

  // Slow path
  ldr ip, =115
  push {ip}
  .cfi_adjust_cfa_offset 4
  PUSH_REG(lr)
  bl _libglib_2_0_so_save_regs_and_resolve
  POP_REG(lr)
  add sp, #4
  .cfi_adjust_cfa_offset -4
  bx ip

  // Force constant pool for ldr above
  .ltorg

  .cfi_endproc

3:
  .word _libglib_2_0_so_tramp_table - (2b + 8) + 460

/*
 * Copyright 2018-2025 Yury Gribov
 *
 * The MIT License (MIT)
 *
 * Use of this source code is governed by MIT license that can be
 * found in the LICENSE.txt file.
 */

  .globl g_base64_encode_close
  .p2align 4
  .type g_base64_encode_close, %function
#ifndef IMPLIB_EXPORT_SHIMS
  .hidden g_base64_encode_close
#endif
g_base64_encode_close:
  .cfi_startproc

1:
  // Load address
  // TODO: can we do this faster on newer ARMs?
  ldr ip, 3f
2:
  add ip, pc, ip
  ldr ip, [ip]

  cmp ip, #0

  // Fast path
  bxne ip

  // Slow path
  ldr ip, =116
  push {ip}
  .cfi_adjust_cfa_offset 4
  PUSH_REG(lr)
  bl _libglib_2_0_so_save_regs_and_resolve
  POP_REG(lr)
  add sp, #4
  .cfi_adjust_cfa_offset -4
  bx ip

  // Force constant pool for ldr above
  .ltorg

  .cfi_endproc

3:
  .word _libglib_2_0_so_tramp_table - (2b + 8) + 464

/*
 * Copyright 2018-2025 Yury Gribov
 *
 * The MIT License (MIT)
 *
 * Use of this source code is governed by MIT license that can be
 * found in the LICENSE.txt file.
 */

  .globl g_base64_encode_step
  .p2align 4
  .type g_base64_encode_step, %function
#ifndef IMPLIB_EXPORT_SHIMS
  .hidden g_base64_encode_step
#endif
g_base64_encode_step:
  .cfi_startproc

1:
  // Load address
  // TODO: can we do this faster on newer ARMs?
  ldr ip, 3f
2:
  add ip, pc, ip
  ldr ip, [ip]

  cmp ip, #0

  // Fast path
  bxne ip

  // Slow path
  ldr ip, =117
  push {ip}
  .cfi_adjust_cfa_offset 4
  PUSH_REG(lr)
  bl _libglib_2_0_so_save_regs_and_resolve
  POP_REG(lr)
  add sp, #4
  .cfi_adjust_cfa_offset -4
  bx ip

  // Force constant pool for ldr above
  .ltorg

  .cfi_endproc

3:
  .word _libglib_2_0_so_tramp_table - (2b + 8) + 468

/*
 * Copyright 2018-2025 Yury Gribov
 *
 * The MIT License (MIT)
 *
 * Use of this source code is governed by MIT license that can be
 * found in the LICENSE.txt file.
 */

  .globl g_basename
  .p2align 4
  .type g_basename, %function
#ifndef IMPLIB_EXPORT_SHIMS
  .hidden g_basename
#endif
g_basename:
  .cfi_startproc

1:
  // Load address
  // TODO: can we do this faster on newer ARMs?
  ldr ip, 3f
2:
  add ip, pc, ip
  ldr ip, [ip]

  cmp ip, #0

  // Fast path
  bxne ip

  // Slow path
  ldr ip, =118
  push {ip}
  .cfi_adjust_cfa_offset 4
  PUSH_REG(lr)
  bl _libglib_2_0_so_save_regs_and_resolve
  POP_REG(lr)
  add sp, #4
  .cfi_adjust_cfa_offset -4
  bx ip

  // Force constant pool for ldr above
  .ltorg

  .cfi_endproc

3:
  .word _libglib_2_0_so_tramp_table - (2b + 8) + 472

/*
 * Copyright 2018-2025 Yury Gribov
 *
 * The MIT License (MIT)
 *
 * Use of this source code is governed by MIT license that can be
 * found in the LICENSE.txt file.
 */

  .globl g_bit_lock
  .p2align 4
  .type g_bit_lock, %function
#ifndef IMPLIB_EXPORT_SHIMS
  .hidden g_bit_lock
#endif
g_bit_lock:
  .cfi_startproc

1:
  // Load address
  // TODO: can we do this faster on newer ARMs?
  ldr ip, 3f
2:
  add ip, pc, ip
  ldr ip, [ip]

  cmp ip, #0

  // Fast path
  bxne ip

  // Slow path
  ldr ip, =119
  push {ip}
  .cfi_adjust_cfa_offset 4
  PUSH_REG(lr)
  bl _libglib_2_0_so_save_regs_and_resolve
  POP_REG(lr)
  add sp, #4
  .cfi_adjust_cfa_offset -4
  bx ip

  // Force constant pool for ldr above
  .ltorg

  .cfi_endproc

3:
  .word _libglib_2_0_so_tramp_table - (2b + 8) + 476

/*
 * Copyright 2018-2025 Yury Gribov
 *
 * The MIT License (MIT)
 *
 * Use of this source code is governed by MIT license that can be
 * found in the LICENSE.txt file.
 */

  .globl g_bit_nth_lsf
  .p2align 4
  .type g_bit_nth_lsf, %function
#ifndef IMPLIB_EXPORT_SHIMS
  .hidden g_bit_nth_lsf
#endif
g_bit_nth_lsf:
  .cfi_startproc

1:
  // Load address
  // TODO: can we do this faster on newer ARMs?
  ldr ip, 3f
2:
  add ip, pc, ip
  ldr ip, [ip]

  cmp ip, #0

  // Fast path
  bxne ip

  // Slow path
  ldr ip, =120
  push {ip}
  .cfi_adjust_cfa_offset 4
  PUSH_REG(lr)
  bl _libglib_2_0_so_save_regs_and_resolve
  POP_REG(lr)
  add sp, #4
  .cfi_adjust_cfa_offset -4
  bx ip

  // Force constant pool for ldr above
  .ltorg

  .cfi_endproc

3:
  .word _libglib_2_0_so_tramp_table - (2b + 8) + 480

/*
 * Copyright 2018-2025 Yury Gribov
 *
 * The MIT License (MIT)
 *
 * Use of this source code is governed by MIT license that can be
 * found in the LICENSE.txt file.
 */

  .globl g_bit_nth_msf
  .p2align 4
  .type g_bit_nth_msf, %function
#ifndef IMPLIB_EXPORT_SHIMS
  .hidden g_bit_nth_msf
#endif
g_bit_nth_msf:
  .cfi_startproc

1:
  // Load address
  // TODO: can we do this faster on newer ARMs?
  ldr ip, 3f
2:
  add ip, pc, ip
  ldr ip, [ip]

  cmp ip, #0

  // Fast path
  bxne ip

  // Slow path
  ldr ip, =121
  push {ip}
  .cfi_adjust_cfa_offset 4
  PUSH_REG(lr)
  bl _libglib_2_0_so_save_regs_and_resolve
  POP_REG(lr)
  add sp, #4
  .cfi_adjust_cfa_offset -4
  bx ip

  // Force constant pool for ldr above
  .ltorg

  .cfi_endproc

3:
  .word _libglib_2_0_so_tramp_table - (2b + 8) + 484

/*
 * Copyright 2018-2025 Yury Gribov
 *
 * The MIT License (MIT)
 *
 * Use of this source code is governed by MIT license that can be
 * found in the LICENSE.txt file.
 */

  .globl g_bit_storage
  .p2align 4
  .type g_bit_storage, %function
#ifndef IMPLIB_EXPORT_SHIMS
  .hidden g_bit_storage
#endif
g_bit_storage:
  .cfi_startproc

1:
  // Load address
  // TODO: can we do this faster on newer ARMs?
  ldr ip, 3f
2:
  add ip, pc, ip
  ldr ip, [ip]

  cmp ip, #0

  // Fast path
  bxne ip

  // Slow path
  ldr ip, =122
  push {ip}
  .cfi_adjust_cfa_offset 4
  PUSH_REG(lr)
  bl _libglib_2_0_so_save_regs_and_resolve
  POP_REG(lr)
  add sp, #4
  .cfi_adjust_cfa_offset -4
  bx ip

  // Force constant pool for ldr above
  .ltorg

  .cfi_endproc

3:
  .word _libglib_2_0_so_tramp_table - (2b + 8) + 488

/*
 * Copyright 2018-2025 Yury Gribov
 *
 * The MIT License (MIT)
 *
 * Use of this source code is governed by MIT license that can be
 * found in the LICENSE.txt file.
 */

  .globl g_bit_trylock
  .p2align 4
  .type g_bit_trylock, %function
#ifndef IMPLIB_EXPORT_SHIMS
  .hidden g_bit_trylock
#endif
g_bit_trylock:
  .cfi_startproc

1:
  // Load address
  // TODO: can we do this faster on newer ARMs?
  ldr ip, 3f
2:
  add ip, pc, ip
  ldr ip, [ip]

  cmp ip, #0

  // Fast path
  bxne ip

  // Slow path
  ldr ip, =123
  push {ip}
  .cfi_adjust_cfa_offset 4
  PUSH_REG(lr)
  bl _libglib_2_0_so_save_regs_and_resolve
  POP_REG(lr)
  add sp, #4
  .cfi_adjust_cfa_offset -4
  bx ip

  // Force constant pool for ldr above
  .ltorg

  .cfi_endproc

3:
  .word _libglib_2_0_so_tramp_table - (2b + 8) + 492

/*
 * Copyright 2018-2025 Yury Gribov
 *
 * The MIT License (MIT)
 *
 * Use of this source code is governed by MIT license that can be
 * found in the LICENSE.txt file.
 */

  .globl g_bit_unlock
  .p2align 4
  .type g_bit_unlock, %function
#ifndef IMPLIB_EXPORT_SHIMS
  .hidden g_bit_unlock
#endif
g_bit_unlock:
  .cfi_startproc

1:
  // Load address
  // TODO: can we do this faster on newer ARMs?
  ldr ip, 3f
2:
  add ip, pc, ip
  ldr ip, [ip]

  cmp ip, #0

  // Fast path
  bxne ip

  // Slow path
  ldr ip, =124
  push {ip}
  .cfi_adjust_cfa_offset 4
  PUSH_REG(lr)
  bl _libglib_2_0_so_save_regs_and_resolve
  POP_REG(lr)
  add sp, #4
  .cfi_adjust_cfa_offset -4
  bx ip

  // Force constant pool for ldr above
  .ltorg

  .cfi_endproc

3:
  .word _libglib_2_0_so_tramp_table - (2b + 8) + 496

/*
 * Copyright 2018-2025 Yury Gribov
 *
 * The MIT License (MIT)
 *
 * Use of this source code is governed by MIT license that can be
 * found in the LICENSE.txt file.
 */

  .globl g_blow_chunks
  .p2align 4
  .type g_blow_chunks, %function
#ifndef IMPLIB_EXPORT_SHIMS
  .hidden g_blow_chunks
#endif
g_blow_chunks:
  .cfi_startproc

1:
  // Load address
  // TODO: can we do this faster on newer ARMs?
  ldr ip, 3f
2:
  add ip, pc, ip
  ldr ip, [ip]

  cmp ip, #0

  // Fast path
  bxne ip

  // Slow path
  ldr ip, =125
  push {ip}
  .cfi_adjust_cfa_offset 4
  PUSH_REG(lr)
  bl _libglib_2_0_so_save_regs_and_resolve
  POP_REG(lr)
  add sp, #4
  .cfi_adjust_cfa_offset -4
  bx ip

  // Force constant pool for ldr above
  .ltorg

  .cfi_endproc

3:
  .word _libglib_2_0_so_tramp_table - (2b + 8) + 500

/*
 * Copyright 2018-2025 Yury Gribov
 *
 * The MIT License (MIT)
 *
 * Use of this source code is governed by MIT license that can be
 * found in the LICENSE.txt file.
 */

  .globl g_bookmark_file_add_application
  .p2align 4
  .type g_bookmark_file_add_application, %function
#ifndef IMPLIB_EXPORT_SHIMS
  .hidden g_bookmark_file_add_application
#endif
g_bookmark_file_add_application:
  .cfi_startproc

1:
  // Load address
  // TODO: can we do this faster on newer ARMs?
  ldr ip, 3f
2:
  add ip, pc, ip
  ldr ip, [ip]

  cmp ip, #0

  // Fast path
  bxne ip

  // Slow path
  ldr ip, =126
  push {ip}
  .cfi_adjust_cfa_offset 4
  PUSH_REG(lr)
  bl _libglib_2_0_so_save_regs_and_resolve
  POP_REG(lr)
  add sp, #4
  .cfi_adjust_cfa_offset -4
  bx ip

  // Force constant pool for ldr above
  .ltorg

  .cfi_endproc

3:
  .word _libglib_2_0_so_tramp_table - (2b + 8) + 504

/*
 * Copyright 2018-2025 Yury Gribov
 *
 * The MIT License (MIT)
 *
 * Use of this source code is governed by MIT license that can be
 * found in the LICENSE.txt file.
 */

  .globl g_bookmark_file_add_group
  .p2align 4
  .type g_bookmark_file_add_group, %function
#ifndef IMPLIB_EXPORT_SHIMS
  .hidden g_bookmark_file_add_group
#endif
g_bookmark_file_add_group:
  .cfi_startproc

1:
  // Load address
  // TODO: can we do this faster on newer ARMs?
  ldr ip, 3f
2:
  add ip, pc, ip
  ldr ip, [ip]

  cmp ip, #0

  // Fast path
  bxne ip

  // Slow path
  ldr ip, =127
  push {ip}
  .cfi_adjust_cfa_offset 4
  PUSH_REG(lr)
  bl _libglib_2_0_so_save_regs_and_resolve
  POP_REG(lr)
  add sp, #4
  .cfi_adjust_cfa_offset -4
  bx ip

  // Force constant pool for ldr above
  .ltorg

  .cfi_endproc

3:
  .word _libglib_2_0_so_tramp_table - (2b + 8) + 508

/*
 * Copyright 2018-2025 Yury Gribov
 *
 * The MIT License (MIT)
 *
 * Use of this source code is governed by MIT license that can be
 * found in the LICENSE.txt file.
 */

  .globl g_bookmark_file_copy
  .p2align 4
  .type g_bookmark_file_copy, %function
#ifndef IMPLIB_EXPORT_SHIMS
  .hidden g_bookmark_file_copy
#endif
g_bookmark_file_copy:
  .cfi_startproc

1:
  // Load address
  // TODO: can we do this faster on newer ARMs?
  ldr ip, 3f
2:
  add ip, pc, ip
  ldr ip, [ip]

  cmp ip, #0

  // Fast path
  bxne ip

  // Slow path
  ldr ip, =128
  push {ip}
  .cfi_adjust_cfa_offset 4
  PUSH_REG(lr)
  bl _libglib_2_0_so_save_regs_and_resolve
  POP_REG(lr)
  add sp, #4
  .cfi_adjust_cfa_offset -4
  bx ip

  // Force constant pool for ldr above
  .ltorg

  .cfi_endproc

3:
  .word _libglib_2_0_so_tramp_table - (2b + 8) + 512

/*
 * Copyright 2018-2025 Yury Gribov
 *
 * The MIT License (MIT)
 *
 * Use of this source code is governed by MIT license that can be
 * found in the LICENSE.txt file.
 */

  .globl g_bookmark_file_error_quark
  .p2align 4
  .type g_bookmark_file_error_quark, %function
#ifndef IMPLIB_EXPORT_SHIMS
  .hidden g_bookmark_file_error_quark
#endif
g_bookmark_file_error_quark:
  .cfi_startproc

1:
  // Load address
  // TODO: can we do this faster on newer ARMs?
  ldr ip, 3f
2:
  add ip, pc, ip
  ldr ip, [ip]

  cmp ip, #0

  // Fast path
  bxne ip

  // Slow path
  ldr ip, =129
  push {ip}
  .cfi_adjust_cfa_offset 4
  PUSH_REG(lr)
  bl _libglib_2_0_so_save_regs_and_resolve
  POP_REG(lr)
  add sp, #4
  .cfi_adjust_cfa_offset -4
  bx ip

  // Force constant pool for ldr above
  .ltorg

  .cfi_endproc

3:
  .word _libglib_2_0_so_tramp_table - (2b + 8) + 516

/*
 * Copyright 2018-2025 Yury Gribov
 *
 * The MIT License (MIT)
 *
 * Use of this source code is governed by MIT license that can be
 * found in the LICENSE.txt file.
 */

  .globl g_bookmark_file_free
  .p2align 4
  .type g_bookmark_file_free, %function
#ifndef IMPLIB_EXPORT_SHIMS
  .hidden g_bookmark_file_free
#endif
g_bookmark_file_free:
  .cfi_startproc

1:
  // Load address
  // TODO: can we do this faster on newer ARMs?
  ldr ip, 3f
2:
  add ip, pc, ip
  ldr ip, [ip]

  cmp ip, #0

  // Fast path
  bxne ip

  // Slow path
  ldr ip, =130
  push {ip}
  .cfi_adjust_cfa_offset 4
  PUSH_REG(lr)
  bl _libglib_2_0_so_save_regs_and_resolve
  POP_REG(lr)
  add sp, #4
  .cfi_adjust_cfa_offset -4
  bx ip

  // Force constant pool for ldr above
  .ltorg

  .cfi_endproc

3:
  .word _libglib_2_0_so_tramp_table - (2b + 8) + 520

/*
 * Copyright 2018-2025 Yury Gribov
 *
 * The MIT License (MIT)
 *
 * Use of this source code is governed by MIT license that can be
 * found in the LICENSE.txt file.
 */

  .globl g_bookmark_file_get_added
  .p2align 4
  .type g_bookmark_file_get_added, %function
#ifndef IMPLIB_EXPORT_SHIMS
  .hidden g_bookmark_file_get_added
#endif
g_bookmark_file_get_added:
  .cfi_startproc

1:
  // Load address
  // TODO: can we do this faster on newer ARMs?
  ldr ip, 3f
2:
  add ip, pc, ip
  ldr ip, [ip]

  cmp ip, #0

  // Fast path
  bxne ip

  // Slow path
  ldr ip, =131
  push {ip}
  .cfi_adjust_cfa_offset 4
  PUSH_REG(lr)
  bl _libglib_2_0_so_save_regs_and_resolve
  POP_REG(lr)
  add sp, #4
  .cfi_adjust_cfa_offset -4
  bx ip

  // Force constant pool for ldr above
  .ltorg

  .cfi_endproc

3:
  .word _libglib_2_0_so_tramp_table - (2b + 8) + 524

/*
 * Copyright 2018-2025 Yury Gribov
 *
 * The MIT License (MIT)
 *
 * Use of this source code is governed by MIT license that can be
 * found in the LICENSE.txt file.
 */

  .globl g_bookmark_file_get_added_date_time
  .p2align 4
  .type g_bookmark_file_get_added_date_time, %function
#ifndef IMPLIB_EXPORT_SHIMS
  .hidden g_bookmark_file_get_added_date_time
#endif
g_bookmark_file_get_added_date_time:
  .cfi_startproc

1:
  // Load address
  // TODO: can we do this faster on newer ARMs?
  ldr ip, 3f
2:
  add ip, pc, ip
  ldr ip, [ip]

  cmp ip, #0

  // Fast path
  bxne ip

  // Slow path
  ldr ip, =132
  push {ip}
  .cfi_adjust_cfa_offset 4
  PUSH_REG(lr)
  bl _libglib_2_0_so_save_regs_and_resolve
  POP_REG(lr)
  add sp, #4
  .cfi_adjust_cfa_offset -4
  bx ip

  // Force constant pool for ldr above
  .ltorg

  .cfi_endproc

3:
  .word _libglib_2_0_so_tramp_table - (2b + 8) + 528

/*
 * Copyright 2018-2025 Yury Gribov
 *
 * The MIT License (MIT)
 *
 * Use of this source code is governed by MIT license that can be
 * found in the LICENSE.txt file.
 */

  .globl g_bookmark_file_get_app_info
  .p2align 4
  .type g_bookmark_file_get_app_info, %function
#ifndef IMPLIB_EXPORT_SHIMS
  .hidden g_bookmark_file_get_app_info
#endif
g_bookmark_file_get_app_info:
  .cfi_startproc

1:
  // Load address
  // TODO: can we do this faster on newer ARMs?
  ldr ip, 3f
2:
  add ip, pc, ip
  ldr ip, [ip]

  cmp ip, #0

  // Fast path
  bxne ip

  // Slow path
  ldr ip, =133
  push {ip}
  .cfi_adjust_cfa_offset 4
  PUSH_REG(lr)
  bl _libglib_2_0_so_save_regs_and_resolve
  POP_REG(lr)
  add sp, #4
  .cfi_adjust_cfa_offset -4
  bx ip

  // Force constant pool for ldr above
  .ltorg

  .cfi_endproc

3:
  .word _libglib_2_0_so_tramp_table - (2b + 8) + 532

/*
 * Copyright 2018-2025 Yury Gribov
 *
 * The MIT License (MIT)
 *
 * Use of this source code is governed by MIT license that can be
 * found in the LICENSE.txt file.
 */

  .globl g_bookmark_file_get_application_info
  .p2align 4
  .type g_bookmark_file_get_application_info, %function
#ifndef IMPLIB_EXPORT_SHIMS
  .hidden g_bookmark_file_get_application_info
#endif
g_bookmark_file_get_application_info:
  .cfi_startproc

1:
  // Load address
  // TODO: can we do this faster on newer ARMs?
  ldr ip, 3f
2:
  add ip, pc, ip
  ldr ip, [ip]

  cmp ip, #0

  // Fast path
  bxne ip

  // Slow path
  ldr ip, =134
  push {ip}
  .cfi_adjust_cfa_offset 4
  PUSH_REG(lr)
  bl _libglib_2_0_so_save_regs_and_resolve
  POP_REG(lr)
  add sp, #4
  .cfi_adjust_cfa_offset -4
  bx ip

  // Force constant pool for ldr above
  .ltorg

  .cfi_endproc

3:
  .word _libglib_2_0_so_tramp_table - (2b + 8) + 536

/*
 * Copyright 2018-2025 Yury Gribov
 *
 * The MIT License (MIT)
 *
 * Use of this source code is governed by MIT license that can be
 * found in the LICENSE.txt file.
 */

  .globl g_bookmark_file_get_applications
  .p2align 4
  .type g_bookmark_file_get_applications, %function
#ifndef IMPLIB_EXPORT_SHIMS
  .hidden g_bookmark_file_get_applications
#endif
g_bookmark_file_get_applications:
  .cfi_startproc

1:
  // Load address
  // TODO: can we do this faster on newer ARMs?
  ldr ip, 3f
2:
  add ip, pc, ip
  ldr ip, [ip]

  cmp ip, #0

  // Fast path
  bxne ip

  // Slow path
  ldr ip, =135
  push {ip}
  .cfi_adjust_cfa_offset 4
  PUSH_REG(lr)
  bl _libglib_2_0_so_save_regs_and_resolve
  POP_REG(lr)
  add sp, #4
  .cfi_adjust_cfa_offset -4
  bx ip

  // Force constant pool for ldr above
  .ltorg

  .cfi_endproc

3:
  .word _libglib_2_0_so_tramp_table - (2b + 8) + 540

/*
 * Copyright 2018-2025 Yury Gribov
 *
 * The MIT License (MIT)
 *
 * Use of this source code is governed by MIT license that can be
 * found in the LICENSE.txt file.
 */

  .globl g_bookmark_file_get_description
  .p2align 4
  .type g_bookmark_file_get_description, %function
#ifndef IMPLIB_EXPORT_SHIMS
  .hidden g_bookmark_file_get_description
#endif
g_bookmark_file_get_description:
  .cfi_startproc

1:
  // Load address
  // TODO: can we do this faster on newer ARMs?
  ldr ip, 3f
2:
  add ip, pc, ip
  ldr ip, [ip]

  cmp ip, #0

  // Fast path
  bxne ip

  // Slow path
  ldr ip, =136
  push {ip}
  .cfi_adjust_cfa_offset 4
  PUSH_REG(lr)
  bl _libglib_2_0_so_save_regs_and_resolve
  POP_REG(lr)
  add sp, #4
  .cfi_adjust_cfa_offset -4
  bx ip

  // Force constant pool for ldr above
  .ltorg

  .cfi_endproc

3:
  .word _libglib_2_0_so_tramp_table - (2b + 8) + 544

/*
 * Copyright 2018-2025 Yury Gribov
 *
 * The MIT License (MIT)
 *
 * Use of this source code is governed by MIT license that can be
 * found in the LICENSE.txt file.
 */

  .globl g_bookmark_file_get_groups
  .p2align 4
  .type g_bookmark_file_get_groups, %function
#ifndef IMPLIB_EXPORT_SHIMS
  .hidden g_bookmark_file_get_groups
#endif
g_bookmark_file_get_groups:
  .cfi_startproc

1:
  // Load address
  // TODO: can we do this faster on newer ARMs?
  ldr ip, 3f
2:
  add ip, pc, ip
  ldr ip, [ip]

  cmp ip, #0

  // Fast path
  bxne ip

  // Slow path
  ldr ip, =137
  push {ip}
  .cfi_adjust_cfa_offset 4
  PUSH_REG(lr)
  bl _libglib_2_0_so_save_regs_and_resolve
  POP_REG(lr)
  add sp, #4
  .cfi_adjust_cfa_offset -4
  bx ip

  // Force constant pool for ldr above
  .ltorg

  .cfi_endproc

3:
  .word _libglib_2_0_so_tramp_table - (2b + 8) + 548

/*
 * Copyright 2018-2025 Yury Gribov
 *
 * The MIT License (MIT)
 *
 * Use of this source code is governed by MIT license that can be
 * found in the LICENSE.txt file.
 */

  .globl g_bookmark_file_get_icon
  .p2align 4
  .type g_bookmark_file_get_icon, %function
#ifndef IMPLIB_EXPORT_SHIMS
  .hidden g_bookmark_file_get_icon
#endif
g_bookmark_file_get_icon:
  .cfi_startproc

1:
  // Load address
  // TODO: can we do this faster on newer ARMs?
  ldr ip, 3f
2:
  add ip, pc, ip
  ldr ip, [ip]

  cmp ip, #0

  // Fast path
  bxne ip

  // Slow path
  ldr ip, =138
  push {ip}
  .cfi_adjust_cfa_offset 4
  PUSH_REG(lr)
  bl _libglib_2_0_so_save_regs_and_resolve
  POP_REG(lr)
  add sp, #4
  .cfi_adjust_cfa_offset -4
  bx ip

  // Force constant pool for ldr above
  .ltorg

  .cfi_endproc

3:
  .word _libglib_2_0_so_tramp_table - (2b + 8) + 552

/*
 * Copyright 2018-2025 Yury Gribov
 *
 * The MIT License (MIT)
 *
 * Use of this source code is governed by MIT license that can be
 * found in the LICENSE.txt file.
 */

  .globl g_bookmark_file_get_is_private
  .p2align 4
  .type g_bookmark_file_get_is_private, %function
#ifndef IMPLIB_EXPORT_SHIMS
  .hidden g_bookmark_file_get_is_private
#endif
g_bookmark_file_get_is_private:
  .cfi_startproc

1:
  // Load address
  // TODO: can we do this faster on newer ARMs?
  ldr ip, 3f
2:
  add ip, pc, ip
  ldr ip, [ip]

  cmp ip, #0

  // Fast path
  bxne ip

  // Slow path
  ldr ip, =139
  push {ip}
  .cfi_adjust_cfa_offset 4
  PUSH_REG(lr)
  bl _libglib_2_0_so_save_regs_and_resolve
  POP_REG(lr)
  add sp, #4
  .cfi_adjust_cfa_offset -4
  bx ip

  // Force constant pool for ldr above
  .ltorg

  .cfi_endproc

3:
  .word _libglib_2_0_so_tramp_table - (2b + 8) + 556

/*
 * Copyright 2018-2025 Yury Gribov
 *
 * The MIT License (MIT)
 *
 * Use of this source code is governed by MIT license that can be
 * found in the LICENSE.txt file.
 */

  .globl g_bookmark_file_get_mime_type
  .p2align 4
  .type g_bookmark_file_get_mime_type, %function
#ifndef IMPLIB_EXPORT_SHIMS
  .hidden g_bookmark_file_get_mime_type
#endif
g_bookmark_file_get_mime_type:
  .cfi_startproc

1:
  // Load address
  // TODO: can we do this faster on newer ARMs?
  ldr ip, 3f
2:
  add ip, pc, ip
  ldr ip, [ip]

  cmp ip, #0

  // Fast path
  bxne ip

  // Slow path
  ldr ip, =140
  push {ip}
  .cfi_adjust_cfa_offset 4
  PUSH_REG(lr)
  bl _libglib_2_0_so_save_regs_and_resolve
  POP_REG(lr)
  add sp, #4
  .cfi_adjust_cfa_offset -4
  bx ip

  // Force constant pool for ldr above
  .ltorg

  .cfi_endproc

3:
  .word _libglib_2_0_so_tramp_table - (2b + 8) + 560

/*
 * Copyright 2018-2025 Yury Gribov
 *
 * The MIT License (MIT)
 *
 * Use of this source code is governed by MIT license that can be
 * found in the LICENSE.txt file.
 */

  .globl g_bookmark_file_get_modified
  .p2align 4
  .type g_bookmark_file_get_modified, %function
#ifndef IMPLIB_EXPORT_SHIMS
  .hidden g_bookmark_file_get_modified
#endif
g_bookmark_file_get_modified:
  .cfi_startproc

1:
  // Load address
  // TODO: can we do this faster on newer ARMs?
  ldr ip, 3f
2:
  add ip, pc, ip
  ldr ip, [ip]

  cmp ip, #0

  // Fast path
  bxne ip

  // Slow path
  ldr ip, =141
  push {ip}
  .cfi_adjust_cfa_offset 4
  PUSH_REG(lr)
  bl _libglib_2_0_so_save_regs_and_resolve
  POP_REG(lr)
  add sp, #4
  .cfi_adjust_cfa_offset -4
  bx ip

  // Force constant pool for ldr above
  .ltorg

  .cfi_endproc

3:
  .word _libglib_2_0_so_tramp_table - (2b + 8) + 564

/*
 * Copyright 2018-2025 Yury Gribov
 *
 * The MIT License (MIT)
 *
 * Use of this source code is governed by MIT license that can be
 * found in the LICENSE.txt file.
 */

  .globl g_bookmark_file_get_modified_date_time
  .p2align 4
  .type g_bookmark_file_get_modified_date_time, %function
#ifndef IMPLIB_EXPORT_SHIMS
  .hidden g_bookmark_file_get_modified_date_time
#endif
g_bookmark_file_get_modified_date_time:
  .cfi_startproc

1:
  // Load address
  // TODO: can we do this faster on newer ARMs?
  ldr ip, 3f
2:
  add ip, pc, ip
  ldr ip, [ip]

  cmp ip, #0

  // Fast path
  bxne ip

  // Slow path
  ldr ip, =142
  push {ip}
  .cfi_adjust_cfa_offset 4
  PUSH_REG(lr)
  bl _libglib_2_0_so_save_regs_and_resolve
  POP_REG(lr)
  add sp, #4
  .cfi_adjust_cfa_offset -4
  bx ip

  // Force constant pool for ldr above
  .ltorg

  .cfi_endproc

3:
  .word _libglib_2_0_so_tramp_table - (2b + 8) + 568

/*
 * Copyright 2018-2025 Yury Gribov
 *
 * The MIT License (MIT)
 *
 * Use of this source code is governed by MIT license that can be
 * found in the LICENSE.txt file.
 */

  .globl g_bookmark_file_get_size
  .p2align 4
  .type g_bookmark_file_get_size, %function
#ifndef IMPLIB_EXPORT_SHIMS
  .hidden g_bookmark_file_get_size
#endif
g_bookmark_file_get_size:
  .cfi_startproc

1:
  // Load address
  // TODO: can we do this faster on newer ARMs?
  ldr ip, 3f
2:
  add ip, pc, ip
  ldr ip, [ip]

  cmp ip, #0

  // Fast path
  bxne ip

  // Slow path
  ldr ip, =143
  push {ip}
  .cfi_adjust_cfa_offset 4
  PUSH_REG(lr)
  bl _libglib_2_0_so_save_regs_and_resolve
  POP_REG(lr)
  add sp, #4
  .cfi_adjust_cfa_offset -4
  bx ip

  // Force constant pool for ldr above
  .ltorg

  .cfi_endproc

3:
  .word _libglib_2_0_so_tramp_table - (2b + 8) + 572

/*
 * Copyright 2018-2025 Yury Gribov
 *
 * The MIT License (MIT)
 *
 * Use of this source code is governed by MIT license that can be
 * found in the LICENSE.txt file.
 */

  .globl g_bookmark_file_get_title
  .p2align 4
  .type g_bookmark_file_get_title, %function
#ifndef IMPLIB_EXPORT_SHIMS
  .hidden g_bookmark_file_get_title
#endif
g_bookmark_file_get_title:
  .cfi_startproc

1:
  // Load address
  // TODO: can we do this faster on newer ARMs?
  ldr ip, 3f
2:
  add ip, pc, ip
  ldr ip, [ip]

  cmp ip, #0

  // Fast path
  bxne ip

  // Slow path
  ldr ip, =144
  push {ip}
  .cfi_adjust_cfa_offset 4
  PUSH_REG(lr)
  bl _libglib_2_0_so_save_regs_and_resolve
  POP_REG(lr)
  add sp, #4
  .cfi_adjust_cfa_offset -4
  bx ip

  // Force constant pool for ldr above
  .ltorg

  .cfi_endproc

3:
  .word _libglib_2_0_so_tramp_table - (2b + 8) + 576

/*
 * Copyright 2018-2025 Yury Gribov
 *
 * The MIT License (MIT)
 *
 * Use of this source code is governed by MIT license that can be
 * found in the LICENSE.txt file.
 */

  .globl g_bookmark_file_get_uris
  .p2align 4
  .type g_bookmark_file_get_uris, %function
#ifndef IMPLIB_EXPORT_SHIMS
  .hidden g_bookmark_file_get_uris
#endif
g_bookmark_file_get_uris:
  .cfi_startproc

1:
  // Load address
  // TODO: can we do this faster on newer ARMs?
  ldr ip, 3f
2:
  add ip, pc, ip
  ldr ip, [ip]

  cmp ip, #0

  // Fast path
  bxne ip

  // Slow path
  ldr ip, =145
  push {ip}
  .cfi_adjust_cfa_offset 4
  PUSH_REG(lr)
  bl _libglib_2_0_so_save_regs_and_resolve
  POP_REG(lr)
  add sp, #4
  .cfi_adjust_cfa_offset -4
  bx ip

  // Force constant pool for ldr above
  .ltorg

  .cfi_endproc

3:
  .word _libglib_2_0_so_tramp_table - (2b + 8) + 580

/*
 * Copyright 2018-2025 Yury Gribov
 *
 * The MIT License (MIT)
 *
 * Use of this source code is governed by MIT license that can be
 * found in the LICENSE.txt file.
 */

  .globl g_bookmark_file_get_visited
  .p2align 4
  .type g_bookmark_file_get_visited, %function
#ifndef IMPLIB_EXPORT_SHIMS
  .hidden g_bookmark_file_get_visited
#endif
g_bookmark_file_get_visited:
  .cfi_startproc

1:
  // Load address
  // TODO: can we do this faster on newer ARMs?
  ldr ip, 3f
2:
  add ip, pc, ip
  ldr ip, [ip]

  cmp ip, #0

  // Fast path
  bxne ip

  // Slow path
  ldr ip, =146
  push {ip}
  .cfi_adjust_cfa_offset 4
  PUSH_REG(lr)
  bl _libglib_2_0_so_save_regs_and_resolve
  POP_REG(lr)
  add sp, #4
  .cfi_adjust_cfa_offset -4
  bx ip

  // Force constant pool for ldr above
  .ltorg

  .cfi_endproc

3:
  .word _libglib_2_0_so_tramp_table - (2b + 8) + 584

/*
 * Copyright 2018-2025 Yury Gribov
 *
 * The MIT License (MIT)
 *
 * Use of this source code is governed by MIT license that can be
 * found in the LICENSE.txt file.
 */

  .globl g_bookmark_file_get_visited_date_time
  .p2align 4
  .type g_bookmark_file_get_visited_date_time, %function
#ifndef IMPLIB_EXPORT_SHIMS
  .hidden g_bookmark_file_get_visited_date_time
#endif
g_bookmark_file_get_visited_date_time:
  .cfi_startproc

1:
  // Load address
  // TODO: can we do this faster on newer ARMs?
  ldr ip, 3f
2:
  add ip, pc, ip
  ldr ip, [ip]

  cmp ip, #0

  // Fast path
  bxne ip

  // Slow path
  ldr ip, =147
  push {ip}
  .cfi_adjust_cfa_offset 4
  PUSH_REG(lr)
  bl _libglib_2_0_so_save_regs_and_resolve
  POP_REG(lr)
  add sp, #4
  .cfi_adjust_cfa_offset -4
  bx ip

  // Force constant pool for ldr above
  .ltorg

  .cfi_endproc

3:
  .word _libglib_2_0_so_tramp_table - (2b + 8) + 588

/*
 * Copyright 2018-2025 Yury Gribov
 *
 * The MIT License (MIT)
 *
 * Use of this source code is governed by MIT license that can be
 * found in the LICENSE.txt file.
 */

  .globl g_bookmark_file_has_application
  .p2align 4
  .type g_bookmark_file_has_application, %function
#ifndef IMPLIB_EXPORT_SHIMS
  .hidden g_bookmark_file_has_application
#endif
g_bookmark_file_has_application:
  .cfi_startproc

1:
  // Load address
  // TODO: can we do this faster on newer ARMs?
  ldr ip, 3f
2:
  add ip, pc, ip
  ldr ip, [ip]

  cmp ip, #0

  // Fast path
  bxne ip

  // Slow path
  ldr ip, =148
  push {ip}
  .cfi_adjust_cfa_offset 4
  PUSH_REG(lr)
  bl _libglib_2_0_so_save_regs_and_resolve
  POP_REG(lr)
  add sp, #4
  .cfi_adjust_cfa_offset -4
  bx ip

  // Force constant pool for ldr above
  .ltorg

  .cfi_endproc

3:
  .word _libglib_2_0_so_tramp_table - (2b + 8) + 592

/*
 * Copyright 2018-2025 Yury Gribov
 *
 * The MIT License (MIT)
 *
 * Use of this source code is governed by MIT license that can be
 * found in the LICENSE.txt file.
 */

  .globl g_bookmark_file_has_group
  .p2align 4
  .type g_bookmark_file_has_group, %function
#ifndef IMPLIB_EXPORT_SHIMS
  .hidden g_bookmark_file_has_group
#endif
g_bookmark_file_has_group:
  .cfi_startproc

1:
  // Load address
  // TODO: can we do this faster on newer ARMs?
  ldr ip, 3f
2:
  add ip, pc, ip
  ldr ip, [ip]

  cmp ip, #0

  // Fast path
  bxne ip

  // Slow path
  ldr ip, =149
  push {ip}
  .cfi_adjust_cfa_offset 4
  PUSH_REG(lr)
  bl _libglib_2_0_so_save_regs_and_resolve
  POP_REG(lr)
  add sp, #4
  .cfi_adjust_cfa_offset -4
  bx ip

  // Force constant pool for ldr above
  .ltorg

  .cfi_endproc

3:
  .word _libglib_2_0_so_tramp_table - (2b + 8) + 596

/*
 * Copyright 2018-2025 Yury Gribov
 *
 * The MIT License (MIT)
 *
 * Use of this source code is governed by MIT license that can be
 * found in the LICENSE.txt file.
 */

  .globl g_bookmark_file_has_item
  .p2align 4
  .type g_bookmark_file_has_item, %function
#ifndef IMPLIB_EXPORT_SHIMS
  .hidden g_bookmark_file_has_item
#endif
g_bookmark_file_has_item:
  .cfi_startproc

1:
  // Load address
  // TODO: can we do this faster on newer ARMs?
  ldr ip, 3f
2:
  add ip, pc, ip
  ldr ip, [ip]

  cmp ip, #0

  // Fast path
  bxne ip

  // Slow path
  ldr ip, =150
  push {ip}
  .cfi_adjust_cfa_offset 4
  PUSH_REG(lr)
  bl _libglib_2_0_so_save_regs_and_resolve
  POP_REG(lr)
  add sp, #4
  .cfi_adjust_cfa_offset -4
  bx ip

  // Force constant pool for ldr above
  .ltorg

  .cfi_endproc

3:
  .word _libglib_2_0_so_tramp_table - (2b + 8) + 600

/*
 * Copyright 2018-2025 Yury Gribov
 *
 * The MIT License (MIT)
 *
 * Use of this source code is governed by MIT license that can be
 * found in the LICENSE.txt file.
 */

  .globl g_bookmark_file_load_from_data
  .p2align 4
  .type g_bookmark_file_load_from_data, %function
#ifndef IMPLIB_EXPORT_SHIMS
  .hidden g_bookmark_file_load_from_data
#endif
g_bookmark_file_load_from_data:
  .cfi_startproc

1:
  // Load address
  // TODO: can we do this faster on newer ARMs?
  ldr ip, 3f
2:
  add ip, pc, ip
  ldr ip, [ip]

  cmp ip, #0

  // Fast path
  bxne ip

  // Slow path
  ldr ip, =151
  push {ip}
  .cfi_adjust_cfa_offset 4
  PUSH_REG(lr)
  bl _libglib_2_0_so_save_regs_and_resolve
  POP_REG(lr)
  add sp, #4
  .cfi_adjust_cfa_offset -4
  bx ip

  // Force constant pool for ldr above
  .ltorg

  .cfi_endproc

3:
  .word _libglib_2_0_so_tramp_table - (2b + 8) + 604

/*
 * Copyright 2018-2025 Yury Gribov
 *
 * The MIT License (MIT)
 *
 * Use of this source code is governed by MIT license that can be
 * found in the LICENSE.txt file.
 */

  .globl g_bookmark_file_load_from_data_dirs
  .p2align 4
  .type g_bookmark_file_load_from_data_dirs, %function
#ifndef IMPLIB_EXPORT_SHIMS
  .hidden g_bookmark_file_load_from_data_dirs
#endif
g_bookmark_file_load_from_data_dirs:
  .cfi_startproc

1:
  // Load address
  // TODO: can we do this faster on newer ARMs?
  ldr ip, 3f
2:
  add ip, pc, ip
  ldr ip, [ip]

  cmp ip, #0

  // Fast path
  bxne ip

  // Slow path
  ldr ip, =152
  push {ip}
  .cfi_adjust_cfa_offset 4
  PUSH_REG(lr)
  bl _libglib_2_0_so_save_regs_and_resolve
  POP_REG(lr)
  add sp, #4
  .cfi_adjust_cfa_offset -4
  bx ip

  // Force constant pool for ldr above
  .ltorg

  .cfi_endproc

3:
  .word _libglib_2_0_so_tramp_table - (2b + 8) + 608

/*
 * Copyright 2018-2025 Yury Gribov
 *
 * The MIT License (MIT)
 *
 * Use of this source code is governed by MIT license that can be
 * found in the LICENSE.txt file.
 */

  .globl g_bookmark_file_load_from_file
  .p2align 4
  .type g_bookmark_file_load_from_file, %function
#ifndef IMPLIB_EXPORT_SHIMS
  .hidden g_bookmark_file_load_from_file
#endif
g_bookmark_file_load_from_file:
  .cfi_startproc

1:
  // Load address
  // TODO: can we do this faster on newer ARMs?
  ldr ip, 3f
2:
  add ip, pc, ip
  ldr ip, [ip]

  cmp ip, #0

  // Fast path
  bxne ip

  // Slow path
  ldr ip, =153
  push {ip}
  .cfi_adjust_cfa_offset 4
  PUSH_REG(lr)
  bl _libglib_2_0_so_save_regs_and_resolve
  POP_REG(lr)
  add sp, #4
  .cfi_adjust_cfa_offset -4
  bx ip

  // Force constant pool for ldr above
  .ltorg

  .cfi_endproc

3:
  .word _libglib_2_0_so_tramp_table - (2b + 8) + 612

/*
 * Copyright 2018-2025 Yury Gribov
 *
 * The MIT License (MIT)
 *
 * Use of this source code is governed by MIT license that can be
 * found in the LICENSE.txt file.
 */

  .globl g_bookmark_file_move_item
  .p2align 4
  .type g_bookmark_file_move_item, %function
#ifndef IMPLIB_EXPORT_SHIMS
  .hidden g_bookmark_file_move_item
#endif
g_bookmark_file_move_item:
  .cfi_startproc

1:
  // Load address
  // TODO: can we do this faster on newer ARMs?
  ldr ip, 3f
2:
  add ip, pc, ip
  ldr ip, [ip]

  cmp ip, #0

  // Fast path
  bxne ip

  // Slow path
  ldr ip, =154
  push {ip}
  .cfi_adjust_cfa_offset 4
  PUSH_REG(lr)
  bl _libglib_2_0_so_save_regs_and_resolve
  POP_REG(lr)
  add sp, #4
  .cfi_adjust_cfa_offset -4
  bx ip

  // Force constant pool for ldr above
  .ltorg

  .cfi_endproc

3:
  .word _libglib_2_0_so_tramp_table - (2b + 8) + 616

/*
 * Copyright 2018-2025 Yury Gribov
 *
 * The MIT License (MIT)
 *
 * Use of this source code is governed by MIT license that can be
 * found in the LICENSE.txt file.
 */

  .globl g_bookmark_file_new
  .p2align 4
  .type g_bookmark_file_new, %function
#ifndef IMPLIB_EXPORT_SHIMS
  .hidden g_bookmark_file_new
#endif
g_bookmark_file_new:
  .cfi_startproc

1:
  // Load address
  // TODO: can we do this faster on newer ARMs?
  ldr ip, 3f
2:
  add ip, pc, ip
  ldr ip, [ip]

  cmp ip, #0

  // Fast path
  bxne ip

  // Slow path
  ldr ip, =155
  push {ip}
  .cfi_adjust_cfa_offset 4
  PUSH_REG(lr)
  bl _libglib_2_0_so_save_regs_and_resolve
  POP_REG(lr)
  add sp, #4
  .cfi_adjust_cfa_offset -4
  bx ip

  // Force constant pool for ldr above
  .ltorg

  .cfi_endproc

3:
  .word _libglib_2_0_so_tramp_table - (2b + 8) + 620

/*
 * Copyright 2018-2025 Yury Gribov
 *
 * The MIT License (MIT)
 *
 * Use of this source code is governed by MIT license that can be
 * found in the LICENSE.txt file.
 */

  .globl g_bookmark_file_remove_application
  .p2align 4
  .type g_bookmark_file_remove_application, %function
#ifndef IMPLIB_EXPORT_SHIMS
  .hidden g_bookmark_file_remove_application
#endif
g_bookmark_file_remove_application:
  .cfi_startproc

1:
  // Load address
  // TODO: can we do this faster on newer ARMs?
  ldr ip, 3f
2:
  add ip, pc, ip
  ldr ip, [ip]

  cmp ip, #0

  // Fast path
  bxne ip

  // Slow path
  ldr ip, =156
  push {ip}
  .cfi_adjust_cfa_offset 4
  PUSH_REG(lr)
  bl _libglib_2_0_so_save_regs_and_resolve
  POP_REG(lr)
  add sp, #4
  .cfi_adjust_cfa_offset -4
  bx ip

  // Force constant pool for ldr above
  .ltorg

  .cfi_endproc

3:
  .word _libglib_2_0_so_tramp_table - (2b + 8) + 624

/*
 * Copyright 2018-2025 Yury Gribov
 *
 * The MIT License (MIT)
 *
 * Use of this source code is governed by MIT license that can be
 * found in the LICENSE.txt file.
 */

  .globl g_bookmark_file_remove_group
  .p2align 4
  .type g_bookmark_file_remove_group, %function
#ifndef IMPLIB_EXPORT_SHIMS
  .hidden g_bookmark_file_remove_group
#endif
g_bookmark_file_remove_group:
  .cfi_startproc

1:
  // Load address
  // TODO: can we do this faster on newer ARMs?
  ldr ip, 3f
2:
  add ip, pc, ip
  ldr ip, [ip]

  cmp ip, #0

  // Fast path
  bxne ip

  // Slow path
  ldr ip, =157
  push {ip}
  .cfi_adjust_cfa_offset 4
  PUSH_REG(lr)
  bl _libglib_2_0_so_save_regs_and_resolve
  POP_REG(lr)
  add sp, #4
  .cfi_adjust_cfa_offset -4
  bx ip

  // Force constant pool for ldr above
  .ltorg

  .cfi_endproc

3:
  .word _libglib_2_0_so_tramp_table - (2b + 8) + 628

/*
 * Copyright 2018-2025 Yury Gribov
 *
 * The MIT License (MIT)
 *
 * Use of this source code is governed by MIT license that can be
 * found in the LICENSE.txt file.
 */

  .globl g_bookmark_file_remove_item
  .p2align 4
  .type g_bookmark_file_remove_item, %function
#ifndef IMPLIB_EXPORT_SHIMS
  .hidden g_bookmark_file_remove_item
#endif
g_bookmark_file_remove_item:
  .cfi_startproc

1:
  // Load address
  // TODO: can we do this faster on newer ARMs?
  ldr ip, 3f
2:
  add ip, pc, ip
  ldr ip, [ip]

  cmp ip, #0

  // Fast path
  bxne ip

  // Slow path
  ldr ip, =158
  push {ip}
  .cfi_adjust_cfa_offset 4
  PUSH_REG(lr)
  bl _libglib_2_0_so_save_regs_and_resolve
  POP_REG(lr)
  add sp, #4
  .cfi_adjust_cfa_offset -4
  bx ip

  // Force constant pool for ldr above
  .ltorg

  .cfi_endproc

3:
  .word _libglib_2_0_so_tramp_table - (2b + 8) + 632

/*
 * Copyright 2018-2025 Yury Gribov
 *
 * The MIT License (MIT)
 *
 * Use of this source code is governed by MIT license that can be
 * found in the LICENSE.txt file.
 */

  .globl g_bookmark_file_set_added
  .p2align 4
  .type g_bookmark_file_set_added, %function
#ifndef IMPLIB_EXPORT_SHIMS
  .hidden g_bookmark_file_set_added
#endif
g_bookmark_file_set_added:
  .cfi_startproc

1:
  // Load address
  // TODO: can we do this faster on newer ARMs?
  ldr ip, 3f
2:
  add ip, pc, ip
  ldr ip, [ip]

  cmp ip, #0

  // Fast path
  bxne ip

  // Slow path
  ldr ip, =159
  push {ip}
  .cfi_adjust_cfa_offset 4
  PUSH_REG(lr)
  bl _libglib_2_0_so_save_regs_and_resolve
  POP_REG(lr)
  add sp, #4
  .cfi_adjust_cfa_offset -4
  bx ip

  // Force constant pool for ldr above
  .ltorg

  .cfi_endproc

3:
  .word _libglib_2_0_so_tramp_table - (2b + 8) + 636

/*
 * Copyright 2018-2025 Yury Gribov
 *
 * The MIT License (MIT)
 *
 * Use of this source code is governed by MIT license that can be
 * found in the LICENSE.txt file.
 */

  .globl g_bookmark_file_set_added_date_time
  .p2align 4
  .type g_bookmark_file_set_added_date_time, %function
#ifndef IMPLIB_EXPORT_SHIMS
  .hidden g_bookmark_file_set_added_date_time
#endif
g_bookmark_file_set_added_date_time:
  .cfi_startproc

1:
  // Load address
  // TODO: can we do this faster on newer ARMs?
  ldr ip, 3f
2:
  add ip, pc, ip
  ldr ip, [ip]

  cmp ip, #0

  // Fast path
  bxne ip

  // Slow path
  ldr ip, =160
  push {ip}
  .cfi_adjust_cfa_offset 4
  PUSH_REG(lr)
  bl _libglib_2_0_so_save_regs_and_resolve
  POP_REG(lr)
  add sp, #4
  .cfi_adjust_cfa_offset -4
  bx ip

  // Force constant pool for ldr above
  .ltorg

  .cfi_endproc

3:
  .word _libglib_2_0_so_tramp_table - (2b + 8) + 640

/*
 * Copyright 2018-2025 Yury Gribov
 *
 * The MIT License (MIT)
 *
 * Use of this source code is governed by MIT license that can be
 * found in the LICENSE.txt file.
 */

  .globl g_bookmark_file_set_app_info
  .p2align 4
  .type g_bookmark_file_set_app_info, %function
#ifndef IMPLIB_EXPORT_SHIMS
  .hidden g_bookmark_file_set_app_info
#endif
g_bookmark_file_set_app_info:
  .cfi_startproc

1:
  // Load address
  // TODO: can we do this faster on newer ARMs?
  ldr ip, 3f
2:
  add ip, pc, ip
  ldr ip, [ip]

  cmp ip, #0

  // Fast path
  bxne ip

  // Slow path
  ldr ip, =161
  push {ip}
  .cfi_adjust_cfa_offset 4
  PUSH_REG(lr)
  bl _libglib_2_0_so_save_regs_and_resolve
  POP_REG(lr)
  add sp, #4
  .cfi_adjust_cfa_offset -4
  bx ip

  // Force constant pool for ldr above
  .ltorg

  .cfi_endproc

3:
  .word _libglib_2_0_so_tramp_table - (2b + 8) + 644

/*
 * Copyright 2018-2025 Yury Gribov
 *
 * The MIT License (MIT)
 *
 * Use of this source code is governed by MIT license that can be
 * found in the LICENSE.txt file.
 */

  .globl g_bookmark_file_set_application_info
  .p2align 4
  .type g_bookmark_file_set_application_info, %function
#ifndef IMPLIB_EXPORT_SHIMS
  .hidden g_bookmark_file_set_application_info
#endif
g_bookmark_file_set_application_info:
  .cfi_startproc

1:
  // Load address
  // TODO: can we do this faster on newer ARMs?
  ldr ip, 3f
2:
  add ip, pc, ip
  ldr ip, [ip]

  cmp ip, #0

  // Fast path
  bxne ip

  // Slow path
  ldr ip, =162
  push {ip}
  .cfi_adjust_cfa_offset 4
  PUSH_REG(lr)
  bl _libglib_2_0_so_save_regs_and_resolve
  POP_REG(lr)
  add sp, #4
  .cfi_adjust_cfa_offset -4
  bx ip

  // Force constant pool for ldr above
  .ltorg

  .cfi_endproc

3:
  .word _libglib_2_0_so_tramp_table - (2b + 8) + 648

/*
 * Copyright 2018-2025 Yury Gribov
 *
 * The MIT License (MIT)
 *
 * Use of this source code is governed by MIT license that can be
 * found in the LICENSE.txt file.
 */

  .globl g_bookmark_file_set_description
  .p2align 4
  .type g_bookmark_file_set_description, %function
#ifndef IMPLIB_EXPORT_SHIMS
  .hidden g_bookmark_file_set_description
#endif
g_bookmark_file_set_description:
  .cfi_startproc

1:
  // Load address
  // TODO: can we do this faster on newer ARMs?
  ldr ip, 3f
2:
  add ip, pc, ip
  ldr ip, [ip]

  cmp ip, #0

  // Fast path
  bxne ip

  // Slow path
  ldr ip, =163
  push {ip}
  .cfi_adjust_cfa_offset 4
  PUSH_REG(lr)
  bl _libglib_2_0_so_save_regs_and_resolve
  POP_REG(lr)
  add sp, #4
  .cfi_adjust_cfa_offset -4
  bx ip

  // Force constant pool for ldr above
  .ltorg

  .cfi_endproc

3:
  .word _libglib_2_0_so_tramp_table - (2b + 8) + 652

/*
 * Copyright 2018-2025 Yury Gribov
 *
 * The MIT License (MIT)
 *
 * Use of this source code is governed by MIT license that can be
 * found in the LICENSE.txt file.
 */

  .globl g_bookmark_file_set_groups
  .p2align 4
  .type g_bookmark_file_set_groups, %function
#ifndef IMPLIB_EXPORT_SHIMS
  .hidden g_bookmark_file_set_groups
#endif
g_bookmark_file_set_groups:
  .cfi_startproc

1:
  // Load address
  // TODO: can we do this faster on newer ARMs?
  ldr ip, 3f
2:
  add ip, pc, ip
  ldr ip, [ip]

  cmp ip, #0

  // Fast path
  bxne ip

  // Slow path
  ldr ip, =164
  push {ip}
  .cfi_adjust_cfa_offset 4
  PUSH_REG(lr)
  bl _libglib_2_0_so_save_regs_and_resolve
  POP_REG(lr)
  add sp, #4
  .cfi_adjust_cfa_offset -4
  bx ip

  // Force constant pool for ldr above
  .ltorg

  .cfi_endproc

3:
  .word _libglib_2_0_so_tramp_table - (2b + 8) + 656

/*
 * Copyright 2018-2025 Yury Gribov
 *
 * The MIT License (MIT)
 *
 * Use of this source code is governed by MIT license that can be
 * found in the LICENSE.txt file.
 */

  .globl g_bookmark_file_set_icon
  .p2align 4
  .type g_bookmark_file_set_icon, %function
#ifndef IMPLIB_EXPORT_SHIMS
  .hidden g_bookmark_file_set_icon
#endif
g_bookmark_file_set_icon:
  .cfi_startproc

1:
  // Load address
  // TODO: can we do this faster on newer ARMs?
  ldr ip, 3f
2:
  add ip, pc, ip
  ldr ip, [ip]

  cmp ip, #0

  // Fast path
  bxne ip

  // Slow path
  ldr ip, =165
  push {ip}
  .cfi_adjust_cfa_offset 4
  PUSH_REG(lr)
  bl _libglib_2_0_so_save_regs_and_resolve
  POP_REG(lr)
  add sp, #4
  .cfi_adjust_cfa_offset -4
  bx ip

  // Force constant pool for ldr above
  .ltorg

  .cfi_endproc

3:
  .word _libglib_2_0_so_tramp_table - (2b + 8) + 660

/*
 * Copyright 2018-2025 Yury Gribov
 *
 * The MIT License (MIT)
 *
 * Use of this source code is governed by MIT license that can be
 * found in the LICENSE.txt file.
 */

  .globl g_bookmark_file_set_is_private
  .p2align 4
  .type g_bookmark_file_set_is_private, %function
#ifndef IMPLIB_EXPORT_SHIMS
  .hidden g_bookmark_file_set_is_private
#endif
g_bookmark_file_set_is_private:
  .cfi_startproc

1:
  // Load address
  // TODO: can we do this faster on newer ARMs?
  ldr ip, 3f
2:
  add ip, pc, ip
  ldr ip, [ip]

  cmp ip, #0

  // Fast path
  bxne ip

  // Slow path
  ldr ip, =166
  push {ip}
  .cfi_adjust_cfa_offset 4
  PUSH_REG(lr)
  bl _libglib_2_0_so_save_regs_and_resolve
  POP_REG(lr)
  add sp, #4
  .cfi_adjust_cfa_offset -4
  bx ip

  // Force constant pool for ldr above
  .ltorg

  .cfi_endproc

3:
  .word _libglib_2_0_so_tramp_table - (2b + 8) + 664

/*
 * Copyright 2018-2025 Yury Gribov
 *
 * The MIT License (MIT)
 *
 * Use of this source code is governed by MIT license that can be
 * found in the LICENSE.txt file.
 */

  .globl g_bookmark_file_set_mime_type
  .p2align 4
  .type g_bookmark_file_set_mime_type, %function
#ifndef IMPLIB_EXPORT_SHIMS
  .hidden g_bookmark_file_set_mime_type
#endif
g_bookmark_file_set_mime_type:
  .cfi_startproc

1:
  // Load address
  // TODO: can we do this faster on newer ARMs?
  ldr ip, 3f
2:
  add ip, pc, ip
  ldr ip, [ip]

  cmp ip, #0

  // Fast path
  bxne ip

  // Slow path
  ldr ip, =167
  push {ip}
  .cfi_adjust_cfa_offset 4
  PUSH_REG(lr)
  bl _libglib_2_0_so_save_regs_and_resolve
  POP_REG(lr)
  add sp, #4
  .cfi_adjust_cfa_offset -4
  bx ip

  // Force constant pool for ldr above
  .ltorg

  .cfi_endproc

3:
  .word _libglib_2_0_so_tramp_table - (2b + 8) + 668

/*
 * Copyright 2018-2025 Yury Gribov
 *
 * The MIT License (MIT)
 *
 * Use of this source code is governed by MIT license that can be
 * found in the LICENSE.txt file.
 */

  .globl g_bookmark_file_set_modified
  .p2align 4
  .type g_bookmark_file_set_modified, %function
#ifndef IMPLIB_EXPORT_SHIMS
  .hidden g_bookmark_file_set_modified
#endif
g_bookmark_file_set_modified:
  .cfi_startproc

1:
  // Load address
  // TODO: can we do this faster on newer ARMs?
  ldr ip, 3f
2:
  add ip, pc, ip
  ldr ip, [ip]

  cmp ip, #0

  // Fast path
  bxne ip

  // Slow path
  ldr ip, =168
  push {ip}
  .cfi_adjust_cfa_offset 4
  PUSH_REG(lr)
  bl _libglib_2_0_so_save_regs_and_resolve
  POP_REG(lr)
  add sp, #4
  .cfi_adjust_cfa_offset -4
  bx ip

  // Force constant pool for ldr above
  .ltorg

  .cfi_endproc

3:
  .word _libglib_2_0_so_tramp_table - (2b + 8) + 672

/*
 * Copyright 2018-2025 Yury Gribov
 *
 * The MIT License (MIT)
 *
 * Use of this source code is governed by MIT license that can be
 * found in the LICENSE.txt file.
 */

  .globl g_bookmark_file_set_modified_date_time
  .p2align 4
  .type g_bookmark_file_set_modified_date_time, %function
#ifndef IMPLIB_EXPORT_SHIMS
  .hidden g_bookmark_file_set_modified_date_time
#endif
g_bookmark_file_set_modified_date_time:
  .cfi_startproc

1:
  // Load address
  // TODO: can we do this faster on newer ARMs?
  ldr ip, 3f
2:
  add ip, pc, ip
  ldr ip, [ip]

  cmp ip, #0

  // Fast path
  bxne ip

  // Slow path
  ldr ip, =169
  push {ip}
  .cfi_adjust_cfa_offset 4
  PUSH_REG(lr)
  bl _libglib_2_0_so_save_regs_and_resolve
  POP_REG(lr)
  add sp, #4
  .cfi_adjust_cfa_offset -4
  bx ip

  // Force constant pool for ldr above
  .ltorg

  .cfi_endproc

3:
  .word _libglib_2_0_so_tramp_table - (2b + 8) + 676

/*
 * Copyright 2018-2025 Yury Gribov
 *
 * The MIT License (MIT)
 *
 * Use of this source code is governed by MIT license that can be
 * found in the LICENSE.txt file.
 */

  .globl g_bookmark_file_set_title
  .p2align 4
  .type g_bookmark_file_set_title, %function
#ifndef IMPLIB_EXPORT_SHIMS
  .hidden g_bookmark_file_set_title
#endif
g_bookmark_file_set_title:
  .cfi_startproc

1:
  // Load address
  // TODO: can we do this faster on newer ARMs?
  ldr ip, 3f
2:
  add ip, pc, ip
  ldr ip, [ip]

  cmp ip, #0

  // Fast path
  bxne ip

  // Slow path
  ldr ip, =170
  push {ip}
  .cfi_adjust_cfa_offset 4
  PUSH_REG(lr)
  bl _libglib_2_0_so_save_regs_and_resolve
  POP_REG(lr)
  add sp, #4
  .cfi_adjust_cfa_offset -4
  bx ip

  // Force constant pool for ldr above
  .ltorg

  .cfi_endproc

3:
  .word _libglib_2_0_so_tramp_table - (2b + 8) + 680

/*
 * Copyright 2018-2025 Yury Gribov
 *
 * The MIT License (MIT)
 *
 * Use of this source code is governed by MIT license that can be
 * found in the LICENSE.txt file.
 */

  .globl g_bookmark_file_set_visited
  .p2align 4
  .type g_bookmark_file_set_visited, %function
#ifndef IMPLIB_EXPORT_SHIMS
  .hidden g_bookmark_file_set_visited
#endif
g_bookmark_file_set_visited:
  .cfi_startproc

1:
  // Load address
  // TODO: can we do this faster on newer ARMs?
  ldr ip, 3f
2:
  add ip, pc, ip
  ldr ip, [ip]

  cmp ip, #0

  // Fast path
  bxne ip

  // Slow path
  ldr ip, =171
  push {ip}
  .cfi_adjust_cfa_offset 4
  PUSH_REG(lr)
  bl _libglib_2_0_so_save_regs_and_resolve
  POP_REG(lr)
  add sp, #4
  .cfi_adjust_cfa_offset -4
  bx ip

  // Force constant pool for ldr above
  .ltorg

  .cfi_endproc

3:
  .word _libglib_2_0_so_tramp_table - (2b + 8) + 684

/*
 * Copyright 2018-2025 Yury Gribov
 *
 * The MIT License (MIT)
 *
 * Use of this source code is governed by MIT license that can be
 * found in the LICENSE.txt file.
 */

  .globl g_bookmark_file_set_visited_date_time
  .p2align 4
  .type g_bookmark_file_set_visited_date_time, %function
#ifndef IMPLIB_EXPORT_SHIMS
  .hidden g_bookmark_file_set_visited_date_time
#endif
g_bookmark_file_set_visited_date_time:
  .cfi_startproc

1:
  // Load address
  // TODO: can we do this faster on newer ARMs?
  ldr ip, 3f
2:
  add ip, pc, ip
  ldr ip, [ip]

  cmp ip, #0

  // Fast path
  bxne ip

  // Slow path
  ldr ip, =172
  push {ip}
  .cfi_adjust_cfa_offset 4
  PUSH_REG(lr)
  bl _libglib_2_0_so_save_regs_and_resolve
  POP_REG(lr)
  add sp, #4
  .cfi_adjust_cfa_offset -4
  bx ip

  // Force constant pool for ldr above
  .ltorg

  .cfi_endproc

3:
  .word _libglib_2_0_so_tramp_table - (2b + 8) + 688

/*
 * Copyright 2018-2025 Yury Gribov
 *
 * The MIT License (MIT)
 *
 * Use of this source code is governed by MIT license that can be
 * found in the LICENSE.txt file.
 */

  .globl g_bookmark_file_to_data
  .p2align 4
  .type g_bookmark_file_to_data, %function
#ifndef IMPLIB_EXPORT_SHIMS
  .hidden g_bookmark_file_to_data
#endif
g_bookmark_file_to_data:
  .cfi_startproc

1:
  // Load address
  // TODO: can we do this faster on newer ARMs?
  ldr ip, 3f
2:
  add ip, pc, ip
  ldr ip, [ip]

  cmp ip, #0

  // Fast path
  bxne ip

  // Slow path
  ldr ip, =173
  push {ip}
  .cfi_adjust_cfa_offset 4
  PUSH_REG(lr)
  bl _libglib_2_0_so_save_regs_and_resolve
  POP_REG(lr)
  add sp, #4
  .cfi_adjust_cfa_offset -4
  bx ip

  // Force constant pool for ldr above
  .ltorg

  .cfi_endproc

3:
  .word _libglib_2_0_so_tramp_table - (2b + 8) + 692

/*
 * Copyright 2018-2025 Yury Gribov
 *
 * The MIT License (MIT)
 *
 * Use of this source code is governed by MIT license that can be
 * found in the LICENSE.txt file.
 */

  .globl g_bookmark_file_to_file
  .p2align 4
  .type g_bookmark_file_to_file, %function
#ifndef IMPLIB_EXPORT_SHIMS
  .hidden g_bookmark_file_to_file
#endif
g_bookmark_file_to_file:
  .cfi_startproc

1:
  // Load address
  // TODO: can we do this faster on newer ARMs?
  ldr ip, 3f
2:
  add ip, pc, ip
  ldr ip, [ip]

  cmp ip, #0

  // Fast path
  bxne ip

  // Slow path
  ldr ip, =174
  push {ip}
  .cfi_adjust_cfa_offset 4
  PUSH_REG(lr)
  bl _libglib_2_0_so_save_regs_and_resolve
  POP_REG(lr)
  add sp, #4
  .cfi_adjust_cfa_offset -4
  bx ip

  // Force constant pool for ldr above
  .ltorg

  .cfi_endproc

3:
  .word _libglib_2_0_so_tramp_table - (2b + 8) + 696

/*
 * Copyright 2018-2025 Yury Gribov
 *
 * The MIT License (MIT)
 *
 * Use of this source code is governed by MIT license that can be
 * found in the LICENSE.txt file.
 */

  .globl g_build_filename
  .p2align 4
  .type g_build_filename, %function
#ifndef IMPLIB_EXPORT_SHIMS
  .hidden g_build_filename
#endif
g_build_filename:
  .cfi_startproc

1:
  // Load address
  // TODO: can we do this faster on newer ARMs?
  ldr ip, 3f
2:
  add ip, pc, ip
  ldr ip, [ip]

  cmp ip, #0

  // Fast path
  bxne ip

  // Slow path
  ldr ip, =175
  push {ip}
  .cfi_adjust_cfa_offset 4
  PUSH_REG(lr)
  bl _libglib_2_0_so_save_regs_and_resolve
  POP_REG(lr)
  add sp, #4
  .cfi_adjust_cfa_offset -4
  bx ip

  // Force constant pool for ldr above
  .ltorg

  .cfi_endproc

3:
  .word _libglib_2_0_so_tramp_table - (2b + 8) + 700

/*
 * Copyright 2018-2025 Yury Gribov
 *
 * The MIT License (MIT)
 *
 * Use of this source code is governed by MIT license that can be
 * found in the LICENSE.txt file.
 */

  .globl g_build_filename_valist
  .p2align 4
  .type g_build_filename_valist, %function
#ifndef IMPLIB_EXPORT_SHIMS
  .hidden g_build_filename_valist
#endif
g_build_filename_valist:
  .cfi_startproc

1:
  // Load address
  // TODO: can we do this faster on newer ARMs?
  ldr ip, 3f
2:
  add ip, pc, ip
  ldr ip, [ip]

  cmp ip, #0

  // Fast path
  bxne ip

  // Slow path
  ldr ip, =176
  push {ip}
  .cfi_adjust_cfa_offset 4
  PUSH_REG(lr)
  bl _libglib_2_0_so_save_regs_and_resolve
  POP_REG(lr)
  add sp, #4
  .cfi_adjust_cfa_offset -4
  bx ip

  // Force constant pool for ldr above
  .ltorg

  .cfi_endproc

3:
  .word _libglib_2_0_so_tramp_table - (2b + 8) + 704

/*
 * Copyright 2018-2025 Yury Gribov
 *
 * The MIT License (MIT)
 *
 * Use of this source code is governed by MIT license that can be
 * found in the LICENSE.txt file.
 */

  .globl g_build_filenamev
  .p2align 4
  .type g_build_filenamev, %function
#ifndef IMPLIB_EXPORT_SHIMS
  .hidden g_build_filenamev
#endif
g_build_filenamev:
  .cfi_startproc

1:
  // Load address
  // TODO: can we do this faster on newer ARMs?
  ldr ip, 3f
2:
  add ip, pc, ip
  ldr ip, [ip]

  cmp ip, #0

  // Fast path
  bxne ip

  // Slow path
  ldr ip, =177
  push {ip}
  .cfi_adjust_cfa_offset 4
  PUSH_REG(lr)
  bl _libglib_2_0_so_save_regs_and_resolve
  POP_REG(lr)
  add sp, #4
  .cfi_adjust_cfa_offset -4
  bx ip

  // Force constant pool for ldr above
  .ltorg

  .cfi_endproc

3:
  .word _libglib_2_0_so_tramp_table - (2b + 8) + 708

/*
 * Copyright 2018-2025 Yury Gribov
 *
 * The MIT License (MIT)
 *
 * Use of this source code is governed by MIT license that can be
 * found in the LICENSE.txt file.
 */

  .globl g_build_path
  .p2align 4
  .type g_build_path, %function
#ifndef IMPLIB_EXPORT_SHIMS
  .hidden g_build_path
#endif
g_build_path:
  .cfi_startproc

1:
  // Load address
  // TODO: can we do this faster on newer ARMs?
  ldr ip, 3f
2:
  add ip, pc, ip
  ldr ip, [ip]

  cmp ip, #0

  // Fast path
  bxne ip

  // Slow path
  ldr ip, =178
  push {ip}
  .cfi_adjust_cfa_offset 4
  PUSH_REG(lr)
  bl _libglib_2_0_so_save_regs_and_resolve
  POP_REG(lr)
  add sp, #4
  .cfi_adjust_cfa_offset -4
  bx ip

  // Force constant pool for ldr above
  .ltorg

  .cfi_endproc

3:
  .word _libglib_2_0_so_tramp_table - (2b + 8) + 712

/*
 * Copyright 2018-2025 Yury Gribov
 *
 * The MIT License (MIT)
 *
 * Use of this source code is governed by MIT license that can be
 * found in the LICENSE.txt file.
 */

  .globl g_build_pathv
  .p2align 4
  .type g_build_pathv, %function
#ifndef IMPLIB_EXPORT_SHIMS
  .hidden g_build_pathv
#endif
g_build_pathv:
  .cfi_startproc

1:
  // Load address
  // TODO: can we do this faster on newer ARMs?
  ldr ip, 3f
2:
  add ip, pc, ip
  ldr ip, [ip]

  cmp ip, #0

  // Fast path
  bxne ip

  // Slow path
  ldr ip, =179
  push {ip}
  .cfi_adjust_cfa_offset 4
  PUSH_REG(lr)
  bl _libglib_2_0_so_save_regs_and_resolve
  POP_REG(lr)
  add sp, #4
  .cfi_adjust_cfa_offset -4
  bx ip

  // Force constant pool for ldr above
  .ltorg

  .cfi_endproc

3:
  .word _libglib_2_0_so_tramp_table - (2b + 8) + 716

/*
 * Copyright 2018-2025 Yury Gribov
 *
 * The MIT License (MIT)
 *
 * Use of this source code is governed by MIT license that can be
 * found in the LICENSE.txt file.
 */

  .globl g_byte_array_append
  .p2align 4
  .type g_byte_array_append, %function
#ifndef IMPLIB_EXPORT_SHIMS
  .hidden g_byte_array_append
#endif
g_byte_array_append:
  .cfi_startproc

1:
  // Load address
  // TODO: can we do this faster on newer ARMs?
  ldr ip, 3f
2:
  add ip, pc, ip
  ldr ip, [ip]

  cmp ip, #0

  // Fast path
  bxne ip

  // Slow path
  ldr ip, =180
  push {ip}
  .cfi_adjust_cfa_offset 4
  PUSH_REG(lr)
  bl _libglib_2_0_so_save_regs_and_resolve
  POP_REG(lr)
  add sp, #4
  .cfi_adjust_cfa_offset -4
  bx ip

  // Force constant pool for ldr above
  .ltorg

  .cfi_endproc

3:
  .word _libglib_2_0_so_tramp_table - (2b + 8) + 720

/*
 * Copyright 2018-2025 Yury Gribov
 *
 * The MIT License (MIT)
 *
 * Use of this source code is governed by MIT license that can be
 * found in the LICENSE.txt file.
 */

  .globl g_byte_array_free
  .p2align 4
  .type g_byte_array_free, %function
#ifndef IMPLIB_EXPORT_SHIMS
  .hidden g_byte_array_free
#endif
g_byte_array_free:
  .cfi_startproc

1:
  // Load address
  // TODO: can we do this faster on newer ARMs?
  ldr ip, 3f
2:
  add ip, pc, ip
  ldr ip, [ip]

  cmp ip, #0

  // Fast path
  bxne ip

  // Slow path
  ldr ip, =181
  push {ip}
  .cfi_adjust_cfa_offset 4
  PUSH_REG(lr)
  bl _libglib_2_0_so_save_regs_and_resolve
  POP_REG(lr)
  add sp, #4
  .cfi_adjust_cfa_offset -4
  bx ip

  // Force constant pool for ldr above
  .ltorg

  .cfi_endproc

3:
  .word _libglib_2_0_so_tramp_table - (2b + 8) + 724

/*
 * Copyright 2018-2025 Yury Gribov
 *
 * The MIT License (MIT)
 *
 * Use of this source code is governed by MIT license that can be
 * found in the LICENSE.txt file.
 */

  .globl g_byte_array_free_to_bytes
  .p2align 4
  .type g_byte_array_free_to_bytes, %function
#ifndef IMPLIB_EXPORT_SHIMS
  .hidden g_byte_array_free_to_bytes
#endif
g_byte_array_free_to_bytes:
  .cfi_startproc

1:
  // Load address
  // TODO: can we do this faster on newer ARMs?
  ldr ip, 3f
2:
  add ip, pc, ip
  ldr ip, [ip]

  cmp ip, #0

  // Fast path
  bxne ip

  // Slow path
  ldr ip, =182
  push {ip}
  .cfi_adjust_cfa_offset 4
  PUSH_REG(lr)
  bl _libglib_2_0_so_save_regs_and_resolve
  POP_REG(lr)
  add sp, #4
  .cfi_adjust_cfa_offset -4
  bx ip

  // Force constant pool for ldr above
  .ltorg

  .cfi_endproc

3:
  .word _libglib_2_0_so_tramp_table - (2b + 8) + 728

/*
 * Copyright 2018-2025 Yury Gribov
 *
 * The MIT License (MIT)
 *
 * Use of this source code is governed by MIT license that can be
 * found in the LICENSE.txt file.
 */

  .globl g_byte_array_new
  .p2align 4
  .type g_byte_array_new, %function
#ifndef IMPLIB_EXPORT_SHIMS
  .hidden g_byte_array_new
#endif
g_byte_array_new:
  .cfi_startproc

1:
  // Load address
  // TODO: can we do this faster on newer ARMs?
  ldr ip, 3f
2:
  add ip, pc, ip
  ldr ip, [ip]

  cmp ip, #0

  // Fast path
  bxne ip

  // Slow path
  ldr ip, =183
  push {ip}
  .cfi_adjust_cfa_offset 4
  PUSH_REG(lr)
  bl _libglib_2_0_so_save_regs_and_resolve
  POP_REG(lr)
  add sp, #4
  .cfi_adjust_cfa_offset -4
  bx ip

  // Force constant pool for ldr above
  .ltorg

  .cfi_endproc

3:
  .word _libglib_2_0_so_tramp_table - (2b + 8) + 732

/*
 * Copyright 2018-2025 Yury Gribov
 *
 * The MIT License (MIT)
 *
 * Use of this source code is governed by MIT license that can be
 * found in the LICENSE.txt file.
 */

  .globl g_byte_array_new_take
  .p2align 4
  .type g_byte_array_new_take, %function
#ifndef IMPLIB_EXPORT_SHIMS
  .hidden g_byte_array_new_take
#endif
g_byte_array_new_take:
  .cfi_startproc

1:
  // Load address
  // TODO: can we do this faster on newer ARMs?
  ldr ip, 3f
2:
  add ip, pc, ip
  ldr ip, [ip]

  cmp ip, #0

  // Fast path
  bxne ip

  // Slow path
  ldr ip, =184
  push {ip}
  .cfi_adjust_cfa_offset 4
  PUSH_REG(lr)
  bl _libglib_2_0_so_save_regs_and_resolve
  POP_REG(lr)
  add sp, #4
  .cfi_adjust_cfa_offset -4
  bx ip

  // Force constant pool for ldr above
  .ltorg

  .cfi_endproc

3:
  .word _libglib_2_0_so_tramp_table - (2b + 8) + 736

/*
 * Copyright 2018-2025 Yury Gribov
 *
 * The MIT License (MIT)
 *
 * Use of this source code is governed by MIT license that can be
 * found in the LICENSE.txt file.
 */

  .globl g_byte_array_prepend
  .p2align 4
  .type g_byte_array_prepend, %function
#ifndef IMPLIB_EXPORT_SHIMS
  .hidden g_byte_array_prepend
#endif
g_byte_array_prepend:
  .cfi_startproc

1:
  // Load address
  // TODO: can we do this faster on newer ARMs?
  ldr ip, 3f
2:
  add ip, pc, ip
  ldr ip, [ip]

  cmp ip, #0

  // Fast path
  bxne ip

  // Slow path
  ldr ip, =185
  push {ip}
  .cfi_adjust_cfa_offset 4
  PUSH_REG(lr)
  bl _libglib_2_0_so_save_regs_and_resolve
  POP_REG(lr)
  add sp, #4
  .cfi_adjust_cfa_offset -4
  bx ip

  // Force constant pool for ldr above
  .ltorg

  .cfi_endproc

3:
  .word _libglib_2_0_so_tramp_table - (2b + 8) + 740

/*
 * Copyright 2018-2025 Yury Gribov
 *
 * The MIT License (MIT)
 *
 * Use of this source code is governed by MIT license that can be
 * found in the LICENSE.txt file.
 */

  .globl g_byte_array_ref
  .p2align 4
  .type g_byte_array_ref, %function
#ifndef IMPLIB_EXPORT_SHIMS
  .hidden g_byte_array_ref
#endif
g_byte_array_ref:
  .cfi_startproc

1:
  // Load address
  // TODO: can we do this faster on newer ARMs?
  ldr ip, 3f
2:
  add ip, pc, ip
  ldr ip, [ip]

  cmp ip, #0

  // Fast path
  bxne ip

  // Slow path
  ldr ip, =186
  push {ip}
  .cfi_adjust_cfa_offset 4
  PUSH_REG(lr)
  bl _libglib_2_0_so_save_regs_and_resolve
  POP_REG(lr)
  add sp, #4
  .cfi_adjust_cfa_offset -4
  bx ip

  // Force constant pool for ldr above
  .ltorg

  .cfi_endproc

3:
  .word _libglib_2_0_so_tramp_table - (2b + 8) + 744

/*
 * Copyright 2018-2025 Yury Gribov
 *
 * The MIT License (MIT)
 *
 * Use of this source code is governed by MIT license that can be
 * found in the LICENSE.txt file.
 */

  .globl g_byte_array_remove_index
  .p2align 4
  .type g_byte_array_remove_index, %function
#ifndef IMPLIB_EXPORT_SHIMS
  .hidden g_byte_array_remove_index
#endif
g_byte_array_remove_index:
  .cfi_startproc

1:
  // Load address
  // TODO: can we do this faster on newer ARMs?
  ldr ip, 3f
2:
  add ip, pc, ip
  ldr ip, [ip]

  cmp ip, #0

  // Fast path
  bxne ip

  // Slow path
  ldr ip, =187
  push {ip}
  .cfi_adjust_cfa_offset 4
  PUSH_REG(lr)
  bl _libglib_2_0_so_save_regs_and_resolve
  POP_REG(lr)
  add sp, #4
  .cfi_adjust_cfa_offset -4
  bx ip

  // Force constant pool for ldr above
  .ltorg

  .cfi_endproc

3:
  .word _libglib_2_0_so_tramp_table - (2b + 8) + 748

/*
 * Copyright 2018-2025 Yury Gribov
 *
 * The MIT License (MIT)
 *
 * Use of this source code is governed by MIT license that can be
 * found in the LICENSE.txt file.
 */

  .globl g_byte_array_remove_index_fast
  .p2align 4
  .type g_byte_array_remove_index_fast, %function
#ifndef IMPLIB_EXPORT_SHIMS
  .hidden g_byte_array_remove_index_fast
#endif
g_byte_array_remove_index_fast:
  .cfi_startproc

1:
  // Load address
  // TODO: can we do this faster on newer ARMs?
  ldr ip, 3f
2:
  add ip, pc, ip
  ldr ip, [ip]

  cmp ip, #0

  // Fast path
  bxne ip

  // Slow path
  ldr ip, =188
  push {ip}
  .cfi_adjust_cfa_offset 4
  PUSH_REG(lr)
  bl _libglib_2_0_so_save_regs_and_resolve
  POP_REG(lr)
  add sp, #4
  .cfi_adjust_cfa_offset -4
  bx ip

  // Force constant pool for ldr above
  .ltorg

  .cfi_endproc

3:
  .word _libglib_2_0_so_tramp_table - (2b + 8) + 752

/*
 * Copyright 2018-2025 Yury Gribov
 *
 * The MIT License (MIT)
 *
 * Use of this source code is governed by MIT license that can be
 * found in the LICENSE.txt file.
 */

  .globl g_byte_array_remove_range
  .p2align 4
  .type g_byte_array_remove_range, %function
#ifndef IMPLIB_EXPORT_SHIMS
  .hidden g_byte_array_remove_range
#endif
g_byte_array_remove_range:
  .cfi_startproc

1:
  // Load address
  // TODO: can we do this faster on newer ARMs?
  ldr ip, 3f
2:
  add ip, pc, ip
  ldr ip, [ip]

  cmp ip, #0

  // Fast path
  bxne ip

  // Slow path
  ldr ip, =189
  push {ip}
  .cfi_adjust_cfa_offset 4
  PUSH_REG(lr)
  bl _libglib_2_0_so_save_regs_and_resolve
  POP_REG(lr)
  add sp, #4
  .cfi_adjust_cfa_offset -4
  bx ip

  // Force constant pool for ldr above
  .ltorg

  .cfi_endproc

3:
  .word _libglib_2_0_so_tramp_table - (2b + 8) + 756

/*
 * Copyright 2018-2025 Yury Gribov
 *
 * The MIT License (MIT)
 *
 * Use of this source code is governed by MIT license that can be
 * found in the LICENSE.txt file.
 */

  .globl g_byte_array_set_size
  .p2align 4
  .type g_byte_array_set_size, %function
#ifndef IMPLIB_EXPORT_SHIMS
  .hidden g_byte_array_set_size
#endif
g_byte_array_set_size:
  .cfi_startproc

1:
  // Load address
  // TODO: can we do this faster on newer ARMs?
  ldr ip, 3f
2:
  add ip, pc, ip
  ldr ip, [ip]

  cmp ip, #0

  // Fast path
  bxne ip

  // Slow path
  ldr ip, =190
  push {ip}
  .cfi_adjust_cfa_offset 4
  PUSH_REG(lr)
  bl _libglib_2_0_so_save_regs_and_resolve
  POP_REG(lr)
  add sp, #4
  .cfi_adjust_cfa_offset -4
  bx ip

  // Force constant pool for ldr above
  .ltorg

  .cfi_endproc

3:
  .word _libglib_2_0_so_tramp_table - (2b + 8) + 760

/*
 * Copyright 2018-2025 Yury Gribov
 *
 * The MIT License (MIT)
 *
 * Use of this source code is governed by MIT license that can be
 * found in the LICENSE.txt file.
 */

  .globl g_byte_array_sized_new
  .p2align 4
  .type g_byte_array_sized_new, %function
#ifndef IMPLIB_EXPORT_SHIMS
  .hidden g_byte_array_sized_new
#endif
g_byte_array_sized_new:
  .cfi_startproc

1:
  // Load address
  // TODO: can we do this faster on newer ARMs?
  ldr ip, 3f
2:
  add ip, pc, ip
  ldr ip, [ip]

  cmp ip, #0

  // Fast path
  bxne ip

  // Slow path
  ldr ip, =191
  push {ip}
  .cfi_adjust_cfa_offset 4
  PUSH_REG(lr)
  bl _libglib_2_0_so_save_regs_and_resolve
  POP_REG(lr)
  add sp, #4
  .cfi_adjust_cfa_offset -4
  bx ip

  // Force constant pool for ldr above
  .ltorg

  .cfi_endproc

3:
  .word _libglib_2_0_so_tramp_table - (2b + 8) + 764

/*
 * Copyright 2018-2025 Yury Gribov
 *
 * The MIT License (MIT)
 *
 * Use of this source code is governed by MIT license that can be
 * found in the LICENSE.txt file.
 */

  .globl g_byte_array_sort
  .p2align 4
  .type g_byte_array_sort, %function
#ifndef IMPLIB_EXPORT_SHIMS
  .hidden g_byte_array_sort
#endif
g_byte_array_sort:
  .cfi_startproc

1:
  // Load address
  // TODO: can we do this faster on newer ARMs?
  ldr ip, 3f
2:
  add ip, pc, ip
  ldr ip, [ip]

  cmp ip, #0

  // Fast path
  bxne ip

  // Slow path
  ldr ip, =192
  push {ip}
  .cfi_adjust_cfa_offset 4
  PUSH_REG(lr)
  bl _libglib_2_0_so_save_regs_and_resolve
  POP_REG(lr)
  add sp, #4
  .cfi_adjust_cfa_offset -4
  bx ip

  // Force constant pool for ldr above
  .ltorg

  .cfi_endproc

3:
  .word _libglib_2_0_so_tramp_table - (2b + 8) + 768

/*
 * Copyright 2018-2025 Yury Gribov
 *
 * The MIT License (MIT)
 *
 * Use of this source code is governed by MIT license that can be
 * found in the LICENSE.txt file.
 */

  .globl g_byte_array_sort_with_data
  .p2align 4
  .type g_byte_array_sort_with_data, %function
#ifndef IMPLIB_EXPORT_SHIMS
  .hidden g_byte_array_sort_with_data
#endif
g_byte_array_sort_with_data:
  .cfi_startproc

1:
  // Load address
  // TODO: can we do this faster on newer ARMs?
  ldr ip, 3f
2:
  add ip, pc, ip
  ldr ip, [ip]

  cmp ip, #0

  // Fast path
  bxne ip

  // Slow path
  ldr ip, =193
  push {ip}
  .cfi_adjust_cfa_offset 4
  PUSH_REG(lr)
  bl _libglib_2_0_so_save_regs_and_resolve
  POP_REG(lr)
  add sp, #4
  .cfi_adjust_cfa_offset -4
  bx ip

  // Force constant pool for ldr above
  .ltorg

  .cfi_endproc

3:
  .word _libglib_2_0_so_tramp_table - (2b + 8) + 772

/*
 * Copyright 2018-2025 Yury Gribov
 *
 * The MIT License (MIT)
 *
 * Use of this source code is governed by MIT license that can be
 * found in the LICENSE.txt file.
 */

  .globl g_byte_array_steal
  .p2align 4
  .type g_byte_array_steal, %function
#ifndef IMPLIB_EXPORT_SHIMS
  .hidden g_byte_array_steal
#endif
g_byte_array_steal:
  .cfi_startproc

1:
  // Load address
  // TODO: can we do this faster on newer ARMs?
  ldr ip, 3f
2:
  add ip, pc, ip
  ldr ip, [ip]

  cmp ip, #0

  // Fast path
  bxne ip

  // Slow path
  ldr ip, =194
  push {ip}
  .cfi_adjust_cfa_offset 4
  PUSH_REG(lr)
  bl _libglib_2_0_so_save_regs_and_resolve
  POP_REG(lr)
  add sp, #4
  .cfi_adjust_cfa_offset -4
  bx ip

  // Force constant pool for ldr above
  .ltorg

  .cfi_endproc

3:
  .word _libglib_2_0_so_tramp_table - (2b + 8) + 776

/*
 * Copyright 2018-2025 Yury Gribov
 *
 * The MIT License (MIT)
 *
 * Use of this source code is governed by MIT license that can be
 * found in the LICENSE.txt file.
 */

  .globl g_byte_array_unref
  .p2align 4
  .type g_byte_array_unref, %function
#ifndef IMPLIB_EXPORT_SHIMS
  .hidden g_byte_array_unref
#endif
g_byte_array_unref:
  .cfi_startproc

1:
  // Load address
  // TODO: can we do this faster on newer ARMs?
  ldr ip, 3f
2:
  add ip, pc, ip
  ldr ip, [ip]

  cmp ip, #0

  // Fast path
  bxne ip

  // Slow path
  ldr ip, =195
  push {ip}
  .cfi_adjust_cfa_offset 4
  PUSH_REG(lr)
  bl _libglib_2_0_so_save_regs_and_resolve
  POP_REG(lr)
  add sp, #4
  .cfi_adjust_cfa_offset -4
  bx ip

  // Force constant pool for ldr above
  .ltorg

  .cfi_endproc

3:
  .word _libglib_2_0_so_tramp_table - (2b + 8) + 780

/*
 * Copyright 2018-2025 Yury Gribov
 *
 * The MIT License (MIT)
 *
 * Use of this source code is governed by MIT license that can be
 * found in the LICENSE.txt file.
 */

  .globl g_bytes_compare
  .p2align 4
  .type g_bytes_compare, %function
#ifndef IMPLIB_EXPORT_SHIMS
  .hidden g_bytes_compare
#endif
g_bytes_compare:
  .cfi_startproc

1:
  // Load address
  // TODO: can we do this faster on newer ARMs?
  ldr ip, 3f
2:
  add ip, pc, ip
  ldr ip, [ip]

  cmp ip, #0

  // Fast path
  bxne ip

  // Slow path
  ldr ip, =196
  push {ip}
  .cfi_adjust_cfa_offset 4
  PUSH_REG(lr)
  bl _libglib_2_0_so_save_regs_and_resolve
  POP_REG(lr)
  add sp, #4
  .cfi_adjust_cfa_offset -4
  bx ip

  // Force constant pool for ldr above
  .ltorg

  .cfi_endproc

3:
  .word _libglib_2_0_so_tramp_table - (2b + 8) + 784

/*
 * Copyright 2018-2025 Yury Gribov
 *
 * The MIT License (MIT)
 *
 * Use of this source code is governed by MIT license that can be
 * found in the LICENSE.txt file.
 */

  .globl g_bytes_equal
  .p2align 4
  .type g_bytes_equal, %function
#ifndef IMPLIB_EXPORT_SHIMS
  .hidden g_bytes_equal
#endif
g_bytes_equal:
  .cfi_startproc

1:
  // Load address
  // TODO: can we do this faster on newer ARMs?
  ldr ip, 3f
2:
  add ip, pc, ip
  ldr ip, [ip]

  cmp ip, #0

  // Fast path
  bxne ip

  // Slow path
  ldr ip, =197
  push {ip}
  .cfi_adjust_cfa_offset 4
  PUSH_REG(lr)
  bl _libglib_2_0_so_save_regs_and_resolve
  POP_REG(lr)
  add sp, #4
  .cfi_adjust_cfa_offset -4
  bx ip

  // Force constant pool for ldr above
  .ltorg

  .cfi_endproc

3:
  .word _libglib_2_0_so_tramp_table - (2b + 8) + 788

/*
 * Copyright 2018-2025 Yury Gribov
 *
 * The MIT License (MIT)
 *
 * Use of this source code is governed by MIT license that can be
 * found in the LICENSE.txt file.
 */

  .globl g_bytes_get_data
  .p2align 4
  .type g_bytes_get_data, %function
#ifndef IMPLIB_EXPORT_SHIMS
  .hidden g_bytes_get_data
#endif
g_bytes_get_data:
  .cfi_startproc

1:
  // Load address
  // TODO: can we do this faster on newer ARMs?
  ldr ip, 3f
2:
  add ip, pc, ip
  ldr ip, [ip]

  cmp ip, #0

  // Fast path
  bxne ip

  // Slow path
  ldr ip, =198
  push {ip}
  .cfi_adjust_cfa_offset 4
  PUSH_REG(lr)
  bl _libglib_2_0_so_save_regs_and_resolve
  POP_REG(lr)
  add sp, #4
  .cfi_adjust_cfa_offset -4
  bx ip

  // Force constant pool for ldr above
  .ltorg

  .cfi_endproc

3:
  .word _libglib_2_0_so_tramp_table - (2b + 8) + 792

/*
 * Copyright 2018-2025 Yury Gribov
 *
 * The MIT License (MIT)
 *
 * Use of this source code is governed by MIT license that can be
 * found in the LICENSE.txt file.
 */

  .globl g_bytes_get_region
  .p2align 4
  .type g_bytes_get_region, %function
#ifndef IMPLIB_EXPORT_SHIMS
  .hidden g_bytes_get_region
#endif
g_bytes_get_region:
  .cfi_startproc

1:
  // Load address
  // TODO: can we do this faster on newer ARMs?
  ldr ip, 3f
2:
  add ip, pc, ip
  ldr ip, [ip]

  cmp ip, #0

  // Fast path
  bxne ip

  // Slow path
  ldr ip, =199
  push {ip}
  .cfi_adjust_cfa_offset 4
  PUSH_REG(lr)
  bl _libglib_2_0_so_save_regs_and_resolve
  POP_REG(lr)
  add sp, #4
  .cfi_adjust_cfa_offset -4
  bx ip

  // Force constant pool for ldr above
  .ltorg

  .cfi_endproc

3:
  .word _libglib_2_0_so_tramp_table - (2b + 8) + 796

/*
 * Copyright 2018-2025 Yury Gribov
 *
 * The MIT License (MIT)
 *
 * Use of this source code is governed by MIT license that can be
 * found in the LICENSE.txt file.
 */

  .globl g_bytes_get_size
  .p2align 4
  .type g_bytes_get_size, %function
#ifndef IMPLIB_EXPORT_SHIMS
  .hidden g_bytes_get_size
#endif
g_bytes_get_size:
  .cfi_startproc

1:
  // Load address
  // TODO: can we do this faster on newer ARMs?
  ldr ip, 3f
2:
  add ip, pc, ip
  ldr ip, [ip]

  cmp ip, #0

  // Fast path
  bxne ip

  // Slow path
  ldr ip, =200
  push {ip}
  .cfi_adjust_cfa_offset 4
  PUSH_REG(lr)
  bl _libglib_2_0_so_save_regs_and_resolve
  POP_REG(lr)
  add sp, #4
  .cfi_adjust_cfa_offset -4
  bx ip

  // Force constant pool for ldr above
  .ltorg

  .cfi_endproc

3:
  .word _libglib_2_0_so_tramp_table - (2b + 8) + 800

/*
 * Copyright 2018-2025 Yury Gribov
 *
 * The MIT License (MIT)
 *
 * Use of this source code is governed by MIT license that can be
 * found in the LICENSE.txt file.
 */

  .globl g_bytes_hash
  .p2align 4
  .type g_bytes_hash, %function
#ifndef IMPLIB_EXPORT_SHIMS
  .hidden g_bytes_hash
#endif
g_bytes_hash:
  .cfi_startproc

1:
  // Load address
  // TODO: can we do this faster on newer ARMs?
  ldr ip, 3f
2:
  add ip, pc, ip
  ldr ip, [ip]

  cmp ip, #0

  // Fast path
  bxne ip

  // Slow path
  ldr ip, =201
  push {ip}
  .cfi_adjust_cfa_offset 4
  PUSH_REG(lr)
  bl _libglib_2_0_so_save_regs_and_resolve
  POP_REG(lr)
  add sp, #4
  .cfi_adjust_cfa_offset -4
  bx ip

  // Force constant pool for ldr above
  .ltorg

  .cfi_endproc

3:
  .word _libglib_2_0_so_tramp_table - (2b + 8) + 804

/*
 * Copyright 2018-2025 Yury Gribov
 *
 * The MIT License (MIT)
 *
 * Use of this source code is governed by MIT license that can be
 * found in the LICENSE.txt file.
 */

  .globl g_bytes_new
  .p2align 4
  .type g_bytes_new, %function
#ifndef IMPLIB_EXPORT_SHIMS
  .hidden g_bytes_new
#endif
g_bytes_new:
  .cfi_startproc

1:
  // Load address
  // TODO: can we do this faster on newer ARMs?
  ldr ip, 3f
2:
  add ip, pc, ip
  ldr ip, [ip]

  cmp ip, #0

  // Fast path
  bxne ip

  // Slow path
  ldr ip, =202
  push {ip}
  .cfi_adjust_cfa_offset 4
  PUSH_REG(lr)
  bl _libglib_2_0_so_save_regs_and_resolve
  POP_REG(lr)
  add sp, #4
  .cfi_adjust_cfa_offset -4
  bx ip

  // Force constant pool for ldr above
  .ltorg

  .cfi_endproc

3:
  .word _libglib_2_0_so_tramp_table - (2b + 8) + 808

/*
 * Copyright 2018-2025 Yury Gribov
 *
 * The MIT License (MIT)
 *
 * Use of this source code is governed by MIT license that can be
 * found in the LICENSE.txt file.
 */

  .globl g_bytes_new_from_bytes
  .p2align 4
  .type g_bytes_new_from_bytes, %function
#ifndef IMPLIB_EXPORT_SHIMS
  .hidden g_bytes_new_from_bytes
#endif
g_bytes_new_from_bytes:
  .cfi_startproc

1:
  // Load address
  // TODO: can we do this faster on newer ARMs?
  ldr ip, 3f
2:
  add ip, pc, ip
  ldr ip, [ip]

  cmp ip, #0

  // Fast path
  bxne ip

  // Slow path
  ldr ip, =203
  push {ip}
  .cfi_adjust_cfa_offset 4
  PUSH_REG(lr)
  bl _libglib_2_0_so_save_regs_and_resolve
  POP_REG(lr)
  add sp, #4
  .cfi_adjust_cfa_offset -4
  bx ip

  // Force constant pool for ldr above
  .ltorg

  .cfi_endproc

3:
  .word _libglib_2_0_so_tramp_table - (2b + 8) + 812

/*
 * Copyright 2018-2025 Yury Gribov
 *
 * The MIT License (MIT)
 *
 * Use of this source code is governed by MIT license that can be
 * found in the LICENSE.txt file.
 */

  .globl g_bytes_new_static
  .p2align 4
  .type g_bytes_new_static, %function
#ifndef IMPLIB_EXPORT_SHIMS
  .hidden g_bytes_new_static
#endif
g_bytes_new_static:
  .cfi_startproc

1:
  // Load address
  // TODO: can we do this faster on newer ARMs?
  ldr ip, 3f
2:
  add ip, pc, ip
  ldr ip, [ip]

  cmp ip, #0

  // Fast path
  bxne ip

  // Slow path
  ldr ip, =204
  push {ip}
  .cfi_adjust_cfa_offset 4
  PUSH_REG(lr)
  bl _libglib_2_0_so_save_regs_and_resolve
  POP_REG(lr)
  add sp, #4
  .cfi_adjust_cfa_offset -4
  bx ip

  // Force constant pool for ldr above
  .ltorg

  .cfi_endproc

3:
  .word _libglib_2_0_so_tramp_table - (2b + 8) + 816

/*
 * Copyright 2018-2025 Yury Gribov
 *
 * The MIT License (MIT)
 *
 * Use of this source code is governed by MIT license that can be
 * found in the LICENSE.txt file.
 */

  .globl g_bytes_new_take
  .p2align 4
  .type g_bytes_new_take, %function
#ifndef IMPLIB_EXPORT_SHIMS
  .hidden g_bytes_new_take
#endif
g_bytes_new_take:
  .cfi_startproc

1:
  // Load address
  // TODO: can we do this faster on newer ARMs?
  ldr ip, 3f
2:
  add ip, pc, ip
  ldr ip, [ip]

  cmp ip, #0

  // Fast path
  bxne ip

  // Slow path
  ldr ip, =205
  push {ip}
  .cfi_adjust_cfa_offset 4
  PUSH_REG(lr)
  bl _libglib_2_0_so_save_regs_and_resolve
  POP_REG(lr)
  add sp, #4
  .cfi_adjust_cfa_offset -4
  bx ip

  // Force constant pool for ldr above
  .ltorg

  .cfi_endproc

3:
  .word _libglib_2_0_so_tramp_table - (2b + 8) + 820

/*
 * Copyright 2018-2025 Yury Gribov
 *
 * The MIT License (MIT)
 *
 * Use of this source code is governed by MIT license that can be
 * found in the LICENSE.txt file.
 */

  .globl g_bytes_new_with_free_func
  .p2align 4
  .type g_bytes_new_with_free_func, %function
#ifndef IMPLIB_EXPORT_SHIMS
  .hidden g_bytes_new_with_free_func
#endif
g_bytes_new_with_free_func:
  .cfi_startproc

1:
  // Load address
  // TODO: can we do this faster on newer ARMs?
  ldr ip, 3f
2:
  add ip, pc, ip
  ldr ip, [ip]

  cmp ip, #0

  // Fast path
  bxne ip

  // Slow path
  ldr ip, =206
  push {ip}
  .cfi_adjust_cfa_offset 4
  PUSH_REG(lr)
  bl _libglib_2_0_so_save_regs_and_resolve
  POP_REG(lr)
  add sp, #4
  .cfi_adjust_cfa_offset -4
  bx ip

  // Force constant pool for ldr above
  .ltorg

  .cfi_endproc

3:
  .word _libglib_2_0_so_tramp_table - (2b + 8) + 824

/*
 * Copyright 2018-2025 Yury Gribov
 *
 * The MIT License (MIT)
 *
 * Use of this source code is governed by MIT license that can be
 * found in the LICENSE.txt file.
 */

  .globl g_bytes_ref
  .p2align 4
  .type g_bytes_ref, %function
#ifndef IMPLIB_EXPORT_SHIMS
  .hidden g_bytes_ref
#endif
g_bytes_ref:
  .cfi_startproc

1:
  // Load address
  // TODO: can we do this faster on newer ARMs?
  ldr ip, 3f
2:
  add ip, pc, ip
  ldr ip, [ip]

  cmp ip, #0

  // Fast path
  bxne ip

  // Slow path
  ldr ip, =207
  push {ip}
  .cfi_adjust_cfa_offset 4
  PUSH_REG(lr)
  bl _libglib_2_0_so_save_regs_and_resolve
  POP_REG(lr)
  add sp, #4
  .cfi_adjust_cfa_offset -4
  bx ip

  // Force constant pool for ldr above
  .ltorg

  .cfi_endproc

3:
  .word _libglib_2_0_so_tramp_table - (2b + 8) + 828

/*
 * Copyright 2018-2025 Yury Gribov
 *
 * The MIT License (MIT)
 *
 * Use of this source code is governed by MIT license that can be
 * found in the LICENSE.txt file.
 */

  .globl g_bytes_unref
  .p2align 4
  .type g_bytes_unref, %function
#ifndef IMPLIB_EXPORT_SHIMS
  .hidden g_bytes_unref
#endif
g_bytes_unref:
  .cfi_startproc

1:
  // Load address
  // TODO: can we do this faster on newer ARMs?
  ldr ip, 3f
2:
  add ip, pc, ip
  ldr ip, [ip]

  cmp ip, #0

  // Fast path
  bxne ip

  // Slow path
  ldr ip, =208
  push {ip}
  .cfi_adjust_cfa_offset 4
  PUSH_REG(lr)
  bl _libglib_2_0_so_save_regs_and_resolve
  POP_REG(lr)
  add sp, #4
  .cfi_adjust_cfa_offset -4
  bx ip

  // Force constant pool for ldr above
  .ltorg

  .cfi_endproc

3:
  .word _libglib_2_0_so_tramp_table - (2b + 8) + 832

/*
 * Copyright 2018-2025 Yury Gribov
 *
 * The MIT License (MIT)
 *
 * Use of this source code is governed by MIT license that can be
 * found in the LICENSE.txt file.
 */

  .globl g_bytes_unref_to_array
  .p2align 4
  .type g_bytes_unref_to_array, %function
#ifndef IMPLIB_EXPORT_SHIMS
  .hidden g_bytes_unref_to_array
#endif
g_bytes_unref_to_array:
  .cfi_startproc

1:
  // Load address
  // TODO: can we do this faster on newer ARMs?
  ldr ip, 3f
2:
  add ip, pc, ip
  ldr ip, [ip]

  cmp ip, #0

  // Fast path
  bxne ip

  // Slow path
  ldr ip, =209
  push {ip}
  .cfi_adjust_cfa_offset 4
  PUSH_REG(lr)
  bl _libglib_2_0_so_save_regs_and_resolve
  POP_REG(lr)
  add sp, #4
  .cfi_adjust_cfa_offset -4
  bx ip

  // Force constant pool for ldr above
  .ltorg

  .cfi_endproc

3:
  .word _libglib_2_0_so_tramp_table - (2b + 8) + 836

/*
 * Copyright 2018-2025 Yury Gribov
 *
 * The MIT License (MIT)
 *
 * Use of this source code is governed by MIT license that can be
 * found in the LICENSE.txt file.
 */

  .globl g_bytes_unref_to_data
  .p2align 4
  .type g_bytes_unref_to_data, %function
#ifndef IMPLIB_EXPORT_SHIMS
  .hidden g_bytes_unref_to_data
#endif
g_bytes_unref_to_data:
  .cfi_startproc

1:
  // Load address
  // TODO: can we do this faster on newer ARMs?
  ldr ip, 3f
2:
  add ip, pc, ip
  ldr ip, [ip]

  cmp ip, #0

  // Fast path
  bxne ip

  // Slow path
  ldr ip, =210
  push {ip}
  .cfi_adjust_cfa_offset 4
  PUSH_REG(lr)
  bl _libglib_2_0_so_save_regs_and_resolve
  POP_REG(lr)
  add sp, #4
  .cfi_adjust_cfa_offset -4
  bx ip

  // Force constant pool for ldr above
  .ltorg

  .cfi_endproc

3:
  .word _libglib_2_0_so_tramp_table - (2b + 8) + 840

/*
 * Copyright 2018-2025 Yury Gribov
 *
 * The MIT License (MIT)
 *
 * Use of this source code is governed by MIT license that can be
 * found in the LICENSE.txt file.
 */

  .globl g_cache_destroy
  .p2align 4
  .type g_cache_destroy, %function
#ifndef IMPLIB_EXPORT_SHIMS
  .hidden g_cache_destroy
#endif
g_cache_destroy:
  .cfi_startproc

1:
  // Load address
  // TODO: can we do this faster on newer ARMs?
  ldr ip, 3f
2:
  add ip, pc, ip
  ldr ip, [ip]

  cmp ip, #0

  // Fast path
  bxne ip

  // Slow path
  ldr ip, =211
  push {ip}
  .cfi_adjust_cfa_offset 4
  PUSH_REG(lr)
  bl _libglib_2_0_so_save_regs_and_resolve
  POP_REG(lr)
  add sp, #4
  .cfi_adjust_cfa_offset -4
  bx ip

  // Force constant pool for ldr above
  .ltorg

  .cfi_endproc

3:
  .word _libglib_2_0_so_tramp_table - (2b + 8) + 844

/*
 * Copyright 2018-2025 Yury Gribov
 *
 * The MIT License (MIT)
 *
 * Use of this source code is governed by MIT license that can be
 * found in the LICENSE.txt file.
 */

  .globl g_cache_insert
  .p2align 4
  .type g_cache_insert, %function
#ifndef IMPLIB_EXPORT_SHIMS
  .hidden g_cache_insert
#endif
g_cache_insert:
  .cfi_startproc

1:
  // Load address
  // TODO: can we do this faster on newer ARMs?
  ldr ip, 3f
2:
  add ip, pc, ip
  ldr ip, [ip]

  cmp ip, #0

  // Fast path
  bxne ip

  // Slow path
  ldr ip, =212
  push {ip}
  .cfi_adjust_cfa_offset 4
  PUSH_REG(lr)
  bl _libglib_2_0_so_save_regs_and_resolve
  POP_REG(lr)
  add sp, #4
  .cfi_adjust_cfa_offset -4
  bx ip

  // Force constant pool for ldr above
  .ltorg

  .cfi_endproc

3:
  .word _libglib_2_0_so_tramp_table - (2b + 8) + 848

/*
 * Copyright 2018-2025 Yury Gribov
 *
 * The MIT License (MIT)
 *
 * Use of this source code is governed by MIT license that can be
 * found in the LICENSE.txt file.
 */

  .globl g_cache_key_foreach
  .p2align 4
  .type g_cache_key_foreach, %function
#ifndef IMPLIB_EXPORT_SHIMS
  .hidden g_cache_key_foreach
#endif
g_cache_key_foreach:
  .cfi_startproc

1:
  // Load address
  // TODO: can we do this faster on newer ARMs?
  ldr ip, 3f
2:
  add ip, pc, ip
  ldr ip, [ip]

  cmp ip, #0

  // Fast path
  bxne ip

  // Slow path
  ldr ip, =213
  push {ip}
  .cfi_adjust_cfa_offset 4
  PUSH_REG(lr)
  bl _libglib_2_0_so_save_regs_and_resolve
  POP_REG(lr)
  add sp, #4
  .cfi_adjust_cfa_offset -4
  bx ip

  // Force constant pool for ldr above
  .ltorg

  .cfi_endproc

3:
  .word _libglib_2_0_so_tramp_table - (2b + 8) + 852

/*
 * Copyright 2018-2025 Yury Gribov
 *
 * The MIT License (MIT)
 *
 * Use of this source code is governed by MIT license that can be
 * found in the LICENSE.txt file.
 */

  .globl g_cache_new
  .p2align 4
  .type g_cache_new, %function
#ifndef IMPLIB_EXPORT_SHIMS
  .hidden g_cache_new
#endif
g_cache_new:
  .cfi_startproc

1:
  // Load address
  // TODO: can we do this faster on newer ARMs?
  ldr ip, 3f
2:
  add ip, pc, ip
  ldr ip, [ip]

  cmp ip, #0

  // Fast path
  bxne ip

  // Slow path
  ldr ip, =214
  push {ip}
  .cfi_adjust_cfa_offset 4
  PUSH_REG(lr)
  bl _libglib_2_0_so_save_regs_and_resolve
  POP_REG(lr)
  add sp, #4
  .cfi_adjust_cfa_offset -4
  bx ip

  // Force constant pool for ldr above
  .ltorg

  .cfi_endproc

3:
  .word _libglib_2_0_so_tramp_table - (2b + 8) + 856

/*
 * Copyright 2018-2025 Yury Gribov
 *
 * The MIT License (MIT)
 *
 * Use of this source code is governed by MIT license that can be
 * found in the LICENSE.txt file.
 */

  .globl g_cache_remove
  .p2align 4
  .type g_cache_remove, %function
#ifndef IMPLIB_EXPORT_SHIMS
  .hidden g_cache_remove
#endif
g_cache_remove:
  .cfi_startproc

1:
  // Load address
  // TODO: can we do this faster on newer ARMs?
  ldr ip, 3f
2:
  add ip, pc, ip
  ldr ip, [ip]

  cmp ip, #0

  // Fast path
  bxne ip

  // Slow path
  ldr ip, =215
  push {ip}
  .cfi_adjust_cfa_offset 4
  PUSH_REG(lr)
  bl _libglib_2_0_so_save_regs_and_resolve
  POP_REG(lr)
  add sp, #4
  .cfi_adjust_cfa_offset -4
  bx ip

  // Force constant pool for ldr above
  .ltorg

  .cfi_endproc

3:
  .word _libglib_2_0_so_tramp_table - (2b + 8) + 860

/*
 * Copyright 2018-2025 Yury Gribov
 *
 * The MIT License (MIT)
 *
 * Use of this source code is governed by MIT license that can be
 * found in the LICENSE.txt file.
 */

  .globl g_cache_value_foreach
  .p2align 4
  .type g_cache_value_foreach, %function
#ifndef IMPLIB_EXPORT_SHIMS
  .hidden g_cache_value_foreach
#endif
g_cache_value_foreach:
  .cfi_startproc

1:
  // Load address
  // TODO: can we do this faster on newer ARMs?
  ldr ip, 3f
2:
  add ip, pc, ip
  ldr ip, [ip]

  cmp ip, #0

  // Fast path
  bxne ip

  // Slow path
  ldr ip, =216
  push {ip}
  .cfi_adjust_cfa_offset 4
  PUSH_REG(lr)
  bl _libglib_2_0_so_save_regs_and_resolve
  POP_REG(lr)
  add sp, #4
  .cfi_adjust_cfa_offset -4
  bx ip

  // Force constant pool for ldr above
  .ltorg

  .cfi_endproc

3:
  .word _libglib_2_0_so_tramp_table - (2b + 8) + 864

/*
 * Copyright 2018-2025 Yury Gribov
 *
 * The MIT License (MIT)
 *
 * Use of this source code is governed by MIT license that can be
 * found in the LICENSE.txt file.
 */

  .globl g_canonicalize_filename
  .p2align 4
  .type g_canonicalize_filename, %function
#ifndef IMPLIB_EXPORT_SHIMS
  .hidden g_canonicalize_filename
#endif
g_canonicalize_filename:
  .cfi_startproc

1:
  // Load address
  // TODO: can we do this faster on newer ARMs?
  ldr ip, 3f
2:
  add ip, pc, ip
  ldr ip, [ip]

  cmp ip, #0

  // Fast path
  bxne ip

  // Slow path
  ldr ip, =217
  push {ip}
  .cfi_adjust_cfa_offset 4
  PUSH_REG(lr)
  bl _libglib_2_0_so_save_regs_and_resolve
  POP_REG(lr)
  add sp, #4
  .cfi_adjust_cfa_offset -4
  bx ip

  // Force constant pool for ldr above
  .ltorg

  .cfi_endproc

3:
  .word _libglib_2_0_so_tramp_table - (2b + 8) + 868

/*
 * Copyright 2018-2025 Yury Gribov
 *
 * The MIT License (MIT)
 *
 * Use of this source code is governed by MIT license that can be
 * found in the LICENSE.txt file.
 */

  .globl g_chdir
  .p2align 4
  .type g_chdir, %function
#ifndef IMPLIB_EXPORT_SHIMS
  .hidden g_chdir
#endif
g_chdir:
  .cfi_startproc

1:
  // Load address
  // TODO: can we do this faster on newer ARMs?
  ldr ip, 3f
2:
  add ip, pc, ip
  ldr ip, [ip]

  cmp ip, #0

  // Fast path
  bxne ip

  // Slow path
  ldr ip, =218
  push {ip}
  .cfi_adjust_cfa_offset 4
  PUSH_REG(lr)
  bl _libglib_2_0_so_save_regs_and_resolve
  POP_REG(lr)
  add sp, #4
  .cfi_adjust_cfa_offset -4
  bx ip

  // Force constant pool for ldr above
  .ltorg

  .cfi_endproc

3:
  .word _libglib_2_0_so_tramp_table - (2b + 8) + 872

/*
 * Copyright 2018-2025 Yury Gribov
 *
 * The MIT License (MIT)
 *
 * Use of this source code is governed by MIT license that can be
 * found in the LICENSE.txt file.
 */

  .globl g_checksum_copy
  .p2align 4
  .type g_checksum_copy, %function
#ifndef IMPLIB_EXPORT_SHIMS
  .hidden g_checksum_copy
#endif
g_checksum_copy:
  .cfi_startproc

1:
  // Load address
  // TODO: can we do this faster on newer ARMs?
  ldr ip, 3f
2:
  add ip, pc, ip
  ldr ip, [ip]

  cmp ip, #0

  // Fast path
  bxne ip

  // Slow path
  ldr ip, =219
  push {ip}
  .cfi_adjust_cfa_offset 4
  PUSH_REG(lr)
  bl _libglib_2_0_so_save_regs_and_resolve
  POP_REG(lr)
  add sp, #4
  .cfi_adjust_cfa_offset -4
  bx ip

  // Force constant pool for ldr above
  .ltorg

  .cfi_endproc

3:
  .word _libglib_2_0_so_tramp_table - (2b + 8) + 876

/*
 * Copyright 2018-2025 Yury Gribov
 *
 * The MIT License (MIT)
 *
 * Use of this source code is governed by MIT license that can be
 * found in the LICENSE.txt file.
 */

  .globl g_checksum_free
  .p2align 4
  .type g_checksum_free, %function
#ifndef IMPLIB_EXPORT_SHIMS
  .hidden g_checksum_free
#endif
g_checksum_free:
  .cfi_startproc

1:
  // Load address
  // TODO: can we do this faster on newer ARMs?
  ldr ip, 3f
2:
  add ip, pc, ip
  ldr ip, [ip]

  cmp ip, #0

  // Fast path
  bxne ip

  // Slow path
  ldr ip, =220
  push {ip}
  .cfi_adjust_cfa_offset 4
  PUSH_REG(lr)
  bl _libglib_2_0_so_save_regs_and_resolve
  POP_REG(lr)
  add sp, #4
  .cfi_adjust_cfa_offset -4
  bx ip

  // Force constant pool for ldr above
  .ltorg

  .cfi_endproc

3:
  .word _libglib_2_0_so_tramp_table - (2b + 8) + 880

/*
 * Copyright 2018-2025 Yury Gribov
 *
 * The MIT License (MIT)
 *
 * Use of this source code is governed by MIT license that can be
 * found in the LICENSE.txt file.
 */

  .globl g_checksum_get_digest
  .p2align 4
  .type g_checksum_get_digest, %function
#ifndef IMPLIB_EXPORT_SHIMS
  .hidden g_checksum_get_digest
#endif
g_checksum_get_digest:
  .cfi_startproc

1:
  // Load address
  // TODO: can we do this faster on newer ARMs?
  ldr ip, 3f
2:
  add ip, pc, ip
  ldr ip, [ip]

  cmp ip, #0

  // Fast path
  bxne ip

  // Slow path
  ldr ip, =221
  push {ip}
  .cfi_adjust_cfa_offset 4
  PUSH_REG(lr)
  bl _libglib_2_0_so_save_regs_and_resolve
  POP_REG(lr)
  add sp, #4
  .cfi_adjust_cfa_offset -4
  bx ip

  // Force constant pool for ldr above
  .ltorg

  .cfi_endproc

3:
  .word _libglib_2_0_so_tramp_table - (2b + 8) + 884

/*
 * Copyright 2018-2025 Yury Gribov
 *
 * The MIT License (MIT)
 *
 * Use of this source code is governed by MIT license that can be
 * found in the LICENSE.txt file.
 */

  .globl g_checksum_get_string
  .p2align 4
  .type g_checksum_get_string, %function
#ifndef IMPLIB_EXPORT_SHIMS
  .hidden g_checksum_get_string
#endif
g_checksum_get_string:
  .cfi_startproc

1:
  // Load address
  // TODO: can we do this faster on newer ARMs?
  ldr ip, 3f
2:
  add ip, pc, ip
  ldr ip, [ip]

  cmp ip, #0

  // Fast path
  bxne ip

  // Slow path
  ldr ip, =222
  push {ip}
  .cfi_adjust_cfa_offset 4
  PUSH_REG(lr)
  bl _libglib_2_0_so_save_regs_and_resolve
  POP_REG(lr)
  add sp, #4
  .cfi_adjust_cfa_offset -4
  bx ip

  // Force constant pool for ldr above
  .ltorg

  .cfi_endproc

3:
  .word _libglib_2_0_so_tramp_table - (2b + 8) + 888

/*
 * Copyright 2018-2025 Yury Gribov
 *
 * The MIT License (MIT)
 *
 * Use of this source code is governed by MIT license that can be
 * found in the LICENSE.txt file.
 */

  .globl g_checksum_new
  .p2align 4
  .type g_checksum_new, %function
#ifndef IMPLIB_EXPORT_SHIMS
  .hidden g_checksum_new
#endif
g_checksum_new:
  .cfi_startproc

1:
  // Load address
  // TODO: can we do this faster on newer ARMs?
  ldr ip, 3f
2:
  add ip, pc, ip
  ldr ip, [ip]

  cmp ip, #0

  // Fast path
  bxne ip

  // Slow path
  ldr ip, =223
  push {ip}
  .cfi_adjust_cfa_offset 4
  PUSH_REG(lr)
  bl _libglib_2_0_so_save_regs_and_resolve
  POP_REG(lr)
  add sp, #4
  .cfi_adjust_cfa_offset -4
  bx ip

  // Force constant pool for ldr above
  .ltorg

  .cfi_endproc

3:
  .word _libglib_2_0_so_tramp_table - (2b + 8) + 892

/*
 * Copyright 2018-2025 Yury Gribov
 *
 * The MIT License (MIT)
 *
 * Use of this source code is governed by MIT license that can be
 * found in the LICENSE.txt file.
 */

  .globl g_checksum_reset
  .p2align 4
  .type g_checksum_reset, %function
#ifndef IMPLIB_EXPORT_SHIMS
  .hidden g_checksum_reset
#endif
g_checksum_reset:
  .cfi_startproc

1:
  // Load address
  // TODO: can we do this faster on newer ARMs?
  ldr ip, 3f
2:
  add ip, pc, ip
  ldr ip, [ip]

  cmp ip, #0

  // Fast path
  bxne ip

  // Slow path
  ldr ip, =224
  push {ip}
  .cfi_adjust_cfa_offset 4
  PUSH_REG(lr)
  bl _libglib_2_0_so_save_regs_and_resolve
  POP_REG(lr)
  add sp, #4
  .cfi_adjust_cfa_offset -4
  bx ip

  // Force constant pool for ldr above
  .ltorg

  .cfi_endproc

3:
  .word _libglib_2_0_so_tramp_table - (2b + 8) + 896

/*
 * Copyright 2018-2025 Yury Gribov
 *
 * The MIT License (MIT)
 *
 * Use of this source code is governed by MIT license that can be
 * found in the LICENSE.txt file.
 */

  .globl g_checksum_type_get_length
  .p2align 4
  .type g_checksum_type_get_length, %function
#ifndef IMPLIB_EXPORT_SHIMS
  .hidden g_checksum_type_get_length
#endif
g_checksum_type_get_length:
  .cfi_startproc

1:
  // Load address
  // TODO: can we do this faster on newer ARMs?
  ldr ip, 3f
2:
  add ip, pc, ip
  ldr ip, [ip]

  cmp ip, #0

  // Fast path
  bxne ip

  // Slow path
  ldr ip, =225
  push {ip}
  .cfi_adjust_cfa_offset 4
  PUSH_REG(lr)
  bl _libglib_2_0_so_save_regs_and_resolve
  POP_REG(lr)
  add sp, #4
  .cfi_adjust_cfa_offset -4
  bx ip

  // Force constant pool for ldr above
  .ltorg

  .cfi_endproc

3:
  .word _libglib_2_0_so_tramp_table - (2b + 8) + 900

/*
 * Copyright 2018-2025 Yury Gribov
 *
 * The MIT License (MIT)
 *
 * Use of this source code is governed by MIT license that can be
 * found in the LICENSE.txt file.
 */

  .globl g_checksum_update
  .p2align 4
  .type g_checksum_update, %function
#ifndef IMPLIB_EXPORT_SHIMS
  .hidden g_checksum_update
#endif
g_checksum_update:
  .cfi_startproc

1:
  // Load address
  // TODO: can we do this faster on newer ARMs?
  ldr ip, 3f
2:
  add ip, pc, ip
  ldr ip, [ip]

  cmp ip, #0

  // Fast path
  bxne ip

  // Slow path
  ldr ip, =226
  push {ip}
  .cfi_adjust_cfa_offset 4
  PUSH_REG(lr)
  bl _libglib_2_0_so_save_regs_and_resolve
  POP_REG(lr)
  add sp, #4
  .cfi_adjust_cfa_offset -4
  bx ip

  // Force constant pool for ldr above
  .ltorg

  .cfi_endproc

3:
  .word _libglib_2_0_so_tramp_table - (2b + 8) + 904

/*
 * Copyright 2018-2025 Yury Gribov
 *
 * The MIT License (MIT)
 *
 * Use of this source code is governed by MIT license that can be
 * found in the LICENSE.txt file.
 */

  .globl g_child_watch_add
  .p2align 4
  .type g_child_watch_add, %function
#ifndef IMPLIB_EXPORT_SHIMS
  .hidden g_child_watch_add
#endif
g_child_watch_add:
  .cfi_startproc

1:
  // Load address
  // TODO: can we do this faster on newer ARMs?
  ldr ip, 3f
2:
  add ip, pc, ip
  ldr ip, [ip]

  cmp ip, #0

  // Fast path
  bxne ip

  // Slow path
  ldr ip, =227
  push {ip}
  .cfi_adjust_cfa_offset 4
  PUSH_REG(lr)
  bl _libglib_2_0_so_save_regs_and_resolve
  POP_REG(lr)
  add sp, #4
  .cfi_adjust_cfa_offset -4
  bx ip

  // Force constant pool for ldr above
  .ltorg

  .cfi_endproc

3:
  .word _libglib_2_0_so_tramp_table - (2b + 8) + 908

/*
 * Copyright 2018-2025 Yury Gribov
 *
 * The MIT License (MIT)
 *
 * Use of this source code is governed by MIT license that can be
 * found in the LICENSE.txt file.
 */

  .globl g_child_watch_add_full
  .p2align 4
  .type g_child_watch_add_full, %function
#ifndef IMPLIB_EXPORT_SHIMS
  .hidden g_child_watch_add_full
#endif
g_child_watch_add_full:
  .cfi_startproc

1:
  // Load address
  // TODO: can we do this faster on newer ARMs?
  ldr ip, 3f
2:
  add ip, pc, ip
  ldr ip, [ip]

  cmp ip, #0

  // Fast path
  bxne ip

  // Slow path
  ldr ip, =228
  push {ip}
  .cfi_adjust_cfa_offset 4
  PUSH_REG(lr)
  bl _libglib_2_0_so_save_regs_and_resolve
  POP_REG(lr)
  add sp, #4
  .cfi_adjust_cfa_offset -4
  bx ip

  // Force constant pool for ldr above
  .ltorg

  .cfi_endproc

3:
  .word _libglib_2_0_so_tramp_table - (2b + 8) + 912

/*
 * Copyright 2018-2025 Yury Gribov
 *
 * The MIT License (MIT)
 *
 * Use of this source code is governed by MIT license that can be
 * found in the LICENSE.txt file.
 */

  .globl g_child_watch_source_new
  .p2align 4
  .type g_child_watch_source_new, %function
#ifndef IMPLIB_EXPORT_SHIMS
  .hidden g_child_watch_source_new
#endif
g_child_watch_source_new:
  .cfi_startproc

1:
  // Load address
  // TODO: can we do this faster on newer ARMs?
  ldr ip, 3f
2:
  add ip, pc, ip
  ldr ip, [ip]

  cmp ip, #0

  // Fast path
  bxne ip

  // Slow path
  ldr ip, =229
  push {ip}
  .cfi_adjust_cfa_offset 4
  PUSH_REG(lr)
  bl _libglib_2_0_so_save_regs_and_resolve
  POP_REG(lr)
  add sp, #4
  .cfi_adjust_cfa_offset -4
  bx ip

  // Force constant pool for ldr above
  .ltorg

  .cfi_endproc

3:
  .word _libglib_2_0_so_tramp_table - (2b + 8) + 916

/*
 * Copyright 2018-2025 Yury Gribov
 *
 * The MIT License (MIT)
 *
 * Use of this source code is governed by MIT license that can be
 * found in the LICENSE.txt file.
 */

  .globl g_chmod
  .p2align 4
  .type g_chmod, %function
#ifndef IMPLIB_EXPORT_SHIMS
  .hidden g_chmod
#endif
g_chmod:
  .cfi_startproc

1:
  // Load address
  // TODO: can we do this faster on newer ARMs?
  ldr ip, 3f
2:
  add ip, pc, ip
  ldr ip, [ip]

  cmp ip, #0

  // Fast path
  bxne ip

  // Slow path
  ldr ip, =230
  push {ip}
  .cfi_adjust_cfa_offset 4
  PUSH_REG(lr)
  bl _libglib_2_0_so_save_regs_and_resolve
  POP_REG(lr)
  add sp, #4
  .cfi_adjust_cfa_offset -4
  bx ip

  // Force constant pool for ldr above
  .ltorg

  .cfi_endproc

3:
  .word _libglib_2_0_so_tramp_table - (2b + 8) + 920

/*
 * Copyright 2018-2025 Yury Gribov
 *
 * The MIT License (MIT)
 *
 * Use of this source code is governed by MIT license that can be
 * found in the LICENSE.txt file.
 */

  .globl g_clear_error
  .p2align 4
  .type g_clear_error, %function
#ifndef IMPLIB_EXPORT_SHIMS
  .hidden g_clear_error
#endif
g_clear_error:
  .cfi_startproc

1:
  // Load address
  // TODO: can we do this faster on newer ARMs?
  ldr ip, 3f
2:
  add ip, pc, ip
  ldr ip, [ip]

  cmp ip, #0

  // Fast path
  bxne ip

  // Slow path
  ldr ip, =231
  push {ip}
  .cfi_adjust_cfa_offset 4
  PUSH_REG(lr)
  bl _libglib_2_0_so_save_regs_and_resolve
  POP_REG(lr)
  add sp, #4
  .cfi_adjust_cfa_offset -4
  bx ip

  // Force constant pool for ldr above
  .ltorg

  .cfi_endproc

3:
  .word _libglib_2_0_so_tramp_table - (2b + 8) + 924

/*
 * Copyright 2018-2025 Yury Gribov
 *
 * The MIT License (MIT)
 *
 * Use of this source code is governed by MIT license that can be
 * found in the LICENSE.txt file.
 */

  .globl g_clear_handle_id
  .p2align 4
  .type g_clear_handle_id, %function
#ifndef IMPLIB_EXPORT_SHIMS
  .hidden g_clear_handle_id
#endif
g_clear_handle_id:
  .cfi_startproc

1:
  // Load address
  // TODO: can we do this faster on newer ARMs?
  ldr ip, 3f
2:
  add ip, pc, ip
  ldr ip, [ip]

  cmp ip, #0

  // Fast path
  bxne ip

  // Slow path
  ldr ip, =232
  push {ip}
  .cfi_adjust_cfa_offset 4
  PUSH_REG(lr)
  bl _libglib_2_0_so_save_regs_and_resolve
  POP_REG(lr)
  add sp, #4
  .cfi_adjust_cfa_offset -4
  bx ip

  // Force constant pool for ldr above
  .ltorg

  .cfi_endproc

3:
  .word _libglib_2_0_so_tramp_table - (2b + 8) + 928

/*
 * Copyright 2018-2025 Yury Gribov
 *
 * The MIT License (MIT)
 *
 * Use of this source code is governed by MIT license that can be
 * found in the LICENSE.txt file.
 */

  .globl g_clear_list
  .p2align 4
  .type g_clear_list, %function
#ifndef IMPLIB_EXPORT_SHIMS
  .hidden g_clear_list
#endif
g_clear_list:
  .cfi_startproc

1:
  // Load address
  // TODO: can we do this faster on newer ARMs?
  ldr ip, 3f
2:
  add ip, pc, ip
  ldr ip, [ip]

  cmp ip, #0

  // Fast path
  bxne ip

  // Slow path
  ldr ip, =233
  push {ip}
  .cfi_adjust_cfa_offset 4
  PUSH_REG(lr)
  bl _libglib_2_0_so_save_regs_and_resolve
  POP_REG(lr)
  add sp, #4
  .cfi_adjust_cfa_offset -4
  bx ip

  // Force constant pool for ldr above
  .ltorg

  .cfi_endproc

3:
  .word _libglib_2_0_so_tramp_table - (2b + 8) + 932

/*
 * Copyright 2018-2025 Yury Gribov
 *
 * The MIT License (MIT)
 *
 * Use of this source code is governed by MIT license that can be
 * found in the LICENSE.txt file.
 */

  .globl g_clear_pointer
  .p2align 4
  .type g_clear_pointer, %function
#ifndef IMPLIB_EXPORT_SHIMS
  .hidden g_clear_pointer
#endif
g_clear_pointer:
  .cfi_startproc

1:
  // Load address
  // TODO: can we do this faster on newer ARMs?
  ldr ip, 3f
2:
  add ip, pc, ip
  ldr ip, [ip]

  cmp ip, #0

  // Fast path
  bxne ip

  // Slow path
  ldr ip, =234
  push {ip}
  .cfi_adjust_cfa_offset 4
  PUSH_REG(lr)
  bl _libglib_2_0_so_save_regs_and_resolve
  POP_REG(lr)
  add sp, #4
  .cfi_adjust_cfa_offset -4
  bx ip

  // Force constant pool for ldr above
  .ltorg

  .cfi_endproc

3:
  .word _libglib_2_0_so_tramp_table - (2b + 8) + 936

/*
 * Copyright 2018-2025 Yury Gribov
 *
 * The MIT License (MIT)
 *
 * Use of this source code is governed by MIT license that can be
 * found in the LICENSE.txt file.
 */

  .globl g_clear_slist
  .p2align 4
  .type g_clear_slist, %function
#ifndef IMPLIB_EXPORT_SHIMS
  .hidden g_clear_slist
#endif
g_clear_slist:
  .cfi_startproc

1:
  // Load address
  // TODO: can we do this faster on newer ARMs?
  ldr ip, 3f
2:
  add ip, pc, ip
  ldr ip, [ip]

  cmp ip, #0

  // Fast path
  bxne ip

  // Slow path
  ldr ip, =235
  push {ip}
  .cfi_adjust_cfa_offset 4
  PUSH_REG(lr)
  bl _libglib_2_0_so_save_regs_and_resolve
  POP_REG(lr)
  add sp, #4
  .cfi_adjust_cfa_offset -4
  bx ip

  // Force constant pool for ldr above
  .ltorg

  .cfi_endproc

3:
  .word _libglib_2_0_so_tramp_table - (2b + 8) + 940

/*
 * Copyright 2018-2025 Yury Gribov
 *
 * The MIT License (MIT)
 *
 * Use of this source code is governed by MIT license that can be
 * found in the LICENSE.txt file.
 */

  .globl g_close
  .p2align 4
  .type g_close, %function
#ifndef IMPLIB_EXPORT_SHIMS
  .hidden g_close
#endif
g_close:
  .cfi_startproc

1:
  // Load address
  // TODO: can we do this faster on newer ARMs?
  ldr ip, 3f
2:
  add ip, pc, ip
  ldr ip, [ip]

  cmp ip, #0

  // Fast path
  bxne ip

  // Slow path
  ldr ip, =236
  push {ip}
  .cfi_adjust_cfa_offset 4
  PUSH_REG(lr)
  bl _libglib_2_0_so_save_regs_and_resolve
  POP_REG(lr)
  add sp, #4
  .cfi_adjust_cfa_offset -4
  bx ip

  // Force constant pool for ldr above
  .ltorg

  .cfi_endproc

3:
  .word _libglib_2_0_so_tramp_table - (2b + 8) + 944

/*
 * Copyright 2018-2025 Yury Gribov
 *
 * The MIT License (MIT)
 *
 * Use of this source code is governed by MIT license that can be
 * found in the LICENSE.txt file.
 */

  .globl g_closefrom
  .p2align 4
  .type g_closefrom, %function
#ifndef IMPLIB_EXPORT_SHIMS
  .hidden g_closefrom
#endif
g_closefrom:
  .cfi_startproc

1:
  // Load address
  // TODO: can we do this faster on newer ARMs?
  ldr ip, 3f
2:
  add ip, pc, ip
  ldr ip, [ip]

  cmp ip, #0

  // Fast path
  bxne ip

  // Slow path
  ldr ip, =237
  push {ip}
  .cfi_adjust_cfa_offset 4
  PUSH_REG(lr)
  bl _libglib_2_0_so_save_regs_and_resolve
  POP_REG(lr)
  add sp, #4
  .cfi_adjust_cfa_offset -4
  bx ip

  // Force constant pool for ldr above
  .ltorg

  .cfi_endproc

3:
  .word _libglib_2_0_so_tramp_table - (2b + 8) + 948

/*
 * Copyright 2018-2025 Yury Gribov
 *
 * The MIT License (MIT)
 *
 * Use of this source code is governed by MIT license that can be
 * found in the LICENSE.txt file.
 */

  .globl g_completion_add_items
  .p2align 4
  .type g_completion_add_items, %function
#ifndef IMPLIB_EXPORT_SHIMS
  .hidden g_completion_add_items
#endif
g_completion_add_items:
  .cfi_startproc

1:
  // Load address
  // TODO: can we do this faster on newer ARMs?
  ldr ip, 3f
2:
  add ip, pc, ip
  ldr ip, [ip]

  cmp ip, #0

  // Fast path
  bxne ip

  // Slow path
  ldr ip, =238
  push {ip}
  .cfi_adjust_cfa_offset 4
  PUSH_REG(lr)
  bl _libglib_2_0_so_save_regs_and_resolve
  POP_REG(lr)
  add sp, #4
  .cfi_adjust_cfa_offset -4
  bx ip

  // Force constant pool for ldr above
  .ltorg

  .cfi_endproc

3:
  .word _libglib_2_0_so_tramp_table - (2b + 8) + 952

/*
 * Copyright 2018-2025 Yury Gribov
 *
 * The MIT License (MIT)
 *
 * Use of this source code is governed by MIT license that can be
 * found in the LICENSE.txt file.
 */

  .globl g_completion_clear_items
  .p2align 4
  .type g_completion_clear_items, %function
#ifndef IMPLIB_EXPORT_SHIMS
  .hidden g_completion_clear_items
#endif
g_completion_clear_items:
  .cfi_startproc

1:
  // Load address
  // TODO: can we do this faster on newer ARMs?
  ldr ip, 3f
2:
  add ip, pc, ip
  ldr ip, [ip]

  cmp ip, #0

  // Fast path
  bxne ip

  // Slow path
  ldr ip, =239
  push {ip}
  .cfi_adjust_cfa_offset 4
  PUSH_REG(lr)
  bl _libglib_2_0_so_save_regs_and_resolve
  POP_REG(lr)
  add sp, #4
  .cfi_adjust_cfa_offset -4
  bx ip

  // Force constant pool for ldr above
  .ltorg

  .cfi_endproc

3:
  .word _libglib_2_0_so_tramp_table - (2b + 8) + 956

/*
 * Copyright 2018-2025 Yury Gribov
 *
 * The MIT License (MIT)
 *
 * Use of this source code is governed by MIT license that can be
 * found in the LICENSE.txt file.
 */

  .globl g_completion_complete
  .p2align 4
  .type g_completion_complete, %function
#ifndef IMPLIB_EXPORT_SHIMS
  .hidden g_completion_complete
#endif
g_completion_complete:
  .cfi_startproc

1:
  // Load address
  // TODO: can we do this faster on newer ARMs?
  ldr ip, 3f
2:
  add ip, pc, ip
  ldr ip, [ip]

  cmp ip, #0

  // Fast path
  bxne ip

  // Slow path
  ldr ip, =240
  push {ip}
  .cfi_adjust_cfa_offset 4
  PUSH_REG(lr)
  bl _libglib_2_0_so_save_regs_and_resolve
  POP_REG(lr)
  add sp, #4
  .cfi_adjust_cfa_offset -4
  bx ip

  // Force constant pool for ldr above
  .ltorg

  .cfi_endproc

3:
  .word _libglib_2_0_so_tramp_table - (2b + 8) + 960

/*
 * Copyright 2018-2025 Yury Gribov
 *
 * The MIT License (MIT)
 *
 * Use of this source code is governed by MIT license that can be
 * found in the LICENSE.txt file.
 */

  .globl g_completion_complete_utf8
  .p2align 4
  .type g_completion_complete_utf8, %function
#ifndef IMPLIB_EXPORT_SHIMS
  .hidden g_completion_complete_utf8
#endif
g_completion_complete_utf8:
  .cfi_startproc

1:
  // Load address
  // TODO: can we do this faster on newer ARMs?
  ldr ip, 3f
2:
  add ip, pc, ip
  ldr ip, [ip]

  cmp ip, #0

  // Fast path
  bxne ip

  // Slow path
  ldr ip, =241
  push {ip}
  .cfi_adjust_cfa_offset 4
  PUSH_REG(lr)
  bl _libglib_2_0_so_save_regs_and_resolve
  POP_REG(lr)
  add sp, #4
  .cfi_adjust_cfa_offset -4
  bx ip

  // Force constant pool for ldr above
  .ltorg

  .cfi_endproc

3:
  .word _libglib_2_0_so_tramp_table - (2b + 8) + 964

/*
 * Copyright 2018-2025 Yury Gribov
 *
 * The MIT License (MIT)
 *
 * Use of this source code is governed by MIT license that can be
 * found in the LICENSE.txt file.
 */

  .globl g_completion_free
  .p2align 4
  .type g_completion_free, %function
#ifndef IMPLIB_EXPORT_SHIMS
  .hidden g_completion_free
#endif
g_completion_free:
  .cfi_startproc

1:
  // Load address
  // TODO: can we do this faster on newer ARMs?
  ldr ip, 3f
2:
  add ip, pc, ip
  ldr ip, [ip]

  cmp ip, #0

  // Fast path
  bxne ip

  // Slow path
  ldr ip, =242
  push {ip}
  .cfi_adjust_cfa_offset 4
  PUSH_REG(lr)
  bl _libglib_2_0_so_save_regs_and_resolve
  POP_REG(lr)
  add sp, #4
  .cfi_adjust_cfa_offset -4
  bx ip

  // Force constant pool for ldr above
  .ltorg

  .cfi_endproc

3:
  .word _libglib_2_0_so_tramp_table - (2b + 8) + 968

/*
 * Copyright 2018-2025 Yury Gribov
 *
 * The MIT License (MIT)
 *
 * Use of this source code is governed by MIT license that can be
 * found in the LICENSE.txt file.
 */

  .globl g_completion_new
  .p2align 4
  .type g_completion_new, %function
#ifndef IMPLIB_EXPORT_SHIMS
  .hidden g_completion_new
#endif
g_completion_new:
  .cfi_startproc

1:
  // Load address
  // TODO: can we do this faster on newer ARMs?
  ldr ip, 3f
2:
  add ip, pc, ip
  ldr ip, [ip]

  cmp ip, #0

  // Fast path
  bxne ip

  // Slow path
  ldr ip, =243
  push {ip}
  .cfi_adjust_cfa_offset 4
  PUSH_REG(lr)
  bl _libglib_2_0_so_save_regs_and_resolve
  POP_REG(lr)
  add sp, #4
  .cfi_adjust_cfa_offset -4
  bx ip

  // Force constant pool for ldr above
  .ltorg

  .cfi_endproc

3:
  .word _libglib_2_0_so_tramp_table - (2b + 8) + 972

/*
 * Copyright 2018-2025 Yury Gribov
 *
 * The MIT License (MIT)
 *
 * Use of this source code is governed by MIT license that can be
 * found in the LICENSE.txt file.
 */

  .globl g_completion_remove_items
  .p2align 4
  .type g_completion_remove_items, %function
#ifndef IMPLIB_EXPORT_SHIMS
  .hidden g_completion_remove_items
#endif
g_completion_remove_items:
  .cfi_startproc

1:
  // Load address
  // TODO: can we do this faster on newer ARMs?
  ldr ip, 3f
2:
  add ip, pc, ip
  ldr ip, [ip]

  cmp ip, #0

  // Fast path
  bxne ip

  // Slow path
  ldr ip, =244
  push {ip}
  .cfi_adjust_cfa_offset 4
  PUSH_REG(lr)
  bl _libglib_2_0_so_save_regs_and_resolve
  POP_REG(lr)
  add sp, #4
  .cfi_adjust_cfa_offset -4
  bx ip

  // Force constant pool for ldr above
  .ltorg

  .cfi_endproc

3:
  .word _libglib_2_0_so_tramp_table - (2b + 8) + 976

/*
 * Copyright 2018-2025 Yury Gribov
 *
 * The MIT License (MIT)
 *
 * Use of this source code is governed by MIT license that can be
 * found in the LICENSE.txt file.
 */

  .globl g_completion_set_compare
  .p2align 4
  .type g_completion_set_compare, %function
#ifndef IMPLIB_EXPORT_SHIMS
  .hidden g_completion_set_compare
#endif
g_completion_set_compare:
  .cfi_startproc

1:
  // Load address
  // TODO: can we do this faster on newer ARMs?
  ldr ip, 3f
2:
  add ip, pc, ip
  ldr ip, [ip]

  cmp ip, #0

  // Fast path
  bxne ip

  // Slow path
  ldr ip, =245
  push {ip}
  .cfi_adjust_cfa_offset 4
  PUSH_REG(lr)
  bl _libglib_2_0_so_save_regs_and_resolve
  POP_REG(lr)
  add sp, #4
  .cfi_adjust_cfa_offset -4
  bx ip

  // Force constant pool for ldr above
  .ltorg

  .cfi_endproc

3:
  .word _libglib_2_0_so_tramp_table - (2b + 8) + 980

/*
 * Copyright 2018-2025 Yury Gribov
 *
 * The MIT License (MIT)
 *
 * Use of this source code is governed by MIT license that can be
 * found in the LICENSE.txt file.
 */

  .globl g_compute_checksum_for_bytes
  .p2align 4
  .type g_compute_checksum_for_bytes, %function
#ifndef IMPLIB_EXPORT_SHIMS
  .hidden g_compute_checksum_for_bytes
#endif
g_compute_checksum_for_bytes:
  .cfi_startproc

1:
  // Load address
  // TODO: can we do this faster on newer ARMs?
  ldr ip, 3f
2:
  add ip, pc, ip
  ldr ip, [ip]

  cmp ip, #0

  // Fast path
  bxne ip

  // Slow path
  ldr ip, =246
  push {ip}
  .cfi_adjust_cfa_offset 4
  PUSH_REG(lr)
  bl _libglib_2_0_so_save_regs_and_resolve
  POP_REG(lr)
  add sp, #4
  .cfi_adjust_cfa_offset -4
  bx ip

  // Force constant pool for ldr above
  .ltorg

  .cfi_endproc

3:
  .word _libglib_2_0_so_tramp_table - (2b + 8) + 984

/*
 * Copyright 2018-2025 Yury Gribov
 *
 * The MIT License (MIT)
 *
 * Use of this source code is governed by MIT license that can be
 * found in the LICENSE.txt file.
 */

  .globl g_compute_checksum_for_data
  .p2align 4
  .type g_compute_checksum_for_data, %function
#ifndef IMPLIB_EXPORT_SHIMS
  .hidden g_compute_checksum_for_data
#endif
g_compute_checksum_for_data:
  .cfi_startproc

1:
  // Load address
  // TODO: can we do this faster on newer ARMs?
  ldr ip, 3f
2:
  add ip, pc, ip
  ldr ip, [ip]

  cmp ip, #0

  // Fast path
  bxne ip

  // Slow path
  ldr ip, =247
  push {ip}
  .cfi_adjust_cfa_offset 4
  PUSH_REG(lr)
  bl _libglib_2_0_so_save_regs_and_resolve
  POP_REG(lr)
  add sp, #4
  .cfi_adjust_cfa_offset -4
  bx ip

  // Force constant pool for ldr above
  .ltorg

  .cfi_endproc

3:
  .word _libglib_2_0_so_tramp_table - (2b + 8) + 988

/*
 * Copyright 2018-2025 Yury Gribov
 *
 * The MIT License (MIT)
 *
 * Use of this source code is governed by MIT license that can be
 * found in the LICENSE.txt file.
 */

  .globl g_compute_checksum_for_string
  .p2align 4
  .type g_compute_checksum_for_string, %function
#ifndef IMPLIB_EXPORT_SHIMS
  .hidden g_compute_checksum_for_string
#endif
g_compute_checksum_for_string:
  .cfi_startproc

1:
  // Load address
  // TODO: can we do this faster on newer ARMs?
  ldr ip, 3f
2:
  add ip, pc, ip
  ldr ip, [ip]

  cmp ip, #0

  // Fast path
  bxne ip

  // Slow path
  ldr ip, =248
  push {ip}
  .cfi_adjust_cfa_offset 4
  PUSH_REG(lr)
  bl _libglib_2_0_so_save_regs_and_resolve
  POP_REG(lr)
  add sp, #4
  .cfi_adjust_cfa_offset -4
  bx ip

  // Force constant pool for ldr above
  .ltorg

  .cfi_endproc

3:
  .word _libglib_2_0_so_tramp_table - (2b + 8) + 992

/*
 * Copyright 2018-2025 Yury Gribov
 *
 * The MIT License (MIT)
 *
 * Use of this source code is governed by MIT license that can be
 * found in the LICENSE.txt file.
 */

  .globl g_compute_hmac_for_bytes
  .p2align 4
  .type g_compute_hmac_for_bytes, %function
#ifndef IMPLIB_EXPORT_SHIMS
  .hidden g_compute_hmac_for_bytes
#endif
g_compute_hmac_for_bytes:
  .cfi_startproc

1:
  // Load address
  // TODO: can we do this faster on newer ARMs?
  ldr ip, 3f
2:
  add ip, pc, ip
  ldr ip, [ip]

  cmp ip, #0

  // Fast path
  bxne ip

  // Slow path
  ldr ip, =249
  push {ip}
  .cfi_adjust_cfa_offset 4
  PUSH_REG(lr)
  bl _libglib_2_0_so_save_regs_and_resolve
  POP_REG(lr)
  add sp, #4
  .cfi_adjust_cfa_offset -4
  bx ip

  // Force constant pool for ldr above
  .ltorg

  .cfi_endproc

3:
  .word _libglib_2_0_so_tramp_table - (2b + 8) + 996

/*
 * Copyright 2018-2025 Yury Gribov
 *
 * The MIT License (MIT)
 *
 * Use of this source code is governed by MIT license that can be
 * found in the LICENSE.txt file.
 */

  .globl g_compute_hmac_for_data
  .p2align 4
  .type g_compute_hmac_for_data, %function
#ifndef IMPLIB_EXPORT_SHIMS
  .hidden g_compute_hmac_for_data
#endif
g_compute_hmac_for_data:
  .cfi_startproc

1:
  // Load address
  // TODO: can we do this faster on newer ARMs?
  ldr ip, 3f
2:
  add ip, pc, ip
  ldr ip, [ip]

  cmp ip, #0

  // Fast path
  bxne ip

  // Slow path
  ldr ip, =250
  push {ip}
  .cfi_adjust_cfa_offset 4
  PUSH_REG(lr)
  bl _libglib_2_0_so_save_regs_and_resolve
  POP_REG(lr)
  add sp, #4
  .cfi_adjust_cfa_offset -4
  bx ip

  // Force constant pool for ldr above
  .ltorg

  .cfi_endproc

3:
  .word _libglib_2_0_so_tramp_table - (2b + 8) + 1000

/*
 * Copyright 2018-2025 Yury Gribov
 *
 * The MIT License (MIT)
 *
 * Use of this source code is governed by MIT license that can be
 * found in the LICENSE.txt file.
 */

  .globl g_compute_hmac_for_string
  .p2align 4
  .type g_compute_hmac_for_string, %function
#ifndef IMPLIB_EXPORT_SHIMS
  .hidden g_compute_hmac_for_string
#endif
g_compute_hmac_for_string:
  .cfi_startproc

1:
  // Load address
  // TODO: can we do this faster on newer ARMs?
  ldr ip, 3f
2:
  add ip, pc, ip
  ldr ip, [ip]

  cmp ip, #0

  // Fast path
  bxne ip

  // Slow path
  ldr ip, =251
  push {ip}
  .cfi_adjust_cfa_offset 4
  PUSH_REG(lr)
  bl _libglib_2_0_so_save_regs_and_resolve
  POP_REG(lr)
  add sp, #4
  .cfi_adjust_cfa_offset -4
  bx ip

  // Force constant pool for ldr above
  .ltorg

  .cfi_endproc

3:
  .word _libglib_2_0_so_tramp_table - (2b + 8) + 1004

/*
 * Copyright 2018-2025 Yury Gribov
 *
 * The MIT License (MIT)
 *
 * Use of this source code is governed by MIT license that can be
 * found in the LICENSE.txt file.
 */

  .globl g_cond_broadcast
  .p2align 4
  .type g_cond_broadcast, %function
#ifndef IMPLIB_EXPORT_SHIMS
  .hidden g_cond_broadcast
#endif
g_cond_broadcast:
  .cfi_startproc

1:
  // Load address
  // TODO: can we do this faster on newer ARMs?
  ldr ip, 3f
2:
  add ip, pc, ip
  ldr ip, [ip]

  cmp ip, #0

  // Fast path
  bxne ip

  // Slow path
  ldr ip, =252
  push {ip}
  .cfi_adjust_cfa_offset 4
  PUSH_REG(lr)
  bl _libglib_2_0_so_save_regs_and_resolve
  POP_REG(lr)
  add sp, #4
  .cfi_adjust_cfa_offset -4
  bx ip

  // Force constant pool for ldr above
  .ltorg

  .cfi_endproc

3:
  .word _libglib_2_0_so_tramp_table - (2b + 8) + 1008

/*
 * Copyright 2018-2025 Yury Gribov
 *
 * The MIT License (MIT)
 *
 * Use of this source code is governed by MIT license that can be
 * found in the LICENSE.txt file.
 */

  .globl g_cond_clear
  .p2align 4
  .type g_cond_clear, %function
#ifndef IMPLIB_EXPORT_SHIMS
  .hidden g_cond_clear
#endif
g_cond_clear:
  .cfi_startproc

1:
  // Load address
  // TODO: can we do this faster on newer ARMs?
  ldr ip, 3f
2:
  add ip, pc, ip
  ldr ip, [ip]

  cmp ip, #0

  // Fast path
  bxne ip

  // Slow path
  ldr ip, =253
  push {ip}
  .cfi_adjust_cfa_offset 4
  PUSH_REG(lr)
  bl _libglib_2_0_so_save_regs_and_resolve
  POP_REG(lr)
  add sp, #4
  .cfi_adjust_cfa_offset -4
  bx ip

  // Force constant pool for ldr above
  .ltorg

  .cfi_endproc

3:
  .word _libglib_2_0_so_tramp_table - (2b + 8) + 1012

/*
 * Copyright 2018-2025 Yury Gribov
 *
 * The MIT License (MIT)
 *
 * Use of this source code is governed by MIT license that can be
 * found in the LICENSE.txt file.
 */

  .globl g_cond_free
  .p2align 4
  .type g_cond_free, %function
#ifndef IMPLIB_EXPORT_SHIMS
  .hidden g_cond_free
#endif
g_cond_free:
  .cfi_startproc

1:
  // Load address
  // TODO: can we do this faster on newer ARMs?
  ldr ip, 3f
2:
  add ip, pc, ip
  ldr ip, [ip]

  cmp ip, #0

  // Fast path
  bxne ip

  // Slow path
  ldr ip, =254
  push {ip}
  .cfi_adjust_cfa_offset 4
  PUSH_REG(lr)
  bl _libglib_2_0_so_save_regs_and_resolve
  POP_REG(lr)
  add sp, #4
  .cfi_adjust_cfa_offset -4
  bx ip

  // Force constant pool for ldr above
  .ltorg

  .cfi_endproc

3:
  .word _libglib_2_0_so_tramp_table - (2b + 8) + 1016

/*
 * Copyright 2018-2025 Yury Gribov
 *
 * The MIT License (MIT)
 *
 * Use of this source code is governed by MIT license that can be
 * found in the LICENSE.txt file.
 */

  .globl g_cond_init
  .p2align 4
  .type g_cond_init, %function
#ifndef IMPLIB_EXPORT_SHIMS
  .hidden g_cond_init
#endif
g_cond_init:
  .cfi_startproc

1:
  // Load address
  // TODO: can we do this faster on newer ARMs?
  ldr ip, 3f
2:
  add ip, pc, ip
  ldr ip, [ip]

  cmp ip, #0

  // Fast path
  bxne ip

  // Slow path
  ldr ip, =255
  push {ip}
  .cfi_adjust_cfa_offset 4
  PUSH_REG(lr)
  bl _libglib_2_0_so_save_regs_and_resolve
  POP_REG(lr)
  add sp, #4
  .cfi_adjust_cfa_offset -4
  bx ip

  // Force constant pool for ldr above
  .ltorg

  .cfi_endproc

3:
  .word _libglib_2_0_so_tramp_table - (2b + 8) + 1020

/*
 * Copyright 2018-2025 Yury Gribov
 *
 * The MIT License (MIT)
 *
 * Use of this source code is governed by MIT license that can be
 * found in the LICENSE.txt file.
 */

  .globl g_cond_new
  .p2align 4
  .type g_cond_new, %function
#ifndef IMPLIB_EXPORT_SHIMS
  .hidden g_cond_new
#endif
g_cond_new:
  .cfi_startproc

1:
  // Load address
  // TODO: can we do this faster on newer ARMs?
  ldr ip, 3f
2:
  add ip, pc, ip
  ldr ip, [ip]

  cmp ip, #0

  // Fast path
  bxne ip

  // Slow path
  ldr ip, =256
  push {ip}
  .cfi_adjust_cfa_offset 4
  PUSH_REG(lr)
  bl _libglib_2_0_so_save_regs_and_resolve
  POP_REG(lr)
  add sp, #4
  .cfi_adjust_cfa_offset -4
  bx ip

  // Force constant pool for ldr above
  .ltorg

  .cfi_endproc

3:
  .word _libglib_2_0_so_tramp_table - (2b + 8) + 1024

/*
 * Copyright 2018-2025 Yury Gribov
 *
 * The MIT License (MIT)
 *
 * Use of this source code is governed by MIT license that can be
 * found in the LICENSE.txt file.
 */

  .globl g_cond_signal
  .p2align 4
  .type g_cond_signal, %function
#ifndef IMPLIB_EXPORT_SHIMS
  .hidden g_cond_signal
#endif
g_cond_signal:
  .cfi_startproc

1:
  // Load address
  // TODO: can we do this faster on newer ARMs?
  ldr ip, 3f
2:
  add ip, pc, ip
  ldr ip, [ip]

  cmp ip, #0

  // Fast path
  bxne ip

  // Slow path
  ldr ip, =257
  push {ip}
  .cfi_adjust_cfa_offset 4
  PUSH_REG(lr)
  bl _libglib_2_0_so_save_regs_and_resolve
  POP_REG(lr)
  add sp, #4
  .cfi_adjust_cfa_offset -4
  bx ip

  // Force constant pool for ldr above
  .ltorg

  .cfi_endproc

3:
  .word _libglib_2_0_so_tramp_table - (2b + 8) + 1028

/*
 * Copyright 2018-2025 Yury Gribov
 *
 * The MIT License (MIT)
 *
 * Use of this source code is governed by MIT license that can be
 * found in the LICENSE.txt file.
 */

  .globl g_cond_timed_wait
  .p2align 4
  .type g_cond_timed_wait, %function
#ifndef IMPLIB_EXPORT_SHIMS
  .hidden g_cond_timed_wait
#endif
g_cond_timed_wait:
  .cfi_startproc

1:
  // Load address
  // TODO: can we do this faster on newer ARMs?
  ldr ip, 3f
2:
  add ip, pc, ip
  ldr ip, [ip]

  cmp ip, #0

  // Fast path
  bxne ip

  // Slow path
  ldr ip, =258
  push {ip}
  .cfi_adjust_cfa_offset 4
  PUSH_REG(lr)
  bl _libglib_2_0_so_save_regs_and_resolve
  POP_REG(lr)
  add sp, #4
  .cfi_adjust_cfa_offset -4
  bx ip

  // Force constant pool for ldr above
  .ltorg

  .cfi_endproc

3:
  .word _libglib_2_0_so_tramp_table - (2b + 8) + 1032

/*
 * Copyright 2018-2025 Yury Gribov
 *
 * The MIT License (MIT)
 *
 * Use of this source code is governed by MIT license that can be
 * found in the LICENSE.txt file.
 */

  .globl g_cond_wait
  .p2align 4
  .type g_cond_wait, %function
#ifndef IMPLIB_EXPORT_SHIMS
  .hidden g_cond_wait
#endif
g_cond_wait:
  .cfi_startproc

1:
  // Load address
  // TODO: can we do this faster on newer ARMs?
  ldr ip, 3f
2:
  add ip, pc, ip
  ldr ip, [ip]

  cmp ip, #0

  // Fast path
  bxne ip

  // Slow path
  ldr ip, =259
  push {ip}
  .cfi_adjust_cfa_offset 4
  PUSH_REG(lr)
  bl _libglib_2_0_so_save_regs_and_resolve
  POP_REG(lr)
  add sp, #4
  .cfi_adjust_cfa_offset -4
  bx ip

  // Force constant pool for ldr above
  .ltorg

  .cfi_endproc

3:
  .word _libglib_2_0_so_tramp_table - (2b + 8) + 1036

/*
 * Copyright 2018-2025 Yury Gribov
 *
 * The MIT License (MIT)
 *
 * Use of this source code is governed by MIT license that can be
 * found in the LICENSE.txt file.
 */

  .globl g_cond_wait_until
  .p2align 4
  .type g_cond_wait_until, %function
#ifndef IMPLIB_EXPORT_SHIMS
  .hidden g_cond_wait_until
#endif
g_cond_wait_until:
  .cfi_startproc

1:
  // Load address
  // TODO: can we do this faster on newer ARMs?
  ldr ip, 3f
2:
  add ip, pc, ip
  ldr ip, [ip]

  cmp ip, #0

  // Fast path
  bxne ip

  // Slow path
  ldr ip, =260
  push {ip}
  .cfi_adjust_cfa_offset 4
  PUSH_REG(lr)
  bl _libglib_2_0_so_save_regs_and_resolve
  POP_REG(lr)
  add sp, #4
  .cfi_adjust_cfa_offset -4
  bx ip

  // Force constant pool for ldr above
  .ltorg

  .cfi_endproc

3:
  .word _libglib_2_0_so_tramp_table - (2b + 8) + 1040

/*
 * Copyright 2018-2025 Yury Gribov
 *
 * The MIT License (MIT)
 *
 * Use of this source code is governed by MIT license that can be
 * found in the LICENSE.txt file.
 */

  .globl g_convert
  .p2align 4
  .type g_convert, %function
#ifndef IMPLIB_EXPORT_SHIMS
  .hidden g_convert
#endif
g_convert:
  .cfi_startproc

1:
  // Load address
  // TODO: can we do this faster on newer ARMs?
  ldr ip, 3f
2:
  add ip, pc, ip
  ldr ip, [ip]

  cmp ip, #0

  // Fast path
  bxne ip

  // Slow path
  ldr ip, =261
  push {ip}
  .cfi_adjust_cfa_offset 4
  PUSH_REG(lr)
  bl _libglib_2_0_so_save_regs_and_resolve
  POP_REG(lr)
  add sp, #4
  .cfi_adjust_cfa_offset -4
  bx ip

  // Force constant pool for ldr above
  .ltorg

  .cfi_endproc

3:
  .word _libglib_2_0_so_tramp_table - (2b + 8) + 1044

/*
 * Copyright 2018-2025 Yury Gribov
 *
 * The MIT License (MIT)
 *
 * Use of this source code is governed by MIT license that can be
 * found in the LICENSE.txt file.
 */

  .globl g_convert_error_quark
  .p2align 4
  .type g_convert_error_quark, %function
#ifndef IMPLIB_EXPORT_SHIMS
  .hidden g_convert_error_quark
#endif
g_convert_error_quark:
  .cfi_startproc

1:
  // Load address
  // TODO: can we do this faster on newer ARMs?
  ldr ip, 3f
2:
  add ip, pc, ip
  ldr ip, [ip]

  cmp ip, #0

  // Fast path
  bxne ip

  // Slow path
  ldr ip, =262
  push {ip}
  .cfi_adjust_cfa_offset 4
  PUSH_REG(lr)
  bl _libglib_2_0_so_save_regs_and_resolve
  POP_REG(lr)
  add sp, #4
  .cfi_adjust_cfa_offset -4
  bx ip

  // Force constant pool for ldr above
  .ltorg

  .cfi_endproc

3:
  .word _libglib_2_0_so_tramp_table - (2b + 8) + 1048

/*
 * Copyright 2018-2025 Yury Gribov
 *
 * The MIT License (MIT)
 *
 * Use of this source code is governed by MIT license that can be
 * found in the LICENSE.txt file.
 */

  .globl g_convert_with_fallback
  .p2align 4
  .type g_convert_with_fallback, %function
#ifndef IMPLIB_EXPORT_SHIMS
  .hidden g_convert_with_fallback
#endif
g_convert_with_fallback:
  .cfi_startproc

1:
  // Load address
  // TODO: can we do this faster on newer ARMs?
  ldr ip, 3f
2:
  add ip, pc, ip
  ldr ip, [ip]

  cmp ip, #0

  // Fast path
  bxne ip

  // Slow path
  ldr ip, =263
  push {ip}
  .cfi_adjust_cfa_offset 4
  PUSH_REG(lr)
  bl _libglib_2_0_so_save_regs_and_resolve
  POP_REG(lr)
  add sp, #4
  .cfi_adjust_cfa_offset -4
  bx ip

  // Force constant pool for ldr above
  .ltorg

  .cfi_endproc

3:
  .word _libglib_2_0_so_tramp_table - (2b + 8) + 1052

/*
 * Copyright 2018-2025 Yury Gribov
 *
 * The MIT License (MIT)
 *
 * Use of this source code is governed by MIT license that can be
 * found in the LICENSE.txt file.
 */

  .globl g_convert_with_iconv
  .p2align 4
  .type g_convert_with_iconv, %function
#ifndef IMPLIB_EXPORT_SHIMS
  .hidden g_convert_with_iconv
#endif
g_convert_with_iconv:
  .cfi_startproc

1:
  // Load address
  // TODO: can we do this faster on newer ARMs?
  ldr ip, 3f
2:
  add ip, pc, ip
  ldr ip, [ip]

  cmp ip, #0

  // Fast path
  bxne ip

  // Slow path
  ldr ip, =264
  push {ip}
  .cfi_adjust_cfa_offset 4
  PUSH_REG(lr)
  bl _libglib_2_0_so_save_regs_and_resolve
  POP_REG(lr)
  add sp, #4
  .cfi_adjust_cfa_offset -4
  bx ip

  // Force constant pool for ldr above
  .ltorg

  .cfi_endproc

3:
  .word _libglib_2_0_so_tramp_table - (2b + 8) + 1056

/*
 * Copyright 2018-2025 Yury Gribov
 *
 * The MIT License (MIT)
 *
 * Use of this source code is governed by MIT license that can be
 * found in the LICENSE.txt file.
 */

  .globl g_creat
  .p2align 4
  .type g_creat, %function
#ifndef IMPLIB_EXPORT_SHIMS
  .hidden g_creat
#endif
g_creat:
  .cfi_startproc

1:
  // Load address
  // TODO: can we do this faster on newer ARMs?
  ldr ip, 3f
2:
  add ip, pc, ip
  ldr ip, [ip]

  cmp ip, #0

  // Fast path
  bxne ip

  // Slow path
  ldr ip, =265
  push {ip}
  .cfi_adjust_cfa_offset 4
  PUSH_REG(lr)
  bl _libglib_2_0_so_save_regs_and_resolve
  POP_REG(lr)
  add sp, #4
  .cfi_adjust_cfa_offset -4
  bx ip

  // Force constant pool for ldr above
  .ltorg

  .cfi_endproc

3:
  .word _libglib_2_0_so_tramp_table - (2b + 8) + 1060

/*
 * Copyright 2018-2025 Yury Gribov
 *
 * The MIT License (MIT)
 *
 * Use of this source code is governed by MIT license that can be
 * found in the LICENSE.txt file.
 */

  .globl g_datalist_clear
  .p2align 4
  .type g_datalist_clear, %function
#ifndef IMPLIB_EXPORT_SHIMS
  .hidden g_datalist_clear
#endif
g_datalist_clear:
  .cfi_startproc

1:
  // Load address
  // TODO: can we do this faster on newer ARMs?
  ldr ip, 3f
2:
  add ip, pc, ip
  ldr ip, [ip]

  cmp ip, #0

  // Fast path
  bxne ip

  // Slow path
  ldr ip, =266
  push {ip}
  .cfi_adjust_cfa_offset 4
  PUSH_REG(lr)
  bl _libglib_2_0_so_save_regs_and_resolve
  POP_REG(lr)
  add sp, #4
  .cfi_adjust_cfa_offset -4
  bx ip

  // Force constant pool for ldr above
  .ltorg

  .cfi_endproc

3:
  .word _libglib_2_0_so_tramp_table - (2b + 8) + 1064

/*
 * Copyright 2018-2025 Yury Gribov
 *
 * The MIT License (MIT)
 *
 * Use of this source code is governed by MIT license that can be
 * found in the LICENSE.txt file.
 */

  .globl g_datalist_foreach
  .p2align 4
  .type g_datalist_foreach, %function
#ifndef IMPLIB_EXPORT_SHIMS
  .hidden g_datalist_foreach
#endif
g_datalist_foreach:
  .cfi_startproc

1:
  // Load address
  // TODO: can we do this faster on newer ARMs?
  ldr ip, 3f
2:
  add ip, pc, ip
  ldr ip, [ip]

  cmp ip, #0

  // Fast path
  bxne ip

  // Slow path
  ldr ip, =267
  push {ip}
  .cfi_adjust_cfa_offset 4
  PUSH_REG(lr)
  bl _libglib_2_0_so_save_regs_and_resolve
  POP_REG(lr)
  add sp, #4
  .cfi_adjust_cfa_offset -4
  bx ip

  // Force constant pool for ldr above
  .ltorg

  .cfi_endproc

3:
  .word _libglib_2_0_so_tramp_table - (2b + 8) + 1068

/*
 * Copyright 2018-2025 Yury Gribov
 *
 * The MIT License (MIT)
 *
 * Use of this source code is governed by MIT license that can be
 * found in the LICENSE.txt file.
 */

  .globl g_datalist_get_data
  .p2align 4
  .type g_datalist_get_data, %function
#ifndef IMPLIB_EXPORT_SHIMS
  .hidden g_datalist_get_data
#endif
g_datalist_get_data:
  .cfi_startproc

1:
  // Load address
  // TODO: can we do this faster on newer ARMs?
  ldr ip, 3f
2:
  add ip, pc, ip
  ldr ip, [ip]

  cmp ip, #0

  // Fast path
  bxne ip

  // Slow path
  ldr ip, =268
  push {ip}
  .cfi_adjust_cfa_offset 4
  PUSH_REG(lr)
  bl _libglib_2_0_so_save_regs_and_resolve
  POP_REG(lr)
  add sp, #4
  .cfi_adjust_cfa_offset -4
  bx ip

  // Force constant pool for ldr above
  .ltorg

  .cfi_endproc

3:
  .word _libglib_2_0_so_tramp_table - (2b + 8) + 1072

/*
 * Copyright 2018-2025 Yury Gribov
 *
 * The MIT License (MIT)
 *
 * Use of this source code is governed by MIT license that can be
 * found in the LICENSE.txt file.
 */

  .globl g_datalist_get_flags
  .p2align 4
  .type g_datalist_get_flags, %function
#ifndef IMPLIB_EXPORT_SHIMS
  .hidden g_datalist_get_flags
#endif
g_datalist_get_flags:
  .cfi_startproc

1:
  // Load address
  // TODO: can we do this faster on newer ARMs?
  ldr ip, 3f
2:
  add ip, pc, ip
  ldr ip, [ip]

  cmp ip, #0

  // Fast path
  bxne ip

  // Slow path
  ldr ip, =269
  push {ip}
  .cfi_adjust_cfa_offset 4
  PUSH_REG(lr)
  bl _libglib_2_0_so_save_regs_and_resolve
  POP_REG(lr)
  add sp, #4
  .cfi_adjust_cfa_offset -4
  bx ip

  // Force constant pool for ldr above
  .ltorg

  .cfi_endproc

3:
  .word _libglib_2_0_so_tramp_table - (2b + 8) + 1076

/*
 * Copyright 2018-2025 Yury Gribov
 *
 * The MIT License (MIT)
 *
 * Use of this source code is governed by MIT license that can be
 * found in the LICENSE.txt file.
 */

  .globl g_datalist_id_dup_data
  .p2align 4
  .type g_datalist_id_dup_data, %function
#ifndef IMPLIB_EXPORT_SHIMS
  .hidden g_datalist_id_dup_data
#endif
g_datalist_id_dup_data:
  .cfi_startproc

1:
  // Load address
  // TODO: can we do this faster on newer ARMs?
  ldr ip, 3f
2:
  add ip, pc, ip
  ldr ip, [ip]

  cmp ip, #0

  // Fast path
  bxne ip

  // Slow path
  ldr ip, =270
  push {ip}
  .cfi_adjust_cfa_offset 4
  PUSH_REG(lr)
  bl _libglib_2_0_so_save_regs_and_resolve
  POP_REG(lr)
  add sp, #4
  .cfi_adjust_cfa_offset -4
  bx ip

  // Force constant pool for ldr above
  .ltorg

  .cfi_endproc

3:
  .word _libglib_2_0_so_tramp_table - (2b + 8) + 1080

/*
 * Copyright 2018-2025 Yury Gribov
 *
 * The MIT License (MIT)
 *
 * Use of this source code is governed by MIT license that can be
 * found in the LICENSE.txt file.
 */

  .globl g_datalist_id_get_data
  .p2align 4
  .type g_datalist_id_get_data, %function
#ifndef IMPLIB_EXPORT_SHIMS
  .hidden g_datalist_id_get_data
#endif
g_datalist_id_get_data:
  .cfi_startproc

1:
  // Load address
  // TODO: can we do this faster on newer ARMs?
  ldr ip, 3f
2:
  add ip, pc, ip
  ldr ip, [ip]

  cmp ip, #0

  // Fast path
  bxne ip

  // Slow path
  ldr ip, =271
  push {ip}
  .cfi_adjust_cfa_offset 4
  PUSH_REG(lr)
  bl _libglib_2_0_so_save_regs_and_resolve
  POP_REG(lr)
  add sp, #4
  .cfi_adjust_cfa_offset -4
  bx ip

  // Force constant pool for ldr above
  .ltorg

  .cfi_endproc

3:
  .word _libglib_2_0_so_tramp_table - (2b + 8) + 1084

/*
 * Copyright 2018-2025 Yury Gribov
 *
 * The MIT License (MIT)
 *
 * Use of this source code is governed by MIT license that can be
 * found in the LICENSE.txt file.
 */

  .globl g_datalist_id_remove_multiple
  .p2align 4
  .type g_datalist_id_remove_multiple, %function
#ifndef IMPLIB_EXPORT_SHIMS
  .hidden g_datalist_id_remove_multiple
#endif
g_datalist_id_remove_multiple:
  .cfi_startproc

1:
  // Load address
  // TODO: can we do this faster on newer ARMs?
  ldr ip, 3f
2:
  add ip, pc, ip
  ldr ip, [ip]

  cmp ip, #0

  // Fast path
  bxne ip

  // Slow path
  ldr ip, =272
  push {ip}
  .cfi_adjust_cfa_offset 4
  PUSH_REG(lr)
  bl _libglib_2_0_so_save_regs_and_resolve
  POP_REG(lr)
  add sp, #4
  .cfi_adjust_cfa_offset -4
  bx ip

  // Force constant pool for ldr above
  .ltorg

  .cfi_endproc

3:
  .word _libglib_2_0_so_tramp_table - (2b + 8) + 1088

/*
 * Copyright 2018-2025 Yury Gribov
 *
 * The MIT License (MIT)
 *
 * Use of this source code is governed by MIT license that can be
 * found in the LICENSE.txt file.
 */

  .globl g_datalist_id_remove_no_notify
  .p2align 4
  .type g_datalist_id_remove_no_notify, %function
#ifndef IMPLIB_EXPORT_SHIMS
  .hidden g_datalist_id_remove_no_notify
#endif
g_datalist_id_remove_no_notify:
  .cfi_startproc

1:
  // Load address
  // TODO: can we do this faster on newer ARMs?
  ldr ip, 3f
2:
  add ip, pc, ip
  ldr ip, [ip]

  cmp ip, #0

  // Fast path
  bxne ip

  // Slow path
  ldr ip, =273
  push {ip}
  .cfi_adjust_cfa_offset 4
  PUSH_REG(lr)
  bl _libglib_2_0_so_save_regs_and_resolve
  POP_REG(lr)
  add sp, #4
  .cfi_adjust_cfa_offset -4
  bx ip

  // Force constant pool for ldr above
  .ltorg

  .cfi_endproc

3:
  .word _libglib_2_0_so_tramp_table - (2b + 8) + 1092

/*
 * Copyright 2018-2025 Yury Gribov
 *
 * The MIT License (MIT)
 *
 * Use of this source code is governed by MIT license that can be
 * found in the LICENSE.txt file.
 */

  .globl g_datalist_id_replace_data
  .p2align 4
  .type g_datalist_id_replace_data, %function
#ifndef IMPLIB_EXPORT_SHIMS
  .hidden g_datalist_id_replace_data
#endif
g_datalist_id_replace_data:
  .cfi_startproc

1:
  // Load address
  // TODO: can we do this faster on newer ARMs?
  ldr ip, 3f
2:
  add ip, pc, ip
  ldr ip, [ip]

  cmp ip, #0

  // Fast path
  bxne ip

  // Slow path
  ldr ip, =274
  push {ip}
  .cfi_adjust_cfa_offset 4
  PUSH_REG(lr)
  bl _libglib_2_0_so_save_regs_and_resolve
  POP_REG(lr)
  add sp, #4
  .cfi_adjust_cfa_offset -4
  bx ip

  // Force constant pool for ldr above
  .ltorg

  .cfi_endproc

3:
  .word _libglib_2_0_so_tramp_table - (2b + 8) + 1096

/*
 * Copyright 2018-2025 Yury Gribov
 *
 * The MIT License (MIT)
 *
 * Use of this source code is governed by MIT license that can be
 * found in the LICENSE.txt file.
 */

  .globl g_datalist_id_set_data_full
  .p2align 4
  .type g_datalist_id_set_data_full, %function
#ifndef IMPLIB_EXPORT_SHIMS
  .hidden g_datalist_id_set_data_full
#endif
g_datalist_id_set_data_full:
  .cfi_startproc

1:
  // Load address
  // TODO: can we do this faster on newer ARMs?
  ldr ip, 3f
2:
  add ip, pc, ip
  ldr ip, [ip]

  cmp ip, #0

  // Fast path
  bxne ip

  // Slow path
  ldr ip, =275
  push {ip}
  .cfi_adjust_cfa_offset 4
  PUSH_REG(lr)
  bl _libglib_2_0_so_save_regs_and_resolve
  POP_REG(lr)
  add sp, #4
  .cfi_adjust_cfa_offset -4
  bx ip

  // Force constant pool for ldr above
  .ltorg

  .cfi_endproc

3:
  .word _libglib_2_0_so_tramp_table - (2b + 8) + 1100

/*
 * Copyright 2018-2025 Yury Gribov
 *
 * The MIT License (MIT)
 *
 * Use of this source code is governed by MIT license that can be
 * found in the LICENSE.txt file.
 */

  .globl g_datalist_init
  .p2align 4
  .type g_datalist_init, %function
#ifndef IMPLIB_EXPORT_SHIMS
  .hidden g_datalist_init
#endif
g_datalist_init:
  .cfi_startproc

1:
  // Load address
  // TODO: can we do this faster on newer ARMs?
  ldr ip, 3f
2:
  add ip, pc, ip
  ldr ip, [ip]

  cmp ip, #0

  // Fast path
  bxne ip

  // Slow path
  ldr ip, =276
  push {ip}
  .cfi_adjust_cfa_offset 4
  PUSH_REG(lr)
  bl _libglib_2_0_so_save_regs_and_resolve
  POP_REG(lr)
  add sp, #4
  .cfi_adjust_cfa_offset -4
  bx ip

  // Force constant pool for ldr above
  .ltorg

  .cfi_endproc

3:
  .word _libglib_2_0_so_tramp_table - (2b + 8) + 1104

/*
 * Copyright 2018-2025 Yury Gribov
 *
 * The MIT License (MIT)
 *
 * Use of this source code is governed by MIT license that can be
 * found in the LICENSE.txt file.
 */

  .globl g_datalist_set_flags
  .p2align 4
  .type g_datalist_set_flags, %function
#ifndef IMPLIB_EXPORT_SHIMS
  .hidden g_datalist_set_flags
#endif
g_datalist_set_flags:
  .cfi_startproc

1:
  // Load address
  // TODO: can we do this faster on newer ARMs?
  ldr ip, 3f
2:
  add ip, pc, ip
  ldr ip, [ip]

  cmp ip, #0

  // Fast path
  bxne ip

  // Slow path
  ldr ip, =277
  push {ip}
  .cfi_adjust_cfa_offset 4
  PUSH_REG(lr)
  bl _libglib_2_0_so_save_regs_and_resolve
  POP_REG(lr)
  add sp, #4
  .cfi_adjust_cfa_offset -4
  bx ip

  // Force constant pool for ldr above
  .ltorg

  .cfi_endproc

3:
  .word _libglib_2_0_so_tramp_table - (2b + 8) + 1108

/*
 * Copyright 2018-2025 Yury Gribov
 *
 * The MIT License (MIT)
 *
 * Use of this source code is governed by MIT license that can be
 * found in the LICENSE.txt file.
 */

  .globl g_datalist_unset_flags
  .p2align 4
  .type g_datalist_unset_flags, %function
#ifndef IMPLIB_EXPORT_SHIMS
  .hidden g_datalist_unset_flags
#endif
g_datalist_unset_flags:
  .cfi_startproc

1:
  // Load address
  // TODO: can we do this faster on newer ARMs?
  ldr ip, 3f
2:
  add ip, pc, ip
  ldr ip, [ip]

  cmp ip, #0

  // Fast path
  bxne ip

  // Slow path
  ldr ip, =278
  push {ip}
  .cfi_adjust_cfa_offset 4
  PUSH_REG(lr)
  bl _libglib_2_0_so_save_regs_and_resolve
  POP_REG(lr)
  add sp, #4
  .cfi_adjust_cfa_offset -4
  bx ip

  // Force constant pool for ldr above
  .ltorg

  .cfi_endproc

3:
  .word _libglib_2_0_so_tramp_table - (2b + 8) + 1112

/*
 * Copyright 2018-2025 Yury Gribov
 *
 * The MIT License (MIT)
 *
 * Use of this source code is governed by MIT license that can be
 * found in the LICENSE.txt file.
 */

  .globl g_dataset_destroy
  .p2align 4
  .type g_dataset_destroy, %function
#ifndef IMPLIB_EXPORT_SHIMS
  .hidden g_dataset_destroy
#endif
g_dataset_destroy:
  .cfi_startproc

1:
  // Load address
  // TODO: can we do this faster on newer ARMs?
  ldr ip, 3f
2:
  add ip, pc, ip
  ldr ip, [ip]

  cmp ip, #0

  // Fast path
  bxne ip

  // Slow path
  ldr ip, =279
  push {ip}
  .cfi_adjust_cfa_offset 4
  PUSH_REG(lr)
  bl _libglib_2_0_so_save_regs_and_resolve
  POP_REG(lr)
  add sp, #4
  .cfi_adjust_cfa_offset -4
  bx ip

  // Force constant pool for ldr above
  .ltorg

  .cfi_endproc

3:
  .word _libglib_2_0_so_tramp_table - (2b + 8) + 1116

/*
 * Copyright 2018-2025 Yury Gribov
 *
 * The MIT License (MIT)
 *
 * Use of this source code is governed by MIT license that can be
 * found in the LICENSE.txt file.
 */

  .globl g_dataset_foreach
  .p2align 4
  .type g_dataset_foreach, %function
#ifndef IMPLIB_EXPORT_SHIMS
  .hidden g_dataset_foreach
#endif
g_dataset_foreach:
  .cfi_startproc

1:
  // Load address
  // TODO: can we do this faster on newer ARMs?
  ldr ip, 3f
2:
  add ip, pc, ip
  ldr ip, [ip]

  cmp ip, #0

  // Fast path
  bxne ip

  // Slow path
  ldr ip, =280
  push {ip}
  .cfi_adjust_cfa_offset 4
  PUSH_REG(lr)
  bl _libglib_2_0_so_save_regs_and_resolve
  POP_REG(lr)
  add sp, #4
  .cfi_adjust_cfa_offset -4
  bx ip

  // Force constant pool for ldr above
  .ltorg

  .cfi_endproc

3:
  .word _libglib_2_0_so_tramp_table - (2b + 8) + 1120

/*
 * Copyright 2018-2025 Yury Gribov
 *
 * The MIT License (MIT)
 *
 * Use of this source code is governed by MIT license that can be
 * found in the LICENSE.txt file.
 */

  .globl g_dataset_id_get_data
  .p2align 4
  .type g_dataset_id_get_data, %function
#ifndef IMPLIB_EXPORT_SHIMS
  .hidden g_dataset_id_get_data
#endif
g_dataset_id_get_data:
  .cfi_startproc

1:
  // Load address
  // TODO: can we do this faster on newer ARMs?
  ldr ip, 3f
2:
  add ip, pc, ip
  ldr ip, [ip]

  cmp ip, #0

  // Fast path
  bxne ip

  // Slow path
  ldr ip, =281
  push {ip}
  .cfi_adjust_cfa_offset 4
  PUSH_REG(lr)
  bl _libglib_2_0_so_save_regs_and_resolve
  POP_REG(lr)
  add sp, #4
  .cfi_adjust_cfa_offset -4
  bx ip

  // Force constant pool for ldr above
  .ltorg

  .cfi_endproc

3:
  .word _libglib_2_0_so_tramp_table - (2b + 8) + 1124

/*
 * Copyright 2018-2025 Yury Gribov
 *
 * The MIT License (MIT)
 *
 * Use of this source code is governed by MIT license that can be
 * found in the LICENSE.txt file.
 */

  .globl g_dataset_id_remove_no_notify
  .p2align 4
  .type g_dataset_id_remove_no_notify, %function
#ifndef IMPLIB_EXPORT_SHIMS
  .hidden g_dataset_id_remove_no_notify
#endif
g_dataset_id_remove_no_notify:
  .cfi_startproc

1:
  // Load address
  // TODO: can we do this faster on newer ARMs?
  ldr ip, 3f
2:
  add ip, pc, ip
  ldr ip, [ip]

  cmp ip, #0

  // Fast path
  bxne ip

  // Slow path
  ldr ip, =282
  push {ip}
  .cfi_adjust_cfa_offset 4
  PUSH_REG(lr)
  bl _libglib_2_0_so_save_regs_and_resolve
  POP_REG(lr)
  add sp, #4
  .cfi_adjust_cfa_offset -4
  bx ip

  // Force constant pool for ldr above
  .ltorg

  .cfi_endproc

3:
  .word _libglib_2_0_so_tramp_table - (2b + 8) + 1128

/*
 * Copyright 2018-2025 Yury Gribov
 *
 * The MIT License (MIT)
 *
 * Use of this source code is governed by MIT license that can be
 * found in the LICENSE.txt file.
 */

  .globl g_dataset_id_set_data_full
  .p2align 4
  .type g_dataset_id_set_data_full, %function
#ifndef IMPLIB_EXPORT_SHIMS
  .hidden g_dataset_id_set_data_full
#endif
g_dataset_id_set_data_full:
  .cfi_startproc

1:
  // Load address
  // TODO: can we do this faster on newer ARMs?
  ldr ip, 3f
2:
  add ip, pc, ip
  ldr ip, [ip]

  cmp ip, #0

  // Fast path
  bxne ip

  // Slow path
  ldr ip, =283
  push {ip}
  .cfi_adjust_cfa_offset 4
  PUSH_REG(lr)
  bl _libglib_2_0_so_save_regs_and_resolve
  POP_REG(lr)
  add sp, #4
  .cfi_adjust_cfa_offset -4
  bx ip

  // Force constant pool for ldr above
  .ltorg

  .cfi_endproc

3:
  .word _libglib_2_0_so_tramp_table - (2b + 8) + 1132

/*
 * Copyright 2018-2025 Yury Gribov
 *
 * The MIT License (MIT)
 *
 * Use of this source code is governed by MIT license that can be
 * found in the LICENSE.txt file.
 */

  .globl g_date_add_days
  .p2align 4
  .type g_date_add_days, %function
#ifndef IMPLIB_EXPORT_SHIMS
  .hidden g_date_add_days
#endif
g_date_add_days:
  .cfi_startproc

1:
  // Load address
  // TODO: can we do this faster on newer ARMs?
  ldr ip, 3f
2:
  add ip, pc, ip
  ldr ip, [ip]

  cmp ip, #0

  // Fast path
  bxne ip

  // Slow path
  ldr ip, =284
  push {ip}
  .cfi_adjust_cfa_offset 4
  PUSH_REG(lr)
  bl _libglib_2_0_so_save_regs_and_resolve
  POP_REG(lr)
  add sp, #4
  .cfi_adjust_cfa_offset -4
  bx ip

  // Force constant pool for ldr above
  .ltorg

  .cfi_endproc

3:
  .word _libglib_2_0_so_tramp_table - (2b + 8) + 1136

/*
 * Copyright 2018-2025 Yury Gribov
 *
 * The MIT License (MIT)
 *
 * Use of this source code is governed by MIT license that can be
 * found in the LICENSE.txt file.
 */

  .globl g_date_add_months
  .p2align 4
  .type g_date_add_months, %function
#ifndef IMPLIB_EXPORT_SHIMS
  .hidden g_date_add_months
#endif
g_date_add_months:
  .cfi_startproc

1:
  // Load address
  // TODO: can we do this faster on newer ARMs?
  ldr ip, 3f
2:
  add ip, pc, ip
  ldr ip, [ip]

  cmp ip, #0

  // Fast path
  bxne ip

  // Slow path
  ldr ip, =285
  push {ip}
  .cfi_adjust_cfa_offset 4
  PUSH_REG(lr)
  bl _libglib_2_0_so_save_regs_and_resolve
  POP_REG(lr)
  add sp, #4
  .cfi_adjust_cfa_offset -4
  bx ip

  // Force constant pool for ldr above
  .ltorg

  .cfi_endproc

3:
  .word _libglib_2_0_so_tramp_table - (2b + 8) + 1140

/*
 * Copyright 2018-2025 Yury Gribov
 *
 * The MIT License (MIT)
 *
 * Use of this source code is governed by MIT license that can be
 * found in the LICENSE.txt file.
 */

  .globl g_date_add_years
  .p2align 4
  .type g_date_add_years, %function
#ifndef IMPLIB_EXPORT_SHIMS
  .hidden g_date_add_years
#endif
g_date_add_years:
  .cfi_startproc

1:
  // Load address
  // TODO: can we do this faster on newer ARMs?
  ldr ip, 3f
2:
  add ip, pc, ip
  ldr ip, [ip]

  cmp ip, #0

  // Fast path
  bxne ip

  // Slow path
  ldr ip, =286
  push {ip}
  .cfi_adjust_cfa_offset 4
  PUSH_REG(lr)
  bl _libglib_2_0_so_save_regs_and_resolve
  POP_REG(lr)
  add sp, #4
  .cfi_adjust_cfa_offset -4
  bx ip

  // Force constant pool for ldr above
  .ltorg

  .cfi_endproc

3:
  .word _libglib_2_0_so_tramp_table - (2b + 8) + 1144

/*
 * Copyright 2018-2025 Yury Gribov
 *
 * The MIT License (MIT)
 *
 * Use of this source code is governed by MIT license that can be
 * found in the LICENSE.txt file.
 */

  .globl g_date_clamp
  .p2align 4
  .type g_date_clamp, %function
#ifndef IMPLIB_EXPORT_SHIMS
  .hidden g_date_clamp
#endif
g_date_clamp:
  .cfi_startproc

1:
  // Load address
  // TODO: can we do this faster on newer ARMs?
  ldr ip, 3f
2:
  add ip, pc, ip
  ldr ip, [ip]

  cmp ip, #0

  // Fast path
  bxne ip

  // Slow path
  ldr ip, =287
  push {ip}
  .cfi_adjust_cfa_offset 4
  PUSH_REG(lr)
  bl _libglib_2_0_so_save_regs_and_resolve
  POP_REG(lr)
  add sp, #4
  .cfi_adjust_cfa_offset -4
  bx ip

  // Force constant pool for ldr above
  .ltorg

  .cfi_endproc

3:
  .word _libglib_2_0_so_tramp_table - (2b + 8) + 1148

/*
 * Copyright 2018-2025 Yury Gribov
 *
 * The MIT License (MIT)
 *
 * Use of this source code is governed by MIT license that can be
 * found in the LICENSE.txt file.
 */

  .globl g_date_clear
  .p2align 4
  .type g_date_clear, %function
#ifndef IMPLIB_EXPORT_SHIMS
  .hidden g_date_clear
#endif
g_date_clear:
  .cfi_startproc

1:
  // Load address
  // TODO: can we do this faster on newer ARMs?
  ldr ip, 3f
2:
  add ip, pc, ip
  ldr ip, [ip]

  cmp ip, #0

  // Fast path
  bxne ip

  // Slow path
  ldr ip, =288
  push {ip}
  .cfi_adjust_cfa_offset 4
  PUSH_REG(lr)
  bl _libglib_2_0_so_save_regs_and_resolve
  POP_REG(lr)
  add sp, #4
  .cfi_adjust_cfa_offset -4
  bx ip

  // Force constant pool for ldr above
  .ltorg

  .cfi_endproc

3:
  .word _libglib_2_0_so_tramp_table - (2b + 8) + 1152

/*
 * Copyright 2018-2025 Yury Gribov
 *
 * The MIT License (MIT)
 *
 * Use of this source code is governed by MIT license that can be
 * found in the LICENSE.txt file.
 */

  .globl g_date_compare
  .p2align 4
  .type g_date_compare, %function
#ifndef IMPLIB_EXPORT_SHIMS
  .hidden g_date_compare
#endif
g_date_compare:
  .cfi_startproc

1:
  // Load address
  // TODO: can we do this faster on newer ARMs?
  ldr ip, 3f
2:
  add ip, pc, ip
  ldr ip, [ip]

  cmp ip, #0

  // Fast path
  bxne ip

  // Slow path
  ldr ip, =289
  push {ip}
  .cfi_adjust_cfa_offset 4
  PUSH_REG(lr)
  bl _libglib_2_0_so_save_regs_and_resolve
  POP_REG(lr)
  add sp, #4
  .cfi_adjust_cfa_offset -4
  bx ip

  // Force constant pool for ldr above
  .ltorg

  .cfi_endproc

3:
  .word _libglib_2_0_so_tramp_table - (2b + 8) + 1156

/*
 * Copyright 2018-2025 Yury Gribov
 *
 * The MIT License (MIT)
 *
 * Use of this source code is governed by MIT license that can be
 * found in the LICENSE.txt file.
 */

  .globl g_date_copy
  .p2align 4
  .type g_date_copy, %function
#ifndef IMPLIB_EXPORT_SHIMS
  .hidden g_date_copy
#endif
g_date_copy:
  .cfi_startproc

1:
  // Load address
  // TODO: can we do this faster on newer ARMs?
  ldr ip, 3f
2:
  add ip, pc, ip
  ldr ip, [ip]

  cmp ip, #0

  // Fast path
  bxne ip

  // Slow path
  ldr ip, =290
  push {ip}
  .cfi_adjust_cfa_offset 4
  PUSH_REG(lr)
  bl _libglib_2_0_so_save_regs_and_resolve
  POP_REG(lr)
  add sp, #4
  .cfi_adjust_cfa_offset -4
  bx ip

  // Force constant pool for ldr above
  .ltorg

  .cfi_endproc

3:
  .word _libglib_2_0_so_tramp_table - (2b + 8) + 1160

/*
 * Copyright 2018-2025 Yury Gribov
 *
 * The MIT License (MIT)
 *
 * Use of this source code is governed by MIT license that can be
 * found in the LICENSE.txt file.
 */

  .globl g_date_days_between
  .p2align 4
  .type g_date_days_between, %function
#ifndef IMPLIB_EXPORT_SHIMS
  .hidden g_date_days_between
#endif
g_date_days_between:
  .cfi_startproc

1:
  // Load address
  // TODO: can we do this faster on newer ARMs?
  ldr ip, 3f
2:
  add ip, pc, ip
  ldr ip, [ip]

  cmp ip, #0

  // Fast path
  bxne ip

  // Slow path
  ldr ip, =291
  push {ip}
  .cfi_adjust_cfa_offset 4
  PUSH_REG(lr)
  bl _libglib_2_0_so_save_regs_and_resolve
  POP_REG(lr)
  add sp, #4
  .cfi_adjust_cfa_offset -4
  bx ip

  // Force constant pool for ldr above
  .ltorg

  .cfi_endproc

3:
  .word _libglib_2_0_so_tramp_table - (2b + 8) + 1164

/*
 * Copyright 2018-2025 Yury Gribov
 *
 * The MIT License (MIT)
 *
 * Use of this source code is governed by MIT license that can be
 * found in the LICENSE.txt file.
 */

  .globl g_date_free
  .p2align 4
  .type g_date_free, %function
#ifndef IMPLIB_EXPORT_SHIMS
  .hidden g_date_free
#endif
g_date_free:
  .cfi_startproc

1:
  // Load address
  // TODO: can we do this faster on newer ARMs?
  ldr ip, 3f
2:
  add ip, pc, ip
  ldr ip, [ip]

  cmp ip, #0

  // Fast path
  bxne ip

  // Slow path
  ldr ip, =292
  push {ip}
  .cfi_adjust_cfa_offset 4
  PUSH_REG(lr)
  bl _libglib_2_0_so_save_regs_and_resolve
  POP_REG(lr)
  add sp, #4
  .cfi_adjust_cfa_offset -4
  bx ip

  // Force constant pool for ldr above
  .ltorg

  .cfi_endproc

3:
  .word _libglib_2_0_so_tramp_table - (2b + 8) + 1168

/*
 * Copyright 2018-2025 Yury Gribov
 *
 * The MIT License (MIT)
 *
 * Use of this source code is governed by MIT license that can be
 * found in the LICENSE.txt file.
 */

  .globl g_date_get_day
  .p2align 4
  .type g_date_get_day, %function
#ifndef IMPLIB_EXPORT_SHIMS
  .hidden g_date_get_day
#endif
g_date_get_day:
  .cfi_startproc

1:
  // Load address
  // TODO: can we do this faster on newer ARMs?
  ldr ip, 3f
2:
  add ip, pc, ip
  ldr ip, [ip]

  cmp ip, #0

  // Fast path
  bxne ip

  // Slow path
  ldr ip, =293
  push {ip}
  .cfi_adjust_cfa_offset 4
  PUSH_REG(lr)
  bl _libglib_2_0_so_save_regs_and_resolve
  POP_REG(lr)
  add sp, #4
  .cfi_adjust_cfa_offset -4
  bx ip

  // Force constant pool for ldr above
  .ltorg

  .cfi_endproc

3:
  .word _libglib_2_0_so_tramp_table - (2b + 8) + 1172

/*
 * Copyright 2018-2025 Yury Gribov
 *
 * The MIT License (MIT)
 *
 * Use of this source code is governed by MIT license that can be
 * found in the LICENSE.txt file.
 */

  .globl g_date_get_day_of_year
  .p2align 4
  .type g_date_get_day_of_year, %function
#ifndef IMPLIB_EXPORT_SHIMS
  .hidden g_date_get_day_of_year
#endif
g_date_get_day_of_year:
  .cfi_startproc

1:
  // Load address
  // TODO: can we do this faster on newer ARMs?
  ldr ip, 3f
2:
  add ip, pc, ip
  ldr ip, [ip]

  cmp ip, #0

  // Fast path
  bxne ip

  // Slow path
  ldr ip, =294
  push {ip}
  .cfi_adjust_cfa_offset 4
  PUSH_REG(lr)
  bl _libglib_2_0_so_save_regs_and_resolve
  POP_REG(lr)
  add sp, #4
  .cfi_adjust_cfa_offset -4
  bx ip

  // Force constant pool for ldr above
  .ltorg

  .cfi_endproc

3:
  .word _libglib_2_0_so_tramp_table - (2b + 8) + 1176

/*
 * Copyright 2018-2025 Yury Gribov
 *
 * The MIT License (MIT)
 *
 * Use of this source code is governed by MIT license that can be
 * found in the LICENSE.txt file.
 */

  .globl g_date_get_days_in_month
  .p2align 4
  .type g_date_get_days_in_month, %function
#ifndef IMPLIB_EXPORT_SHIMS
  .hidden g_date_get_days_in_month
#endif
g_date_get_days_in_month:
  .cfi_startproc

1:
  // Load address
  // TODO: can we do this faster on newer ARMs?
  ldr ip, 3f
2:
  add ip, pc, ip
  ldr ip, [ip]

  cmp ip, #0

  // Fast path
  bxne ip

  // Slow path
  ldr ip, =295
  push {ip}
