/*
 * Copyright 2018-2025 Yury Gribov
 *
 * The MIT License (MIT)
 *
 * Use of this source code is governed by MIT license that can be
 * found in the LICENSE.txt file.
 */

  .section .note.GNU-stack,"",%progbits

  .data

  .globl _libpango_1_0_so_tramp_table
  .hidden _libpango_1_0_so_tramp_table
  .align 4
_libpango_1_0_so_tramp_table:
  .zero 2020

  .text

  .globl _libpango_1_0_so_tramp_resolve
  .hidden _libpango_1_0_so_tramp_resolve

  .globl _libpango_1_0_so_save_regs_and_resolve
  .hidden _libpango_1_0_so_save_regs_and_resolve
  .type _libpango_1_0_so_save_regs_and_resolve, %function
_libpango_1_0_so_save_regs_and_resolve:
  .cfi_startproc

#define PUSH_REG(reg) push {reg}; .cfi_adjust_cfa_offset 4; .cfi_rel_offset reg, 0
#define POP_REG(reg) pop {reg} ; .cfi_adjust_cfa_offset -4; .cfi_restore reg

// Binutils 2.30 does not like q0 in .cfi_rel_offset
#define PUSH_DREG_PAIR(reg1, reg2) vpush {reg1, reg2}; .cfi_adjust_cfa_offset 16; .cfi_rel_offset reg1, 0; .cfi_rel_offset reg2, 8
#define POP_DREG_PAIR(reg1, reg2) vpop {reg1, reg2}; .cfi_adjust_cfa_offset -16; .cfi_restore reg1; .cfi_restore reg2

  // Slow path which calls dlsym, taken only on first call.
  // Registers are saved acc. to "Procedure Call Standard for the ARM Architecture".
  // For DWARF directives, read https://www.imperialviolet.org/2017/01/18/cfi.html.

  // Stack is aligned at 16 bytes at this point

  // Save only arguments (and lr)
  PUSH_REG(r0)
  ldr r0, [sp, #8]
  PUSH_REG(r1)
  PUSH_REG(r2)
  PUSH_REG(r3)
  PUSH_REG(lr)
  PUSH_REG(lr)  // Align to 8 bytes

  // Arguments can be passed in VFP registers only when hard-float ABI is used
  // for arm-gnueabihf target // (http://android-doc.github.io/ndk/guides/abis.html#v7a).
  // Use compiler macro to detect this case.
#ifdef __ARM_PCS_VFP
  PUSH_DREG_PAIR(d0, d1)
  PUSH_DREG_PAIR(d2, d3)
  PUSH_DREG_PAIR(d4, d5)
  PUSH_DREG_PAIR(d6, d7)
  PUSH_DREG_PAIR(d8, d9)
  PUSH_DREG_PAIR(d10, d11)
  PUSH_DREG_PAIR(d12, d13)
  PUSH_DREG_PAIR(d14, d15)
  // FIXME: NEON actually supports 32 D-registers but it's unclear how to detect this
#endif

  bl _libpango_1_0_so_tramp_resolve(PLT)
  mov ip, r0

#ifdef __ARM_PCS_VFP
  POP_DREG_PAIR(d14, d15)
  POP_DREG_PAIR(d12, d13)
  POP_DREG_PAIR(d10, d11)
  POP_DREG_PAIR(d8, d9)
  POP_DREG_PAIR(d6, d7)
  POP_DREG_PAIR(d4, d5)
  POP_DREG_PAIR(d2, d3)
  POP_DREG_PAIR(d0, d1)
#endif

  POP_REG(lr)  // TODO: pop pc?
  POP_REG(lr)
  POP_REG(r3)
  POP_REG(r2)
  POP_REG(r1)
  POP_REG(r0)

  bx lr

  .cfi_endproc

/*
 * Copyright 2018-2025 Yury Gribov
 *
 * The MIT License (MIT)
 *
 * Use of this source code is governed by MIT license that can be
 * found in the LICENSE.txt file.
 */

  .globl pango_alignment_get_type
  .p2align 4
  .type pango_alignment_get_type, %function
#ifndef IMPLIB_EXPORT_SHIMS
  .hidden pango_alignment_get_type
#endif
pango_alignment_get_type:
  .cfi_startproc

1:
  // Load address
  // TODO: can we do this faster on newer ARMs?
  ldr ip, 3f
2:
  add ip, pc, ip
  ldr ip, [ip]

  cmp ip, #0

  // Fast path
  bxne ip

  // Slow path
  ldr ip, =0
  push {ip}
  .cfi_adjust_cfa_offset 4
  PUSH_REG(lr)
  bl _libpango_1_0_so_save_regs_and_resolve
  POP_REG(lr)
  add sp, #4
  .cfi_adjust_cfa_offset -4
  bx ip

  // Force constant pool for ldr above
  .ltorg

  .cfi_endproc

3:
  .word _libpango_1_0_so_tramp_table - (2b + 8) + 0

/*
 * Copyright 2018-2025 Yury Gribov
 *
 * The MIT License (MIT)
 *
 * Use of this source code is governed by MIT license that can be
 * found in the LICENSE.txt file.
 */

  .globl pango_attr_allow_breaks_new
  .p2align 4
  .type pango_attr_allow_breaks_new, %function
#ifndef IMPLIB_EXPORT_SHIMS
  .hidden pango_attr_allow_breaks_new
#endif
pango_attr_allow_breaks_new:
  .cfi_startproc

1:
  // Load address
  // TODO: can we do this faster on newer ARMs?
  ldr ip, 3f
2:
  add ip, pc, ip
  ldr ip, [ip]

  cmp ip, #0

  // Fast path
  bxne ip

  // Slow path
  ldr ip, =1
  push {ip}
  .cfi_adjust_cfa_offset 4
  PUSH_REG(lr)
  bl _libpango_1_0_so_save_regs_and_resolve
  POP_REG(lr)
  add sp, #4
  .cfi_adjust_cfa_offset -4
  bx ip

  // Force constant pool for ldr above
  .ltorg

  .cfi_endproc

3:
  .word _libpango_1_0_so_tramp_table - (2b + 8) + 4

/*
 * Copyright 2018-2025 Yury Gribov
 *
 * The MIT License (MIT)
 *
 * Use of this source code is governed by MIT license that can be
 * found in the LICENSE.txt file.
 */

  .globl pango_attr_background_alpha_new
  .p2align 4
  .type pango_attr_background_alpha_new, %function
#ifndef IMPLIB_EXPORT_SHIMS
  .hidden pango_attr_background_alpha_new
#endif
pango_attr_background_alpha_new:
  .cfi_startproc

1:
  // Load address
  // TODO: can we do this faster on newer ARMs?
  ldr ip, 3f
2:
  add ip, pc, ip
  ldr ip, [ip]

  cmp ip, #0

  // Fast path
  bxne ip

  // Slow path
  ldr ip, =2
  push {ip}
  .cfi_adjust_cfa_offset 4
  PUSH_REG(lr)
  bl _libpango_1_0_so_save_regs_and_resolve
  POP_REG(lr)
  add sp, #4
  .cfi_adjust_cfa_offset -4
  bx ip

  // Force constant pool for ldr above
  .ltorg

  .cfi_endproc

3:
  .word _libpango_1_0_so_tramp_table - (2b + 8) + 8

/*
 * Copyright 2018-2025 Yury Gribov
 *
 * The MIT License (MIT)
 *
 * Use of this source code is governed by MIT license that can be
 * found in the LICENSE.txt file.
 */

  .globl pango_attr_background_new
  .p2align 4
  .type pango_attr_background_new, %function
#ifndef IMPLIB_EXPORT_SHIMS
  .hidden pango_attr_background_new
#endif
pango_attr_background_new:
  .cfi_startproc

1:
  // Load address
  // TODO: can we do this faster on newer ARMs?
  ldr ip, 3f
2:
  add ip, pc, ip
  ldr ip, [ip]

  cmp ip, #0

  // Fast path
  bxne ip

  // Slow path
  ldr ip, =3
  push {ip}
  .cfi_adjust_cfa_offset 4
  PUSH_REG(lr)
  bl _libpango_1_0_so_save_regs_and_resolve
  POP_REG(lr)
  add sp, #4
  .cfi_adjust_cfa_offset -4
  bx ip

  // Force constant pool for ldr above
  .ltorg

  .cfi_endproc

3:
  .word _libpango_1_0_so_tramp_table - (2b + 8) + 12

/*
 * Copyright 2018-2025 Yury Gribov
 *
 * The MIT License (MIT)
 *
 * Use of this source code is governed by MIT license that can be
 * found in the LICENSE.txt file.
 */

  .globl pango_attr_baseline_shift_new
  .p2align 4
  .type pango_attr_baseline_shift_new, %function
#ifndef IMPLIB_EXPORT_SHIMS
  .hidden pango_attr_baseline_shift_new
#endif
pango_attr_baseline_shift_new:
  .cfi_startproc

1:
  // Load address
  // TODO: can we do this faster on newer ARMs?
  ldr ip, 3f
2:
  add ip, pc, ip
  ldr ip, [ip]

  cmp ip, #0

  // Fast path
  bxne ip

  // Slow path
  ldr ip, =4
  push {ip}
  .cfi_adjust_cfa_offset 4
  PUSH_REG(lr)
  bl _libpango_1_0_so_save_regs_and_resolve
  POP_REG(lr)
  add sp, #4
  .cfi_adjust_cfa_offset -4
  bx ip

  // Force constant pool for ldr above
  .ltorg

  .cfi_endproc

3:
  .word _libpango_1_0_so_tramp_table - (2b + 8) + 16

/*
 * Copyright 2018-2025 Yury Gribov
 *
 * The MIT License (MIT)
 *
 * Use of this source code is governed by MIT license that can be
 * found in the LICENSE.txt file.
 */

  .globl pango_attr_break
  .p2align 4
  .type pango_attr_break, %function
#ifndef IMPLIB_EXPORT_SHIMS
  .hidden pango_attr_break
#endif
pango_attr_break:
  .cfi_startproc

1:
  // Load address
  // TODO: can we do this faster on newer ARMs?
  ldr ip, 3f
2:
  add ip, pc, ip
  ldr ip, [ip]

  cmp ip, #0

  // Fast path
  bxne ip

  // Slow path
  ldr ip, =5
  push {ip}
  .cfi_adjust_cfa_offset 4
  PUSH_REG(lr)
  bl _libpango_1_0_so_save_regs_and_resolve
  POP_REG(lr)
  add sp, #4
  .cfi_adjust_cfa_offset -4
  bx ip

  // Force constant pool for ldr above
  .ltorg

  .cfi_endproc

3:
  .word _libpango_1_0_so_tramp_table - (2b + 8) + 20

/*
 * Copyright 2018-2025 Yury Gribov
 *
 * The MIT License (MIT)
 *
 * Use of this source code is governed by MIT license that can be
 * found in the LICENSE.txt file.
 */

  .globl pango_attr_fallback_new
  .p2align 4
  .type pango_attr_fallback_new, %function
#ifndef IMPLIB_EXPORT_SHIMS
  .hidden pango_attr_fallback_new
#endif
pango_attr_fallback_new:
  .cfi_startproc

1:
  // Load address
  // TODO: can we do this faster on newer ARMs?
  ldr ip, 3f
2:
  add ip, pc, ip
  ldr ip, [ip]

  cmp ip, #0

  // Fast path
  bxne ip

  // Slow path
  ldr ip, =6
  push {ip}
  .cfi_adjust_cfa_offset 4
  PUSH_REG(lr)
  bl _libpango_1_0_so_save_regs_and_resolve
  POP_REG(lr)
  add sp, #4
  .cfi_adjust_cfa_offset -4
  bx ip

  // Force constant pool for ldr above
  .ltorg

  .cfi_endproc

3:
  .word _libpango_1_0_so_tramp_table - (2b + 8) + 24

/*
 * Copyright 2018-2025 Yury Gribov
 *
 * The MIT License (MIT)
 *
 * Use of this source code is governed by MIT license that can be
 * found in the LICENSE.txt file.
 */

  .globl pango_attr_family_new
  .p2align 4
  .type pango_attr_family_new, %function
#ifndef IMPLIB_EXPORT_SHIMS
  .hidden pango_attr_family_new
#endif
pango_attr_family_new:
  .cfi_startproc

1:
  // Load address
  // TODO: can we do this faster on newer ARMs?
  ldr ip, 3f
2:
  add ip, pc, ip
  ldr ip, [ip]

  cmp ip, #0

  // Fast path
  bxne ip

  // Slow path
  ldr ip, =7
  push {ip}
  .cfi_adjust_cfa_offset 4
  PUSH_REG(lr)
  bl _libpango_1_0_so_save_regs_and_resolve
  POP_REG(lr)
  add sp, #4
  .cfi_adjust_cfa_offset -4
  bx ip

  // Force constant pool for ldr above
  .ltorg

  .cfi_endproc

3:
  .word _libpango_1_0_so_tramp_table - (2b + 8) + 28

/*
 * Copyright 2018-2025 Yury Gribov
 *
 * The MIT License (MIT)
 *
 * Use of this source code is governed by MIT license that can be
 * found in the LICENSE.txt file.
 */

  .globl pango_attr_font_desc_new
  .p2align 4
  .type pango_attr_font_desc_new, %function
#ifndef IMPLIB_EXPORT_SHIMS
  .hidden pango_attr_font_desc_new
#endif
pango_attr_font_desc_new:
  .cfi_startproc

1:
  // Load address
  // TODO: can we do this faster on newer ARMs?
  ldr ip, 3f
2:
  add ip, pc, ip
  ldr ip, [ip]

  cmp ip, #0

  // Fast path
  bxne ip

  // Slow path
  ldr ip, =8
  push {ip}
  .cfi_adjust_cfa_offset 4
  PUSH_REG(lr)
  bl _libpango_1_0_so_save_regs_and_resolve
  POP_REG(lr)
  add sp, #4
  .cfi_adjust_cfa_offset -4
  bx ip

  // Force constant pool for ldr above
  .ltorg

  .cfi_endproc

3:
  .word _libpango_1_0_so_tramp_table - (2b + 8) + 32

/*
 * Copyright 2018-2025 Yury Gribov
 *
 * The MIT License (MIT)
 *
 * Use of this source code is governed by MIT license that can be
 * found in the LICENSE.txt file.
 */

  .globl pango_attr_font_features_new
  .p2align 4
  .type pango_attr_font_features_new, %function
#ifndef IMPLIB_EXPORT_SHIMS
  .hidden pango_attr_font_features_new
#endif
pango_attr_font_features_new:
  .cfi_startproc

1:
  // Load address
  // TODO: can we do this faster on newer ARMs?
  ldr ip, 3f
2:
  add ip, pc, ip
  ldr ip, [ip]

  cmp ip, #0

  // Fast path
  bxne ip

  // Slow path
  ldr ip, =9
  push {ip}
  .cfi_adjust_cfa_offset 4
  PUSH_REG(lr)
  bl _libpango_1_0_so_save_regs_and_resolve
  POP_REG(lr)
  add sp, #4
  .cfi_adjust_cfa_offset -4
  bx ip

  // Force constant pool for ldr above
  .ltorg

  .cfi_endproc

3:
  .word _libpango_1_0_so_tramp_table - (2b + 8) + 36

/*
 * Copyright 2018-2025 Yury Gribov
 *
 * The MIT License (MIT)
 *
 * Use of this source code is governed by MIT license that can be
 * found in the LICENSE.txt file.
 */

  .globl pango_attr_font_scale_new
  .p2align 4
  .type pango_attr_font_scale_new, %function
#ifndef IMPLIB_EXPORT_SHIMS
  .hidden pango_attr_font_scale_new
#endif
pango_attr_font_scale_new:
  .cfi_startproc

1:
  // Load address
  // TODO: can we do this faster on newer ARMs?
  ldr ip, 3f
2:
  add ip, pc, ip
  ldr ip, [ip]

  cmp ip, #0

  // Fast path
  bxne ip

  // Slow path
  ldr ip, =10
  push {ip}
  .cfi_adjust_cfa_offset 4
  PUSH_REG(lr)
  bl _libpango_1_0_so_save_regs_and_resolve
  POP_REG(lr)
  add sp, #4
  .cfi_adjust_cfa_offset -4
  bx ip

  // Force constant pool for ldr above
  .ltorg

  .cfi_endproc

3:
  .word _libpango_1_0_so_tramp_table - (2b + 8) + 40

/*
 * Copyright 2018-2025 Yury Gribov
 *
 * The MIT License (MIT)
 *
 * Use of this source code is governed by MIT license that can be
 * found in the LICENSE.txt file.
 */

  .globl pango_attr_foreground_alpha_new
  .p2align 4
  .type pango_attr_foreground_alpha_new, %function
#ifndef IMPLIB_EXPORT_SHIMS
  .hidden pango_attr_foreground_alpha_new
#endif
pango_attr_foreground_alpha_new:
  .cfi_startproc

1:
  // Load address
  // TODO: can we do this faster on newer ARMs?
  ldr ip, 3f
2:
  add ip, pc, ip
  ldr ip, [ip]

  cmp ip, #0

  // Fast path
  bxne ip

  // Slow path
  ldr ip, =11
  push {ip}
  .cfi_adjust_cfa_offset 4
  PUSH_REG(lr)
  bl _libpango_1_0_so_save_regs_and_resolve
  POP_REG(lr)
  add sp, #4
  .cfi_adjust_cfa_offset -4
  bx ip

  // Force constant pool for ldr above
  .ltorg

  .cfi_endproc

3:
  .word _libpango_1_0_so_tramp_table - (2b + 8) + 44

/*
 * Copyright 2018-2025 Yury Gribov
 *
 * The MIT License (MIT)
 *
 * Use of this source code is governed by MIT license that can be
 * found in the LICENSE.txt file.
 */

  .globl pango_attr_foreground_new
  .p2align 4
  .type pango_attr_foreground_new, %function
#ifndef IMPLIB_EXPORT_SHIMS
  .hidden pango_attr_foreground_new
#endif
pango_attr_foreground_new:
  .cfi_startproc

1:
  // Load address
  // TODO: can we do this faster on newer ARMs?
  ldr ip, 3f
2:
  add ip, pc, ip
  ldr ip, [ip]

  cmp ip, #0

  // Fast path
  bxne ip

  // Slow path
  ldr ip, =12
  push {ip}
  .cfi_adjust_cfa_offset 4
  PUSH_REG(lr)
  bl _libpango_1_0_so_save_regs_and_resolve
  POP_REG(lr)
  add sp, #4
  .cfi_adjust_cfa_offset -4
  bx ip

  // Force constant pool for ldr above
  .ltorg

  .cfi_endproc

3:
  .word _libpango_1_0_so_tramp_table - (2b + 8) + 48

/*
 * Copyright 2018-2025 Yury Gribov
 *
 * The MIT License (MIT)
 *
 * Use of this source code is governed by MIT license that can be
 * found in the LICENSE.txt file.
 */

  .globl pango_attr_gravity_hint_new
  .p2align 4
  .type pango_attr_gravity_hint_new, %function
#ifndef IMPLIB_EXPORT_SHIMS
  .hidden pango_attr_gravity_hint_new
#endif
pango_attr_gravity_hint_new:
  .cfi_startproc

1:
  // Load address
  // TODO: can we do this faster on newer ARMs?
  ldr ip, 3f
2:
  add ip, pc, ip
  ldr ip, [ip]

  cmp ip, #0

  // Fast path
  bxne ip

  // Slow path
  ldr ip, =13
  push {ip}
  .cfi_adjust_cfa_offset 4
  PUSH_REG(lr)
  bl _libpango_1_0_so_save_regs_and_resolve
  POP_REG(lr)
  add sp, #4
  .cfi_adjust_cfa_offset -4
  bx ip

  // Force constant pool for ldr above
  .ltorg

  .cfi_endproc

3:
  .word _libpango_1_0_so_tramp_table - (2b + 8) + 52

/*
 * Copyright 2018-2025 Yury Gribov
 *
 * The MIT License (MIT)
 *
 * Use of this source code is governed by MIT license that can be
 * found in the LICENSE.txt file.
 */

  .globl pango_attr_gravity_new
  .p2align 4
  .type pango_attr_gravity_new, %function
#ifndef IMPLIB_EXPORT_SHIMS
  .hidden pango_attr_gravity_new
#endif
pango_attr_gravity_new:
  .cfi_startproc

1:
  // Load address
  // TODO: can we do this faster on newer ARMs?
  ldr ip, 3f
2:
  add ip, pc, ip
  ldr ip, [ip]

  cmp ip, #0

  // Fast path
  bxne ip

  // Slow path
  ldr ip, =14
  push {ip}
  .cfi_adjust_cfa_offset 4
  PUSH_REG(lr)
  bl _libpango_1_0_so_save_regs_and_resolve
  POP_REG(lr)
  add sp, #4
  .cfi_adjust_cfa_offset -4
  bx ip

  // Force constant pool for ldr above
  .ltorg

  .cfi_endproc

3:
  .word _libpango_1_0_so_tramp_table - (2b + 8) + 56

/*
 * Copyright 2018-2025 Yury Gribov
 *
 * The MIT License (MIT)
 *
 * Use of this source code is governed by MIT license that can be
 * found in the LICENSE.txt file.
 */

  .globl pango_attr_insert_hyphens_new
  .p2align 4
  .type pango_attr_insert_hyphens_new, %function
#ifndef IMPLIB_EXPORT_SHIMS
  .hidden pango_attr_insert_hyphens_new
#endif
pango_attr_insert_hyphens_new:
  .cfi_startproc

1:
  // Load address
  // TODO: can we do this faster on newer ARMs?
  ldr ip, 3f
2:
  add ip, pc, ip
  ldr ip, [ip]

  cmp ip, #0

  // Fast path
  bxne ip

  // Slow path
  ldr ip, =15
  push {ip}
  .cfi_adjust_cfa_offset 4
  PUSH_REG(lr)
  bl _libpango_1_0_so_save_regs_and_resolve
  POP_REG(lr)
  add sp, #4
  .cfi_adjust_cfa_offset -4
  bx ip

  // Force constant pool for ldr above
  .ltorg

  .cfi_endproc

3:
  .word _libpango_1_0_so_tramp_table - (2b + 8) + 60

/*
 * Copyright 2018-2025 Yury Gribov
 *
 * The MIT License (MIT)
 *
 * Use of this source code is governed by MIT license that can be
 * found in the LICENSE.txt file.
 */

  .globl pango_attr_iterator_copy
  .p2align 4
  .type pango_attr_iterator_copy, %function
#ifndef IMPLIB_EXPORT_SHIMS
  .hidden pango_attr_iterator_copy
#endif
pango_attr_iterator_copy:
  .cfi_startproc

1:
  // Load address
  // TODO: can we do this faster on newer ARMs?
  ldr ip, 3f
2:
  add ip, pc, ip
  ldr ip, [ip]

  cmp ip, #0

  // Fast path
  bxne ip

  // Slow path
  ldr ip, =16
  push {ip}
  .cfi_adjust_cfa_offset 4
  PUSH_REG(lr)
  bl _libpango_1_0_so_save_regs_and_resolve
  POP_REG(lr)
  add sp, #4
  .cfi_adjust_cfa_offset -4
  bx ip

  // Force constant pool for ldr above
  .ltorg

  .cfi_endproc

3:
  .word _libpango_1_0_so_tramp_table - (2b + 8) + 64

/*
 * Copyright 2018-2025 Yury Gribov
 *
 * The MIT License (MIT)
 *
 * Use of this source code is governed by MIT license that can be
 * found in the LICENSE.txt file.
 */

  .globl pango_attr_iterator_destroy
  .p2align 4
  .type pango_attr_iterator_destroy, %function
#ifndef IMPLIB_EXPORT_SHIMS
  .hidden pango_attr_iterator_destroy
#endif
pango_attr_iterator_destroy:
  .cfi_startproc

1:
  // Load address
  // TODO: can we do this faster on newer ARMs?
  ldr ip, 3f
2:
  add ip, pc, ip
  ldr ip, [ip]

  cmp ip, #0

  // Fast path
  bxne ip

  // Slow path
  ldr ip, =17
  push {ip}
  .cfi_adjust_cfa_offset 4
  PUSH_REG(lr)
  bl _libpango_1_0_so_save_regs_and_resolve
  POP_REG(lr)
  add sp, #4
  .cfi_adjust_cfa_offset -4
  bx ip

  // Force constant pool for ldr above
  .ltorg

  .cfi_endproc

3:
  .word _libpango_1_0_so_tramp_table - (2b + 8) + 68

/*
 * Copyright 2018-2025 Yury Gribov
 *
 * The MIT License (MIT)
 *
 * Use of this source code is governed by MIT license that can be
 * found in the LICENSE.txt file.
 */

  .globl pango_attr_iterator_get
  .p2align 4
  .type pango_attr_iterator_get, %function
#ifndef IMPLIB_EXPORT_SHIMS
  .hidden pango_attr_iterator_get
#endif
pango_attr_iterator_get:
  .cfi_startproc

1:
  // Load address
  // TODO: can we do this faster on newer ARMs?
  ldr ip, 3f
2:
  add ip, pc, ip
  ldr ip, [ip]

  cmp ip, #0

  // Fast path
  bxne ip

  // Slow path
  ldr ip, =18
  push {ip}
  .cfi_adjust_cfa_offset 4
  PUSH_REG(lr)
  bl _libpango_1_0_so_save_regs_and_resolve
  POP_REG(lr)
  add sp, #4
  .cfi_adjust_cfa_offset -4
  bx ip

  // Force constant pool for ldr above
  .ltorg

  .cfi_endproc

3:
  .word _libpango_1_0_so_tramp_table - (2b + 8) + 72

/*
 * Copyright 2018-2025 Yury Gribov
 *
 * The MIT License (MIT)
 *
 * Use of this source code is governed by MIT license that can be
 * found in the LICENSE.txt file.
 */

  .globl pango_attr_iterator_get_attrs
  .p2align 4
  .type pango_attr_iterator_get_attrs, %function
#ifndef IMPLIB_EXPORT_SHIMS
  .hidden pango_attr_iterator_get_attrs
#endif
pango_attr_iterator_get_attrs:
  .cfi_startproc

1:
  // Load address
  // TODO: can we do this faster on newer ARMs?
  ldr ip, 3f
2:
  add ip, pc, ip
  ldr ip, [ip]

  cmp ip, #0

  // Fast path
  bxne ip

  // Slow path
  ldr ip, =19
  push {ip}
  .cfi_adjust_cfa_offset 4
  PUSH_REG(lr)
  bl _libpango_1_0_so_save_regs_and_resolve
  POP_REG(lr)
  add sp, #4
  .cfi_adjust_cfa_offset -4
  bx ip

  // Force constant pool for ldr above
  .ltorg

  .cfi_endproc

3:
  .word _libpango_1_0_so_tramp_table - (2b + 8) + 76

/*
 * Copyright 2018-2025 Yury Gribov
 *
 * The MIT License (MIT)
 *
 * Use of this source code is governed by MIT license that can be
 * found in the LICENSE.txt file.
 */

  .globl pango_attr_iterator_get_font
  .p2align 4
  .type pango_attr_iterator_get_font, %function
#ifndef IMPLIB_EXPORT_SHIMS
  .hidden pango_attr_iterator_get_font
#endif
pango_attr_iterator_get_font:
  .cfi_startproc

1:
  // Load address
  // TODO: can we do this faster on newer ARMs?
  ldr ip, 3f
2:
  add ip, pc, ip
  ldr ip, [ip]

  cmp ip, #0

  // Fast path
  bxne ip

  // Slow path
  ldr ip, =20
  push {ip}
  .cfi_adjust_cfa_offset 4
  PUSH_REG(lr)
  bl _libpango_1_0_so_save_regs_and_resolve
  POP_REG(lr)
  add sp, #4
  .cfi_adjust_cfa_offset -4
  bx ip

  // Force constant pool for ldr above
  .ltorg

  .cfi_endproc

3:
  .word _libpango_1_0_so_tramp_table - (2b + 8) + 80

/*
 * Copyright 2018-2025 Yury Gribov
 *
 * The MIT License (MIT)
 *
 * Use of this source code is governed by MIT license that can be
 * found in the LICENSE.txt file.
 */

  .globl pango_attr_iterator_get_type
  .p2align 4
  .type pango_attr_iterator_get_type, %function
#ifndef IMPLIB_EXPORT_SHIMS
  .hidden pango_attr_iterator_get_type
#endif
pango_attr_iterator_get_type:
  .cfi_startproc

1:
  // Load address
  // TODO: can we do this faster on newer ARMs?
  ldr ip, 3f
2:
  add ip, pc, ip
  ldr ip, [ip]

  cmp ip, #0

  // Fast path
  bxne ip

  // Slow path
  ldr ip, =21
  push {ip}
  .cfi_adjust_cfa_offset 4
  PUSH_REG(lr)
  bl _libpango_1_0_so_save_regs_and_resolve
  POP_REG(lr)
  add sp, #4
  .cfi_adjust_cfa_offset -4
  bx ip

  // Force constant pool for ldr above
  .ltorg

  .cfi_endproc

3:
  .word _libpango_1_0_so_tramp_table - (2b + 8) + 84

/*
 * Copyright 2018-2025 Yury Gribov
 *
 * The MIT License (MIT)
 *
 * Use of this source code is governed by MIT license that can be
 * found in the LICENSE.txt file.
 */

  .globl pango_attr_iterator_next
  .p2align 4
  .type pango_attr_iterator_next, %function
#ifndef IMPLIB_EXPORT_SHIMS
  .hidden pango_attr_iterator_next
#endif
pango_attr_iterator_next:
  .cfi_startproc

1:
  // Load address
  // TODO: can we do this faster on newer ARMs?
  ldr ip, 3f
2:
  add ip, pc, ip
  ldr ip, [ip]

  cmp ip, #0

  // Fast path
  bxne ip

  // Slow path
  ldr ip, =22
  push {ip}
  .cfi_adjust_cfa_offset 4
  PUSH_REG(lr)
  bl _libpango_1_0_so_save_regs_and_resolve
  POP_REG(lr)
  add sp, #4
  .cfi_adjust_cfa_offset -4
  bx ip

  // Force constant pool for ldr above
  .ltorg

  .cfi_endproc

3:
  .word _libpango_1_0_so_tramp_table - (2b + 8) + 88

/*
 * Copyright 2018-2025 Yury Gribov
 *
 * The MIT License (MIT)
 *
 * Use of this source code is governed by MIT license that can be
 * found in the LICENSE.txt file.
 */

  .globl pango_attr_iterator_range
  .p2align 4
  .type pango_attr_iterator_range, %function
#ifndef IMPLIB_EXPORT_SHIMS
  .hidden pango_attr_iterator_range
#endif
pango_attr_iterator_range:
  .cfi_startproc

1:
  // Load address
  // TODO: can we do this faster on newer ARMs?
  ldr ip, 3f
2:
  add ip, pc, ip
  ldr ip, [ip]

  cmp ip, #0

  // Fast path
  bxne ip

  // Slow path
  ldr ip, =23
  push {ip}
  .cfi_adjust_cfa_offset 4
  PUSH_REG(lr)
  bl _libpango_1_0_so_save_regs_and_resolve
  POP_REG(lr)
  add sp, #4
  .cfi_adjust_cfa_offset -4
  bx ip

  // Force constant pool for ldr above
  .ltorg

  .cfi_endproc

3:
  .word _libpango_1_0_so_tramp_table - (2b + 8) + 92

/*
 * Copyright 2018-2025 Yury Gribov
 *
 * The MIT License (MIT)
 *
 * Use of this source code is governed by MIT license that can be
 * found in the LICENSE.txt file.
 */

  .globl pango_attr_language_new
  .p2align 4
  .type pango_attr_language_new, %function
#ifndef IMPLIB_EXPORT_SHIMS
  .hidden pango_attr_language_new
#endif
pango_attr_language_new:
  .cfi_startproc

1:
  // Load address
  // TODO: can we do this faster on newer ARMs?
  ldr ip, 3f
2:
  add ip, pc, ip
  ldr ip, [ip]

  cmp ip, #0

  // Fast path
  bxne ip

  // Slow path
  ldr ip, =24
  push {ip}
  .cfi_adjust_cfa_offset 4
  PUSH_REG(lr)
  bl _libpango_1_0_so_save_regs_and_resolve
  POP_REG(lr)
  add sp, #4
  .cfi_adjust_cfa_offset -4
  bx ip

  // Force constant pool for ldr above
  .ltorg

  .cfi_endproc

3:
  .word _libpango_1_0_so_tramp_table - (2b + 8) + 96

/*
 * Copyright 2018-2025 Yury Gribov
 *
 * The MIT License (MIT)
 *
 * Use of this source code is governed by MIT license that can be
 * found in the LICENSE.txt file.
 */

  .globl pango_attr_letter_spacing_new
  .p2align 4
  .type pango_attr_letter_spacing_new, %function
#ifndef IMPLIB_EXPORT_SHIMS
  .hidden pango_attr_letter_spacing_new
#endif
pango_attr_letter_spacing_new:
  .cfi_startproc

1:
  // Load address
  // TODO: can we do this faster on newer ARMs?
  ldr ip, 3f
2:
  add ip, pc, ip
  ldr ip, [ip]

  cmp ip, #0

  // Fast path
  bxne ip

  // Slow path
  ldr ip, =25
  push {ip}
  .cfi_adjust_cfa_offset 4
  PUSH_REG(lr)
  bl _libpango_1_0_so_save_regs_and_resolve
  POP_REG(lr)
  add sp, #4
  .cfi_adjust_cfa_offset -4
  bx ip

  // Force constant pool for ldr above
  .ltorg

  .cfi_endproc

3:
  .word _libpango_1_0_so_tramp_table - (2b + 8) + 100

/*
 * Copyright 2018-2025 Yury Gribov
 *
 * The MIT License (MIT)
 *
 * Use of this source code is governed by MIT license that can be
 * found in the LICENSE.txt file.
 */

  .globl pango_attr_line_height_new
  .p2align 4
  .type pango_attr_line_height_new, %function
#ifndef IMPLIB_EXPORT_SHIMS
  .hidden pango_attr_line_height_new
#endif
pango_attr_line_height_new:
  .cfi_startproc

1:
  // Load address
  // TODO: can we do this faster on newer ARMs?
  ldr ip, 3f
2:
  add ip, pc, ip
  ldr ip, [ip]

  cmp ip, #0

  // Fast path
  bxne ip

  // Slow path
  ldr ip, =26
  push {ip}
  .cfi_adjust_cfa_offset 4
  PUSH_REG(lr)
  bl _libpango_1_0_so_save_regs_and_resolve
  POP_REG(lr)
  add sp, #4
  .cfi_adjust_cfa_offset -4
  bx ip

  // Force constant pool for ldr above
  .ltorg

  .cfi_endproc

3:
  .word _libpango_1_0_so_tramp_table - (2b + 8) + 104

/*
 * Copyright 2018-2025 Yury Gribov
 *
 * The MIT License (MIT)
 *
 * Use of this source code is governed by MIT license that can be
 * found in the LICENSE.txt file.
 */

  .globl pango_attr_line_height_new_absolute
  .p2align 4
  .type pango_attr_line_height_new_absolute, %function
#ifndef IMPLIB_EXPORT_SHIMS
  .hidden pango_attr_line_height_new_absolute
#endif
pango_attr_line_height_new_absolute:
  .cfi_startproc

1:
  // Load address
  // TODO: can we do this faster on newer ARMs?
  ldr ip, 3f
2:
  add ip, pc, ip
  ldr ip, [ip]

  cmp ip, #0

  // Fast path
  bxne ip

  // Slow path
  ldr ip, =27
  push {ip}
  .cfi_adjust_cfa_offset 4
  PUSH_REG(lr)
  bl _libpango_1_0_so_save_regs_and_resolve
  POP_REG(lr)
  add sp, #4
  .cfi_adjust_cfa_offset -4
  bx ip

  // Force constant pool for ldr above
  .ltorg

  .cfi_endproc

3:
  .word _libpango_1_0_so_tramp_table - (2b + 8) + 108

/*
 * Copyright 2018-2025 Yury Gribov
 *
 * The MIT License (MIT)
 *
 * Use of this source code is governed by MIT license that can be
 * found in the LICENSE.txt file.
 */

  .globl pango_attr_list_change
  .p2align 4
  .type pango_attr_list_change, %function
#ifndef IMPLIB_EXPORT_SHIMS
  .hidden pango_attr_list_change
#endif
pango_attr_list_change:
  .cfi_startproc

1:
  // Load address
  // TODO: can we do this faster on newer ARMs?
  ldr ip, 3f
2:
  add ip, pc, ip
  ldr ip, [ip]

  cmp ip, #0

  // Fast path
  bxne ip

  // Slow path
  ldr ip, =28
  push {ip}
  .cfi_adjust_cfa_offset 4
  PUSH_REG(lr)
  bl _libpango_1_0_so_save_regs_and_resolve
  POP_REG(lr)
  add sp, #4
  .cfi_adjust_cfa_offset -4
  bx ip

  // Force constant pool for ldr above
  .ltorg

  .cfi_endproc

3:
  .word _libpango_1_0_so_tramp_table - (2b + 8) + 112

/*
 * Copyright 2018-2025 Yury Gribov
 *
 * The MIT License (MIT)
 *
 * Use of this source code is governed by MIT license that can be
 * found in the LICENSE.txt file.
 */

  .globl pango_attr_list_copy
  .p2align 4
  .type pango_attr_list_copy, %function
#ifndef IMPLIB_EXPORT_SHIMS
  .hidden pango_attr_list_copy
#endif
pango_attr_list_copy:
  .cfi_startproc

1:
  // Load address
  // TODO: can we do this faster on newer ARMs?
  ldr ip, 3f
2:
  add ip, pc, ip
  ldr ip, [ip]

  cmp ip, #0

  // Fast path
  bxne ip

  // Slow path
  ldr ip, =29
  push {ip}
  .cfi_adjust_cfa_offset 4
  PUSH_REG(lr)
  bl _libpango_1_0_so_save_regs_and_resolve
  POP_REG(lr)
  add sp, #4
  .cfi_adjust_cfa_offset -4
  bx ip

  // Force constant pool for ldr above
  .ltorg

  .cfi_endproc

3:
  .word _libpango_1_0_so_tramp_table - (2b + 8) + 116

/*
 * Copyright 2018-2025 Yury Gribov
 *
 * The MIT License (MIT)
 *
 * Use of this source code is governed by MIT license that can be
 * found in the LICENSE.txt file.
 */

  .globl pango_attr_list_equal
  .p2align 4
  .type pango_attr_list_equal, %function
#ifndef IMPLIB_EXPORT_SHIMS
  .hidden pango_attr_list_equal
#endif
pango_attr_list_equal:
  .cfi_startproc

1:
  // Load address
  // TODO: can we do this faster on newer ARMs?
  ldr ip, 3f
2:
  add ip, pc, ip
  ldr ip, [ip]

  cmp ip, #0

  // Fast path
  bxne ip

  // Slow path
  ldr ip, =30
  push {ip}
  .cfi_adjust_cfa_offset 4
  PUSH_REG(lr)
  bl _libpango_1_0_so_save_regs_and_resolve
  POP_REG(lr)
  add sp, #4
  .cfi_adjust_cfa_offset -4
  bx ip

  // Force constant pool for ldr above
  .ltorg

  .cfi_endproc

3:
  .word _libpango_1_0_so_tramp_table - (2b + 8) + 120

/*
 * Copyright 2018-2025 Yury Gribov
 *
 * The MIT License (MIT)
 *
 * Use of this source code is governed by MIT license that can be
 * found in the LICENSE.txt file.
 */

  .globl pango_attr_list_filter
  .p2align 4
  .type pango_attr_list_filter, %function
#ifndef IMPLIB_EXPORT_SHIMS
  .hidden pango_attr_list_filter
#endif
pango_attr_list_filter:
  .cfi_startproc

1:
  // Load address
  // TODO: can we do this faster on newer ARMs?
  ldr ip, 3f
2:
  add ip, pc, ip
  ldr ip, [ip]

  cmp ip, #0

  // Fast path
  bxne ip

  // Slow path
  ldr ip, =31
  push {ip}
  .cfi_adjust_cfa_offset 4
  PUSH_REG(lr)
  bl _libpango_1_0_so_save_regs_and_resolve
  POP_REG(lr)
  add sp, #4
  .cfi_adjust_cfa_offset -4
  bx ip

  // Force constant pool for ldr above
  .ltorg

  .cfi_endproc

3:
  .word _libpango_1_0_so_tramp_table - (2b + 8) + 124

/*
 * Copyright 2018-2025 Yury Gribov
 *
 * The MIT License (MIT)
 *
 * Use of this source code is governed by MIT license that can be
 * found in the LICENSE.txt file.
 */

  .globl pango_attr_list_from_string
  .p2align 4
  .type pango_attr_list_from_string, %function
#ifndef IMPLIB_EXPORT_SHIMS
  .hidden pango_attr_list_from_string
#endif
pango_attr_list_from_string:
  .cfi_startproc

1:
  // Load address
  // TODO: can we do this faster on newer ARMs?
  ldr ip, 3f
2:
  add ip, pc, ip
  ldr ip, [ip]

  cmp ip, #0

  // Fast path
  bxne ip

  // Slow path
  ldr ip, =32
  push {ip}
  .cfi_adjust_cfa_offset 4
  PUSH_REG(lr)
  bl _libpango_1_0_so_save_regs_and_resolve
  POP_REG(lr)
  add sp, #4
  .cfi_adjust_cfa_offset -4
  bx ip

  // Force constant pool for ldr above
  .ltorg

  .cfi_endproc

3:
  .word _libpango_1_0_so_tramp_table - (2b + 8) + 128

/*
 * Copyright 2018-2025 Yury Gribov
 *
 * The MIT License (MIT)
 *
 * Use of this source code is governed by MIT license that can be
 * found in the LICENSE.txt file.
 */

  .globl pango_attr_list_get_attributes
  .p2align 4
  .type pango_attr_list_get_attributes, %function
#ifndef IMPLIB_EXPORT_SHIMS
  .hidden pango_attr_list_get_attributes
#endif
pango_attr_list_get_attributes:
  .cfi_startproc

1:
  // Load address
  // TODO: can we do this faster on newer ARMs?
  ldr ip, 3f
2:
  add ip, pc, ip
  ldr ip, [ip]

  cmp ip, #0

  // Fast path
  bxne ip

  // Slow path
  ldr ip, =33
  push {ip}
  .cfi_adjust_cfa_offset 4
  PUSH_REG(lr)
  bl _libpango_1_0_so_save_regs_and_resolve
  POP_REG(lr)
  add sp, #4
  .cfi_adjust_cfa_offset -4
  bx ip

  // Force constant pool for ldr above
  .ltorg

  .cfi_endproc

3:
  .word _libpango_1_0_so_tramp_table - (2b + 8) + 132

/*
 * Copyright 2018-2025 Yury Gribov
 *
 * The MIT License (MIT)
 *
 * Use of this source code is governed by MIT license that can be
 * found in the LICENSE.txt file.
 */

  .globl pango_attr_list_get_iterator
  .p2align 4
  .type pango_attr_list_get_iterator, %function
#ifndef IMPLIB_EXPORT_SHIMS
  .hidden pango_attr_list_get_iterator
#endif
pango_attr_list_get_iterator:
  .cfi_startproc

1:
  // Load address
  // TODO: can we do this faster on newer ARMs?
  ldr ip, 3f
2:
  add ip, pc, ip
  ldr ip, [ip]

  cmp ip, #0

  // Fast path
  bxne ip

  // Slow path
  ldr ip, =34
  push {ip}
  .cfi_adjust_cfa_offset 4
  PUSH_REG(lr)
  bl _libpango_1_0_so_save_regs_and_resolve
  POP_REG(lr)
  add sp, #4
  .cfi_adjust_cfa_offset -4
  bx ip

  // Force constant pool for ldr above
  .ltorg

  .cfi_endproc

3:
  .word _libpango_1_0_so_tramp_table - (2b + 8) + 136

/*
 * Copyright 2018-2025 Yury Gribov
 *
 * The MIT License (MIT)
 *
 * Use of this source code is governed by MIT license that can be
 * found in the LICENSE.txt file.
 */

  .globl pango_attr_list_get_type
  .p2align 4
  .type pango_attr_list_get_type, %function
#ifndef IMPLIB_EXPORT_SHIMS
  .hidden pango_attr_list_get_type
#endif
pango_attr_list_get_type:
  .cfi_startproc

1:
  // Load address
  // TODO: can we do this faster on newer ARMs?
  ldr ip, 3f
2:
  add ip, pc, ip
  ldr ip, [ip]

  cmp ip, #0

  // Fast path
  bxne ip

  // Slow path
  ldr ip, =35
  push {ip}
  .cfi_adjust_cfa_offset 4
  PUSH_REG(lr)
  bl _libpango_1_0_so_save_regs_and_resolve
  POP_REG(lr)
  add sp, #4
  .cfi_adjust_cfa_offset -4
  bx ip

  // Force constant pool for ldr above
  .ltorg

  .cfi_endproc

3:
  .word _libpango_1_0_so_tramp_table - (2b + 8) + 140

/*
 * Copyright 2018-2025 Yury Gribov
 *
 * The MIT License (MIT)
 *
 * Use of this source code is governed by MIT license that can be
 * found in the LICENSE.txt file.
 */

  .globl pango_attr_list_insert
  .p2align 4
  .type pango_attr_list_insert, %function
#ifndef IMPLIB_EXPORT_SHIMS
  .hidden pango_attr_list_insert
#endif
pango_attr_list_insert:
  .cfi_startproc

1:
  // Load address
  // TODO: can we do this faster on newer ARMs?
  ldr ip, 3f
2:
  add ip, pc, ip
  ldr ip, [ip]

  cmp ip, #0

  // Fast path
  bxne ip

  // Slow path
  ldr ip, =36
  push {ip}
  .cfi_adjust_cfa_offset 4
  PUSH_REG(lr)
  bl _libpango_1_0_so_save_regs_and_resolve
  POP_REG(lr)
  add sp, #4
  .cfi_adjust_cfa_offset -4
  bx ip

  // Force constant pool for ldr above
  .ltorg

  .cfi_endproc

3:
  .word _libpango_1_0_so_tramp_table - (2b + 8) + 144

/*
 * Copyright 2018-2025 Yury Gribov
 *
 * The MIT License (MIT)
 *
 * Use of this source code is governed by MIT license that can be
 * found in the LICENSE.txt file.
 */

  .globl pango_attr_list_insert_before
  .p2align 4
  .type pango_attr_list_insert_before, %function
#ifndef IMPLIB_EXPORT_SHIMS
  .hidden pango_attr_list_insert_before
#endif
pango_attr_list_insert_before:
  .cfi_startproc

1:
  // Load address
  // TODO: can we do this faster on newer ARMs?
  ldr ip, 3f
2:
  add ip, pc, ip
  ldr ip, [ip]

  cmp ip, #0

  // Fast path
  bxne ip

  // Slow path
  ldr ip, =37
  push {ip}
  .cfi_adjust_cfa_offset 4
  PUSH_REG(lr)
  bl _libpango_1_0_so_save_regs_and_resolve
  POP_REG(lr)
  add sp, #4
  .cfi_adjust_cfa_offset -4
  bx ip

  // Force constant pool for ldr above
  .ltorg

  .cfi_endproc

3:
  .word _libpango_1_0_so_tramp_table - (2b + 8) + 148

/*
 * Copyright 2018-2025 Yury Gribov
 *
 * The MIT License (MIT)
 *
 * Use of this source code is governed by MIT license that can be
 * found in the LICENSE.txt file.
 */

  .globl pango_attr_list_new
  .p2align 4
  .type pango_attr_list_new, %function
#ifndef IMPLIB_EXPORT_SHIMS
  .hidden pango_attr_list_new
#endif
pango_attr_list_new:
  .cfi_startproc

1:
  // Load address
  // TODO: can we do this faster on newer ARMs?
  ldr ip, 3f
2:
  add ip, pc, ip
  ldr ip, [ip]

  cmp ip, #0

  // Fast path
  bxne ip

  // Slow path
  ldr ip, =38
  push {ip}
  .cfi_adjust_cfa_offset 4
  PUSH_REG(lr)
  bl _libpango_1_0_so_save_regs_and_resolve
  POP_REG(lr)
  add sp, #4
  .cfi_adjust_cfa_offset -4
  bx ip

  // Force constant pool for ldr above
  .ltorg

  .cfi_endproc

3:
  .word _libpango_1_0_so_tramp_table - (2b + 8) + 152

/*
 * Copyright 2018-2025 Yury Gribov
 *
 * The MIT License (MIT)
 *
 * Use of this source code is governed by MIT license that can be
 * found in the LICENSE.txt file.
 */

  .globl pango_attr_list_ref
  .p2align 4
  .type pango_attr_list_ref, %function
#ifndef IMPLIB_EXPORT_SHIMS
  .hidden pango_attr_list_ref
#endif
pango_attr_list_ref:
  .cfi_startproc

1:
  // Load address
  // TODO: can we do this faster on newer ARMs?
  ldr ip, 3f
2:
  add ip, pc, ip
  ldr ip, [ip]

  cmp ip, #0

  // Fast path
  bxne ip

  // Slow path
  ldr ip, =39
  push {ip}
  .cfi_adjust_cfa_offset 4
  PUSH_REG(lr)
  bl _libpango_1_0_so_save_regs_and_resolve
  POP_REG(lr)
  add sp, #4
  .cfi_adjust_cfa_offset -4
  bx ip

  // Force constant pool for ldr above
  .ltorg

  .cfi_endproc

3:
  .word _libpango_1_0_so_tramp_table - (2b + 8) + 156

/*
 * Copyright 2018-2025 Yury Gribov
 *
 * The MIT License (MIT)
 *
 * Use of this source code is governed by MIT license that can be
 * found in the LICENSE.txt file.
 */

  .globl pango_attr_list_splice
  .p2align 4
  .type pango_attr_list_splice, %function
#ifndef IMPLIB_EXPORT_SHIMS
  .hidden pango_attr_list_splice
#endif
pango_attr_list_splice:
  .cfi_startproc

1:
  // Load address
  // TODO: can we do this faster on newer ARMs?
  ldr ip, 3f
2:
  add ip, pc, ip
  ldr ip, [ip]

  cmp ip, #0

  // Fast path
  bxne ip

  // Slow path
  ldr ip, =40
  push {ip}
  .cfi_adjust_cfa_offset 4
  PUSH_REG(lr)
  bl _libpango_1_0_so_save_regs_and_resolve
  POP_REG(lr)
  add sp, #4
  .cfi_adjust_cfa_offset -4
  bx ip

  // Force constant pool for ldr above
  .ltorg

  .cfi_endproc

3:
  .word _libpango_1_0_so_tramp_table - (2b + 8) + 160

/*
 * Copyright 2018-2025 Yury Gribov
 *
 * The MIT License (MIT)
 *
 * Use of this source code is governed by MIT license that can be
 * found in the LICENSE.txt file.
 */

  .globl pango_attr_list_to_string
  .p2align 4
  .type pango_attr_list_to_string, %function
#ifndef IMPLIB_EXPORT_SHIMS
  .hidden pango_attr_list_to_string
#endif
pango_attr_list_to_string:
  .cfi_startproc

1:
  // Load address
  // TODO: can we do this faster on newer ARMs?
  ldr ip, 3f
2:
  add ip, pc, ip
  ldr ip, [ip]

  cmp ip, #0

  // Fast path
  bxne ip

  // Slow path
  ldr ip, =41
  push {ip}
  .cfi_adjust_cfa_offset 4
  PUSH_REG(lr)
  bl _libpango_1_0_so_save_regs_and_resolve
  POP_REG(lr)
  add sp, #4
  .cfi_adjust_cfa_offset -4
  bx ip

  // Force constant pool for ldr above
  .ltorg

  .cfi_endproc

3:
  .word _libpango_1_0_so_tramp_table - (2b + 8) + 164

/*
 * Copyright 2018-2025 Yury Gribov
 *
 * The MIT License (MIT)
 *
 * Use of this source code is governed by MIT license that can be
 * found in the LICENSE.txt file.
 */

  .globl pango_attr_list_unref
  .p2align 4
  .type pango_attr_list_unref, %function
#ifndef IMPLIB_EXPORT_SHIMS
  .hidden pango_attr_list_unref
#endif
pango_attr_list_unref:
  .cfi_startproc

1:
  // Load address
  // TODO: can we do this faster on newer ARMs?
  ldr ip, 3f
2:
  add ip, pc, ip
  ldr ip, [ip]

  cmp ip, #0

  // Fast path
  bxne ip

  // Slow path
  ldr ip, =42
  push {ip}
  .cfi_adjust_cfa_offset 4
  PUSH_REG(lr)
  bl _libpango_1_0_so_save_regs_and_resolve
  POP_REG(lr)
  add sp, #4
  .cfi_adjust_cfa_offset -4
  bx ip

  // Force constant pool for ldr above
  .ltorg

  .cfi_endproc

3:
  .word _libpango_1_0_so_tramp_table - (2b + 8) + 168

/*
 * Copyright 2018-2025 Yury Gribov
 *
 * The MIT License (MIT)
 *
 * Use of this source code is governed by MIT license that can be
 * found in the LICENSE.txt file.
 */

  .globl pango_attr_list_update
  .p2align 4
  .type pango_attr_list_update, %function
#ifndef IMPLIB_EXPORT_SHIMS
  .hidden pango_attr_list_update
#endif
pango_attr_list_update:
  .cfi_startproc

1:
  // Load address
  // TODO: can we do this faster on newer ARMs?
  ldr ip, 3f
2:
  add ip, pc, ip
  ldr ip, [ip]

  cmp ip, #0

  // Fast path
  bxne ip

  // Slow path
  ldr ip, =43
  push {ip}
  .cfi_adjust_cfa_offset 4
  PUSH_REG(lr)
  bl _libpango_1_0_so_save_regs_and_resolve
  POP_REG(lr)
  add sp, #4
  .cfi_adjust_cfa_offset -4
  bx ip

  // Force constant pool for ldr above
  .ltorg

  .cfi_endproc

3:
  .word _libpango_1_0_so_tramp_table - (2b + 8) + 172

/*
 * Copyright 2018-2025 Yury Gribov
 *
 * The MIT License (MIT)
 *
 * Use of this source code is governed by MIT license that can be
 * found in the LICENSE.txt file.
 */

  .globl pango_attr_overline_color_new
  .p2align 4
  .type pango_attr_overline_color_new, %function
#ifndef IMPLIB_EXPORT_SHIMS
  .hidden pango_attr_overline_color_new
#endif
pango_attr_overline_color_new:
  .cfi_startproc

1:
  // Load address
  // TODO: can we do this faster on newer ARMs?
  ldr ip, 3f
2:
  add ip, pc, ip
  ldr ip, [ip]

  cmp ip, #0

  // Fast path
  bxne ip

  // Slow path
  ldr ip, =44
  push {ip}
  .cfi_adjust_cfa_offset 4
  PUSH_REG(lr)
  bl _libpango_1_0_so_save_regs_and_resolve
  POP_REG(lr)
  add sp, #4
  .cfi_adjust_cfa_offset -4
  bx ip

  // Force constant pool for ldr above
  .ltorg

  .cfi_endproc

3:
  .word _libpango_1_0_so_tramp_table - (2b + 8) + 176

/*
 * Copyright 2018-2025 Yury Gribov
 *
 * The MIT License (MIT)
 *
 * Use of this source code is governed by MIT license that can be
 * found in the LICENSE.txt file.
 */

  .globl pango_attr_overline_new
  .p2align 4
  .type pango_attr_overline_new, %function
#ifndef IMPLIB_EXPORT_SHIMS
  .hidden pango_attr_overline_new
#endif
pango_attr_overline_new:
  .cfi_startproc

1:
  // Load address
  // TODO: can we do this faster on newer ARMs?
  ldr ip, 3f
2:
  add ip, pc, ip
  ldr ip, [ip]

  cmp ip, #0

  // Fast path
  bxne ip

  // Slow path
  ldr ip, =45
  push {ip}
  .cfi_adjust_cfa_offset 4
  PUSH_REG(lr)
  bl _libpango_1_0_so_save_regs_and_resolve
  POP_REG(lr)
  add sp, #4
  .cfi_adjust_cfa_offset -4
  bx ip

  // Force constant pool for ldr above
  .ltorg

  .cfi_endproc

3:
  .word _libpango_1_0_so_tramp_table - (2b + 8) + 180

/*
 * Copyright 2018-2025 Yury Gribov
 *
 * The MIT License (MIT)
 *
 * Use of this source code is governed by MIT license that can be
 * found in the LICENSE.txt file.
 */

  .globl pango_attr_rise_new
  .p2align 4
  .type pango_attr_rise_new, %function
#ifndef IMPLIB_EXPORT_SHIMS
  .hidden pango_attr_rise_new
#endif
pango_attr_rise_new:
  .cfi_startproc

1:
  // Load address
  // TODO: can we do this faster on newer ARMs?
  ldr ip, 3f
2:
  add ip, pc, ip
  ldr ip, [ip]

  cmp ip, #0

  // Fast path
  bxne ip

  // Slow path
  ldr ip, =46
  push {ip}
  .cfi_adjust_cfa_offset 4
  PUSH_REG(lr)
  bl _libpango_1_0_so_save_regs_and_resolve
  POP_REG(lr)
  add sp, #4
  .cfi_adjust_cfa_offset -4
  bx ip

  // Force constant pool for ldr above
  .ltorg

  .cfi_endproc

3:
  .word _libpango_1_0_so_tramp_table - (2b + 8) + 184

/*
 * Copyright 2018-2025 Yury Gribov
 *
 * The MIT License (MIT)
 *
 * Use of this source code is governed by MIT license that can be
 * found in the LICENSE.txt file.
 */

  .globl pango_attr_scale_new
  .p2align 4
  .type pango_attr_scale_new, %function
#ifndef IMPLIB_EXPORT_SHIMS
  .hidden pango_attr_scale_new
#endif
pango_attr_scale_new:
  .cfi_startproc

1:
  // Load address
  // TODO: can we do this faster on newer ARMs?
  ldr ip, 3f
2:
  add ip, pc, ip
  ldr ip, [ip]

  cmp ip, #0

  // Fast path
  bxne ip

  // Slow path
  ldr ip, =47
  push {ip}
  .cfi_adjust_cfa_offset 4
  PUSH_REG(lr)
  bl _libpango_1_0_so_save_regs_and_resolve
  POP_REG(lr)
  add sp, #4
  .cfi_adjust_cfa_offset -4
  bx ip

  // Force constant pool for ldr above
  .ltorg

  .cfi_endproc

3:
  .word _libpango_1_0_so_tramp_table - (2b + 8) + 188

/*
 * Copyright 2018-2025 Yury Gribov
 *
 * The MIT License (MIT)
 *
 * Use of this source code is governed by MIT license that can be
 * found in the LICENSE.txt file.
 */

  .globl pango_attr_sentence_new
  .p2align 4
  .type pango_attr_sentence_new, %function
#ifndef IMPLIB_EXPORT_SHIMS
  .hidden pango_attr_sentence_new
#endif
pango_attr_sentence_new:
  .cfi_startproc

1:
  // Load address
  // TODO: can we do this faster on newer ARMs?
  ldr ip, 3f
2:
  add ip, pc, ip
  ldr ip, [ip]

  cmp ip, #0

  // Fast path
  bxne ip

  // Slow path
  ldr ip, =48
  push {ip}
  .cfi_adjust_cfa_offset 4
  PUSH_REG(lr)
  bl _libpango_1_0_so_save_regs_and_resolve
  POP_REG(lr)
  add sp, #4
  .cfi_adjust_cfa_offset -4
  bx ip

  // Force constant pool for ldr above
  .ltorg

  .cfi_endproc

3:
  .word _libpango_1_0_so_tramp_table - (2b + 8) + 192

/*
 * Copyright 2018-2025 Yury Gribov
 *
 * The MIT License (MIT)
 *
 * Use of this source code is governed by MIT license that can be
 * found in the LICENSE.txt file.
 */

  .globl pango_attr_shape_new
  .p2align 4
  .type pango_attr_shape_new, %function
#ifndef IMPLIB_EXPORT_SHIMS
  .hidden pango_attr_shape_new
#endif
pango_attr_shape_new:
  .cfi_startproc

1:
  // Load address
  // TODO: can we do this faster on newer ARMs?
  ldr ip, 3f
2:
  add ip, pc, ip
  ldr ip, [ip]

  cmp ip, #0

  // Fast path
  bxne ip

  // Slow path
  ldr ip, =49
  push {ip}
  .cfi_adjust_cfa_offset 4
  PUSH_REG(lr)
  bl _libpango_1_0_so_save_regs_and_resolve
  POP_REG(lr)
  add sp, #4
  .cfi_adjust_cfa_offset -4
  bx ip

  // Force constant pool for ldr above
  .ltorg

  .cfi_endproc

3:
  .word _libpango_1_0_so_tramp_table - (2b + 8) + 196

/*
 * Copyright 2018-2025 Yury Gribov
 *
 * The MIT License (MIT)
 *
 * Use of this source code is governed by MIT license that can be
 * found in the LICENSE.txt file.
 */

  .globl pango_attr_shape_new_with_data
  .p2align 4
  .type pango_attr_shape_new_with_data, %function
#ifndef IMPLIB_EXPORT_SHIMS
  .hidden pango_attr_shape_new_with_data
#endif
pango_attr_shape_new_with_data:
  .cfi_startproc

1:
  // Load address
  // TODO: can we do this faster on newer ARMs?
  ldr ip, 3f
2:
  add ip, pc, ip
  ldr ip, [ip]

  cmp ip, #0

  // Fast path
  bxne ip

  // Slow path
  ldr ip, =50
  push {ip}
  .cfi_adjust_cfa_offset 4
  PUSH_REG(lr)
  bl _libpango_1_0_so_save_regs_and_resolve
  POP_REG(lr)
  add sp, #4
  .cfi_adjust_cfa_offset -4
  bx ip

  // Force constant pool for ldr above
  .ltorg

  .cfi_endproc

3:
  .word _libpango_1_0_so_tramp_table - (2b + 8) + 200

/*
 * Copyright 2018-2025 Yury Gribov
 *
 * The MIT License (MIT)
 *
 * Use of this source code is governed by MIT license that can be
 * found in the LICENSE.txt file.
 */

  .globl pango_attr_show_new
  .p2align 4
  .type pango_attr_show_new, %function
#ifndef IMPLIB_EXPORT_SHIMS
  .hidden pango_attr_show_new
#endif
pango_attr_show_new:
  .cfi_startproc

1:
  // Load address
  // TODO: can we do this faster on newer ARMs?
  ldr ip, 3f
2:
  add ip, pc, ip
  ldr ip, [ip]

  cmp ip, #0

  // Fast path
  bxne ip

  // Slow path
  ldr ip, =51
  push {ip}
  .cfi_adjust_cfa_offset 4
  PUSH_REG(lr)
  bl _libpango_1_0_so_save_regs_and_resolve
  POP_REG(lr)
  add sp, #4
  .cfi_adjust_cfa_offset -4
  bx ip

  // Force constant pool for ldr above
  .ltorg

  .cfi_endproc

3:
  .word _libpango_1_0_so_tramp_table - (2b + 8) + 204

/*
 * Copyright 2018-2025 Yury Gribov
 *
 * The MIT License (MIT)
 *
 * Use of this source code is governed by MIT license that can be
 * found in the LICENSE.txt file.
 */

  .globl pango_attr_size_new
  .p2align 4
  .type pango_attr_size_new, %function
#ifndef IMPLIB_EXPORT_SHIMS
  .hidden pango_attr_size_new
#endif
pango_attr_size_new:
  .cfi_startproc

1:
  // Load address
  // TODO: can we do this faster on newer ARMs?
  ldr ip, 3f
2:
  add ip, pc, ip
  ldr ip, [ip]

  cmp ip, #0

  // Fast path
  bxne ip

  // Slow path
  ldr ip, =52
  push {ip}
  .cfi_adjust_cfa_offset 4
  PUSH_REG(lr)
  bl _libpango_1_0_so_save_regs_and_resolve
  POP_REG(lr)
  add sp, #4
  .cfi_adjust_cfa_offset -4
  bx ip

  // Force constant pool for ldr above
  .ltorg

  .cfi_endproc

3:
  .word _libpango_1_0_so_tramp_table - (2b + 8) + 208

/*
 * Copyright 2018-2025 Yury Gribov
 *
 * The MIT License (MIT)
 *
 * Use of this source code is governed by MIT license that can be
 * found in the LICENSE.txt file.
 */

  .globl pango_attr_size_new_absolute
  .p2align 4
  .type pango_attr_size_new_absolute, %function
#ifndef IMPLIB_EXPORT_SHIMS
  .hidden pango_attr_size_new_absolute
#endif
pango_attr_size_new_absolute:
  .cfi_startproc

1:
  // Load address
  // TODO: can we do this faster on newer ARMs?
  ldr ip, 3f
2:
  add ip, pc, ip
  ldr ip, [ip]

  cmp ip, #0

  // Fast path
  bxne ip

  // Slow path
  ldr ip, =53
  push {ip}
  .cfi_adjust_cfa_offset 4
  PUSH_REG(lr)
  bl _libpango_1_0_so_save_regs_and_resolve
  POP_REG(lr)
  add sp, #4
  .cfi_adjust_cfa_offset -4
  bx ip

  // Force constant pool for ldr above
  .ltorg

  .cfi_endproc

3:
  .word _libpango_1_0_so_tramp_table - (2b + 8) + 212

/*
 * Copyright 2018-2025 Yury Gribov
 *
 * The MIT License (MIT)
 *
 * Use of this source code is governed by MIT license that can be
 * found in the LICENSE.txt file.
 */

  .globl pango_attr_stretch_new
  .p2align 4
  .type pango_attr_stretch_new, %function
#ifndef IMPLIB_EXPORT_SHIMS
  .hidden pango_attr_stretch_new
#endif
pango_attr_stretch_new:
  .cfi_startproc

1:
  // Load address
  // TODO: can we do this faster on newer ARMs?
  ldr ip, 3f
2:
  add ip, pc, ip
  ldr ip, [ip]

  cmp ip, #0

  // Fast path
  bxne ip

  // Slow path
  ldr ip, =54
  push {ip}
  .cfi_adjust_cfa_offset 4
  PUSH_REG(lr)
  bl _libpango_1_0_so_save_regs_and_resolve
  POP_REG(lr)
  add sp, #4
  .cfi_adjust_cfa_offset -4
  bx ip

  // Force constant pool for ldr above
  .ltorg

  .cfi_endproc

3:
  .word _libpango_1_0_so_tramp_table - (2b + 8) + 216

/*
 * Copyright 2018-2025 Yury Gribov
 *
 * The MIT License (MIT)
 *
 * Use of this source code is governed by MIT license that can be
 * found in the LICENSE.txt file.
 */

  .globl pango_attr_strikethrough_color_new
  .p2align 4
  .type pango_attr_strikethrough_color_new, %function
#ifndef IMPLIB_EXPORT_SHIMS
  .hidden pango_attr_strikethrough_color_new
#endif
pango_attr_strikethrough_color_new:
  .cfi_startproc

1:
  // Load address
  // TODO: can we do this faster on newer ARMs?
  ldr ip, 3f
2:
  add ip, pc, ip
  ldr ip, [ip]

  cmp ip, #0

  // Fast path
  bxne ip

  // Slow path
  ldr ip, =55
  push {ip}
  .cfi_adjust_cfa_offset 4
  PUSH_REG(lr)
  bl _libpango_1_0_so_save_regs_and_resolve
  POP_REG(lr)
  add sp, #4
  .cfi_adjust_cfa_offset -4
  bx ip

  // Force constant pool for ldr above
  .ltorg

  .cfi_endproc

3:
  .word _libpango_1_0_so_tramp_table - (2b + 8) + 220

/*
 * Copyright 2018-2025 Yury Gribov
 *
 * The MIT License (MIT)
 *
 * Use of this source code is governed by MIT license that can be
 * found in the LICENSE.txt file.
 */

  .globl pango_attr_strikethrough_new
  .p2align 4
  .type pango_attr_strikethrough_new, %function
#ifndef IMPLIB_EXPORT_SHIMS
  .hidden pango_attr_strikethrough_new
#endif
pango_attr_strikethrough_new:
  .cfi_startproc

1:
  // Load address
  // TODO: can we do this faster on newer ARMs?
  ldr ip, 3f
2:
  add ip, pc, ip
  ldr ip, [ip]

  cmp ip, #0

  // Fast path
  bxne ip

  // Slow path
  ldr ip, =56
  push {ip}
  .cfi_adjust_cfa_offset 4
  PUSH_REG(lr)
  bl _libpango_1_0_so_save_regs_and_resolve
  POP_REG(lr)
  add sp, #4
  .cfi_adjust_cfa_offset -4
  bx ip

  // Force constant pool for ldr above
  .ltorg

  .cfi_endproc

3:
  .word _libpango_1_0_so_tramp_table - (2b + 8) + 224

/*
 * Copyright 2018-2025 Yury Gribov
 *
 * The MIT License (MIT)
 *
 * Use of this source code is governed by MIT license that can be
 * found in the LICENSE.txt file.
 */

  .globl pango_attr_style_new
  .p2align 4
  .type pango_attr_style_new, %function
#ifndef IMPLIB_EXPORT_SHIMS
  .hidden pango_attr_style_new
#endif
pango_attr_style_new:
  .cfi_startproc

1:
  // Load address
  // TODO: can we do this faster on newer ARMs?
  ldr ip, 3f
2:
  add ip, pc, ip
  ldr ip, [ip]

  cmp ip, #0

  // Fast path
  bxne ip

  // Slow path
  ldr ip, =57
  push {ip}
  .cfi_adjust_cfa_offset 4
  PUSH_REG(lr)
  bl _libpango_1_0_so_save_regs_and_resolve
  POP_REG(lr)
  add sp, #4
  .cfi_adjust_cfa_offset -4
  bx ip

  // Force constant pool for ldr above
  .ltorg

  .cfi_endproc

3:
  .word _libpango_1_0_so_tramp_table - (2b + 8) + 228

/*
 * Copyright 2018-2025 Yury Gribov
 *
 * The MIT License (MIT)
 *
 * Use of this source code is governed by MIT license that can be
 * found in the LICENSE.txt file.
 */

  .globl pango_attr_text_transform_new
  .p2align 4
  .type pango_attr_text_transform_new, %function
#ifndef IMPLIB_EXPORT_SHIMS
  .hidden pango_attr_text_transform_new
#endif
pango_attr_text_transform_new:
  .cfi_startproc

1:
  // Load address
  // TODO: can we do this faster on newer ARMs?
  ldr ip, 3f
2:
  add ip, pc, ip
  ldr ip, [ip]

  cmp ip, #0

  // Fast path
  bxne ip

  // Slow path
  ldr ip, =58
  push {ip}
  .cfi_adjust_cfa_offset 4
  PUSH_REG(lr)
  bl _libpango_1_0_so_save_regs_and_resolve
  POP_REG(lr)
  add sp, #4
  .cfi_adjust_cfa_offset -4
  bx ip

  // Force constant pool for ldr above
  .ltorg

  .cfi_endproc

3:
  .word _libpango_1_0_so_tramp_table - (2b + 8) + 232

/*
 * Copyright 2018-2025 Yury Gribov
 *
 * The MIT License (MIT)
 *
 * Use of this source code is governed by MIT license that can be
 * found in the LICENSE.txt file.
 */

  .globl pango_attr_type_get_name
  .p2align 4
  .type pango_attr_type_get_name, %function
#ifndef IMPLIB_EXPORT_SHIMS
  .hidden pango_attr_type_get_name
#endif
pango_attr_type_get_name:
  .cfi_startproc

1:
  // Load address
  // TODO: can we do this faster on newer ARMs?
  ldr ip, 3f
2:
  add ip, pc, ip
  ldr ip, [ip]

  cmp ip, #0

  // Fast path
  bxne ip

  // Slow path
  ldr ip, =59
  push {ip}
  .cfi_adjust_cfa_offset 4
  PUSH_REG(lr)
  bl _libpango_1_0_so_save_regs_and_resolve
  POP_REG(lr)
  add sp, #4
  .cfi_adjust_cfa_offset -4
  bx ip

  // Force constant pool for ldr above
  .ltorg

  .cfi_endproc

3:
  .word _libpango_1_0_so_tramp_table - (2b + 8) + 236

/*
 * Copyright 2018-2025 Yury Gribov
 *
 * The MIT License (MIT)
 *
 * Use of this source code is governed by MIT license that can be
 * found in the LICENSE.txt file.
 */

  .globl pango_attr_type_get_type
  .p2align 4
  .type pango_attr_type_get_type, %function
#ifndef IMPLIB_EXPORT_SHIMS
  .hidden pango_attr_type_get_type
#endif
pango_attr_type_get_type:
  .cfi_startproc

1:
  // Load address
  // TODO: can we do this faster on newer ARMs?
  ldr ip, 3f
2:
  add ip, pc, ip
  ldr ip, [ip]

  cmp ip, #0

  // Fast path
  bxne ip

  // Slow path
  ldr ip, =60
  push {ip}
  .cfi_adjust_cfa_offset 4
  PUSH_REG(lr)
  bl _libpango_1_0_so_save_regs_and_resolve
  POP_REG(lr)
  add sp, #4
  .cfi_adjust_cfa_offset -4
  bx ip

  // Force constant pool for ldr above
  .ltorg

  .cfi_endproc

3:
  .word _libpango_1_0_so_tramp_table - (2b + 8) + 240

/*
 * Copyright 2018-2025 Yury Gribov
 *
 * The MIT License (MIT)
 *
 * Use of this source code is governed by MIT license that can be
 * found in the LICENSE.txt file.
 */

  .globl pango_attr_type_register
  .p2align 4
  .type pango_attr_type_register, %function
#ifndef IMPLIB_EXPORT_SHIMS
  .hidden pango_attr_type_register
#endif
pango_attr_type_register:
  .cfi_startproc

1:
  // Load address
  // TODO: can we do this faster on newer ARMs?
  ldr ip, 3f
2:
  add ip, pc, ip
  ldr ip, [ip]

  cmp ip, #0

  // Fast path
  bxne ip

  // Slow path
  ldr ip, =61
  push {ip}
  .cfi_adjust_cfa_offset 4
  PUSH_REG(lr)
  bl _libpango_1_0_so_save_regs_and_resolve
  POP_REG(lr)
  add sp, #4
  .cfi_adjust_cfa_offset -4
  bx ip

  // Force constant pool for ldr above
  .ltorg

  .cfi_endproc

3:
  .word _libpango_1_0_so_tramp_table - (2b + 8) + 244

/*
 * Copyright 2018-2025 Yury Gribov
 *
 * The MIT License (MIT)
 *
 * Use of this source code is governed by MIT license that can be
 * found in the LICENSE.txt file.
 */

  .globl pango_attr_underline_color_new
  .p2align 4
  .type pango_attr_underline_color_new, %function
#ifndef IMPLIB_EXPORT_SHIMS
  .hidden pango_attr_underline_color_new
#endif
pango_attr_underline_color_new:
  .cfi_startproc

1:
  // Load address
  // TODO: can we do this faster on newer ARMs?
  ldr ip, 3f
2:
  add ip, pc, ip
  ldr ip, [ip]

  cmp ip, #0

  // Fast path
  bxne ip

  // Slow path
  ldr ip, =62
  push {ip}
  .cfi_adjust_cfa_offset 4
  PUSH_REG(lr)
  bl _libpango_1_0_so_save_regs_and_resolve
  POP_REG(lr)
  add sp, #4
  .cfi_adjust_cfa_offset -4
  bx ip

  // Force constant pool for ldr above
  .ltorg

  .cfi_endproc

3:
  .word _libpango_1_0_so_tramp_table - (2b + 8) + 248

/*
 * Copyright 2018-2025 Yury Gribov
 *
 * The MIT License (MIT)
 *
 * Use of this source code is governed by MIT license that can be
 * found in the LICENSE.txt file.
 */

  .globl pango_attr_underline_new
  .p2align 4
  .type pango_attr_underline_new, %function
#ifndef IMPLIB_EXPORT_SHIMS
  .hidden pango_attr_underline_new
#endif
pango_attr_underline_new:
  .cfi_startproc

1:
  // Load address
  // TODO: can we do this faster on newer ARMs?
  ldr ip, 3f
2:
  add ip, pc, ip
  ldr ip, [ip]

  cmp ip, #0

  // Fast path
  bxne ip

  // Slow path
  ldr ip, =63
  push {ip}
  .cfi_adjust_cfa_offset 4
  PUSH_REG(lr)
  bl _libpango_1_0_so_save_regs_and_resolve
  POP_REG(lr)
  add sp, #4
  .cfi_adjust_cfa_offset -4
  bx ip

  // Force constant pool for ldr above
  .ltorg

  .cfi_endproc

3:
  .word _libpango_1_0_so_tramp_table - (2b + 8) + 252

/*
 * Copyright 2018-2025 Yury Gribov
 *
 * The MIT License (MIT)
 *
 * Use of this source code is governed by MIT license that can be
 * found in the LICENSE.txt file.
 */

  .globl pango_attr_variant_new
  .p2align 4
  .type pango_attr_variant_new, %function
#ifndef IMPLIB_EXPORT_SHIMS
  .hidden pango_attr_variant_new
#endif
pango_attr_variant_new:
  .cfi_startproc

1:
  // Load address
  // TODO: can we do this faster on newer ARMs?
  ldr ip, 3f
2:
  add ip, pc, ip
  ldr ip, [ip]

  cmp ip, #0

  // Fast path
  bxne ip

  // Slow path
  ldr ip, =64
  push {ip}
  .cfi_adjust_cfa_offset 4
  PUSH_REG(lr)
  bl _libpango_1_0_so_save_regs_and_resolve
  POP_REG(lr)
  add sp, #4
  .cfi_adjust_cfa_offset -4
  bx ip

  // Force constant pool for ldr above
  .ltorg

  .cfi_endproc

3:
  .word _libpango_1_0_so_tramp_table - (2b + 8) + 256

/*
 * Copyright 2018-2025 Yury Gribov
 *
 * The MIT License (MIT)
 *
 * Use of this source code is governed by MIT license that can be
 * found in the LICENSE.txt file.
 */

  .globl pango_attr_weight_new
  .p2align 4
  .type pango_attr_weight_new, %function
#ifndef IMPLIB_EXPORT_SHIMS
  .hidden pango_attr_weight_new
#endif
pango_attr_weight_new:
  .cfi_startproc

1:
  // Load address
  // TODO: can we do this faster on newer ARMs?
  ldr ip, 3f
2:
  add ip, pc, ip
  ldr ip, [ip]

  cmp ip, #0

  // Fast path
  bxne ip

  // Slow path
  ldr ip, =65
  push {ip}
  .cfi_adjust_cfa_offset 4
  PUSH_REG(lr)
  bl _libpango_1_0_so_save_regs_and_resolve
  POP_REG(lr)
  add sp, #4
  .cfi_adjust_cfa_offset -4
  bx ip

  // Force constant pool for ldr above
  .ltorg

  .cfi_endproc

3:
  .word _libpango_1_0_so_tramp_table - (2b + 8) + 260

/*
 * Copyright 2018-2025 Yury Gribov
 *
 * The MIT License (MIT)
 *
 * Use of this source code is governed by MIT license that can be
 * found in the LICENSE.txt file.
 */

  .globl pango_attr_word_new
  .p2align 4
  .type pango_attr_word_new, %function
#ifndef IMPLIB_EXPORT_SHIMS
  .hidden pango_attr_word_new
#endif
pango_attr_word_new:
  .cfi_startproc

1:
  // Load address
  // TODO: can we do this faster on newer ARMs?
  ldr ip, 3f
2:
  add ip, pc, ip
  ldr ip, [ip]

  cmp ip, #0

  // Fast path
  bxne ip

  // Slow path
  ldr ip, =66
  push {ip}
  .cfi_adjust_cfa_offset 4
  PUSH_REG(lr)
  bl _libpango_1_0_so_save_regs_and_resolve
  POP_REG(lr)
  add sp, #4
  .cfi_adjust_cfa_offset -4
  bx ip

  // Force constant pool for ldr above
  .ltorg

  .cfi_endproc

3:
  .word _libpango_1_0_so_tramp_table - (2b + 8) + 264

/*
 * Copyright 2018-2025 Yury Gribov
 *
 * The MIT License (MIT)
 *
 * Use of this source code is governed by MIT license that can be
 * found in the LICENSE.txt file.
 */

  .globl pango_attribute_as_color
  .p2align 4
  .type pango_attribute_as_color, %function
#ifndef IMPLIB_EXPORT_SHIMS
  .hidden pango_attribute_as_color
#endif
pango_attribute_as_color:
  .cfi_startproc

1:
  // Load address
  // TODO: can we do this faster on newer ARMs?
  ldr ip, 3f
2:
  add ip, pc, ip
  ldr ip, [ip]

  cmp ip, #0

  // Fast path
  bxne ip

  // Slow path
  ldr ip, =67
  push {ip}
  .cfi_adjust_cfa_offset 4
  PUSH_REG(lr)
  bl _libpango_1_0_so_save_regs_and_resolve
  POP_REG(lr)
  add sp, #4
  .cfi_adjust_cfa_offset -4
  bx ip

  // Force constant pool for ldr above
  .ltorg

  .cfi_endproc

3:
  .word _libpango_1_0_so_tramp_table - (2b + 8) + 268

/*
 * Copyright 2018-2025 Yury Gribov
 *
 * The MIT License (MIT)
 *
 * Use of this source code is governed by MIT license that can be
 * found in the LICENSE.txt file.
 */

  .globl pango_attribute_as_float
  .p2align 4
  .type pango_attribute_as_float, %function
#ifndef IMPLIB_EXPORT_SHIMS
  .hidden pango_attribute_as_float
#endif
pango_attribute_as_float:
  .cfi_startproc

1:
  // Load address
  // TODO: can we do this faster on newer ARMs?
  ldr ip, 3f
2:
  add ip, pc, ip
  ldr ip, [ip]

  cmp ip, #0

  // Fast path
  bxne ip

  // Slow path
  ldr ip, =68
  push {ip}
  .cfi_adjust_cfa_offset 4
  PUSH_REG(lr)
  bl _libpango_1_0_so_save_regs_and_resolve
  POP_REG(lr)
  add sp, #4
  .cfi_adjust_cfa_offset -4
  bx ip

  // Force constant pool for ldr above
  .ltorg

  .cfi_endproc

3:
  .word _libpango_1_0_so_tramp_table - (2b + 8) + 272

/*
 * Copyright 2018-2025 Yury Gribov
 *
 * The MIT License (MIT)
 *
 * Use of this source code is governed by MIT license that can be
 * found in the LICENSE.txt file.
 */

  .globl pango_attribute_as_font_desc
  .p2align 4
  .type pango_attribute_as_font_desc, %function
#ifndef IMPLIB_EXPORT_SHIMS
  .hidden pango_attribute_as_font_desc
#endif
pango_attribute_as_font_desc:
  .cfi_startproc

1:
  // Load address
  // TODO: can we do this faster on newer ARMs?
  ldr ip, 3f
2:
  add ip, pc, ip
  ldr ip, [ip]

  cmp ip, #0

  // Fast path
  bxne ip

  // Slow path
  ldr ip, =69
  push {ip}
  .cfi_adjust_cfa_offset 4
  PUSH_REG(lr)
  bl _libpango_1_0_so_save_regs_and_resolve
  POP_REG(lr)
  add sp, #4
  .cfi_adjust_cfa_offset -4
  bx ip

  // Force constant pool for ldr above
  .ltorg

  .cfi_endproc

3:
  .word _libpango_1_0_so_tramp_table - (2b + 8) + 276

/*
 * Copyright 2018-2025 Yury Gribov
 *
 * The MIT License (MIT)
 *
 * Use of this source code is governed by MIT license that can be
 * found in the LICENSE.txt file.
 */

  .globl pango_attribute_as_font_features
  .p2align 4
  .type pango_attribute_as_font_features, %function
#ifndef IMPLIB_EXPORT_SHIMS
  .hidden pango_attribute_as_font_features
#endif
pango_attribute_as_font_features:
  .cfi_startproc

1:
  // Load address
  // TODO: can we do this faster on newer ARMs?
  ldr ip, 3f
2:
  add ip, pc, ip
  ldr ip, [ip]

  cmp ip, #0

  // Fast path
  bxne ip

  // Slow path
  ldr ip, =70
  push {ip}
  .cfi_adjust_cfa_offset 4
  PUSH_REG(lr)
  bl _libpango_1_0_so_save_regs_and_resolve
  POP_REG(lr)
  add sp, #4
  .cfi_adjust_cfa_offset -4
  bx ip

  // Force constant pool for ldr above
  .ltorg

  .cfi_endproc

3:
  .word _libpango_1_0_so_tramp_table - (2b + 8) + 280

/*
 * Copyright 2018-2025 Yury Gribov
 *
 * The MIT License (MIT)
 *
 * Use of this source code is governed by MIT license that can be
 * found in the LICENSE.txt file.
 */

  .globl pango_attribute_as_int
  .p2align 4
  .type pango_attribute_as_int, %function
#ifndef IMPLIB_EXPORT_SHIMS
  .hidden pango_attribute_as_int
#endif
pango_attribute_as_int:
  .cfi_startproc

1:
  // Load address
  // TODO: can we do this faster on newer ARMs?
  ldr ip, 3f
2:
  add ip, pc, ip
  ldr ip, [ip]

  cmp ip, #0

  // Fast path
  bxne ip

  // Slow path
  ldr ip, =71
  push {ip}
  .cfi_adjust_cfa_offset 4
  PUSH_REG(lr)
  bl _libpango_1_0_so_save_regs_and_resolve
  POP_REG(lr)
  add sp, #4
  .cfi_adjust_cfa_offset -4
  bx ip

  // Force constant pool for ldr above
  .ltorg

  .cfi_endproc

3:
  .word _libpango_1_0_so_tramp_table - (2b + 8) + 284

/*
 * Copyright 2018-2025 Yury Gribov
 *
 * The MIT License (MIT)
 *
 * Use of this source code is governed by MIT license that can be
 * found in the LICENSE.txt file.
 */

  .globl pango_attribute_as_language
  .p2align 4
  .type pango_attribute_as_language, %function
#ifndef IMPLIB_EXPORT_SHIMS
  .hidden pango_attribute_as_language
#endif
pango_attribute_as_language:
  .cfi_startproc

1:
  // Load address
  // TODO: can we do this faster on newer ARMs?
  ldr ip, 3f
2:
  add ip, pc, ip
  ldr ip, [ip]

  cmp ip, #0

  // Fast path
  bxne ip

  // Slow path
  ldr ip, =72
  push {ip}
  .cfi_adjust_cfa_offset 4
  PUSH_REG(lr)
  bl _libpango_1_0_so_save_regs_and_resolve
  POP_REG(lr)
  add sp, #4
  .cfi_adjust_cfa_offset -4
  bx ip

  // Force constant pool for ldr above
  .ltorg

  .cfi_endproc

3:
  .word _libpango_1_0_so_tramp_table - (2b + 8) + 288

/*
 * Copyright 2018-2025 Yury Gribov
 *
 * The MIT License (MIT)
 *
 * Use of this source code is governed by MIT license that can be
 * found in the LICENSE.txt file.
 */

  .globl pango_attribute_as_shape
  .p2align 4
  .type pango_attribute_as_shape, %function
#ifndef IMPLIB_EXPORT_SHIMS
  .hidden pango_attribute_as_shape
#endif
pango_attribute_as_shape:
  .cfi_startproc

1:
  // Load address
  // TODO: can we do this faster on newer ARMs?
  ldr ip, 3f
2:
  add ip, pc, ip
  ldr ip, [ip]

  cmp ip, #0

  // Fast path
  bxne ip

  // Slow path
  ldr ip, =73
  push {ip}
  .cfi_adjust_cfa_offset 4
  PUSH_REG(lr)
  bl _libpango_1_0_so_save_regs_and_resolve
  POP_REG(lr)
  add sp, #4
  .cfi_adjust_cfa_offset -4
  bx ip

  // Force constant pool for ldr above
  .ltorg

  .cfi_endproc

3:
  .word _libpango_1_0_so_tramp_table - (2b + 8) + 292

/*
 * Copyright 2018-2025 Yury Gribov
 *
 * The MIT License (MIT)
 *
 * Use of this source code is governed by MIT license that can be
 * found in the LICENSE.txt file.
 */

  .globl pango_attribute_as_size
  .p2align 4
  .type pango_attribute_as_size, %function
#ifndef IMPLIB_EXPORT_SHIMS
  .hidden pango_attribute_as_size
#endif
pango_attribute_as_size:
  .cfi_startproc

1:
  // Load address
  // TODO: can we do this faster on newer ARMs?
  ldr ip, 3f
2:
  add ip, pc, ip
  ldr ip, [ip]

  cmp ip, #0

  // Fast path
  bxne ip

  // Slow path
  ldr ip, =74
  push {ip}
  .cfi_adjust_cfa_offset 4
  PUSH_REG(lr)
  bl _libpango_1_0_so_save_regs_and_resolve
  POP_REG(lr)
  add sp, #4
  .cfi_adjust_cfa_offset -4
  bx ip

  // Force constant pool for ldr above
  .ltorg

  .cfi_endproc

3:
  .word _libpango_1_0_so_tramp_table - (2b + 8) + 296

/*
 * Copyright 2018-2025 Yury Gribov
 *
 * The MIT License (MIT)
 *
 * Use of this source code is governed by MIT license that can be
 * found in the LICENSE.txt file.
 */

  .globl pango_attribute_as_string
  .p2align 4
  .type pango_attribute_as_string, %function
#ifndef IMPLIB_EXPORT_SHIMS
  .hidden pango_attribute_as_string
#endif
pango_attribute_as_string:
  .cfi_startproc

1:
  // Load address
  // TODO: can we do this faster on newer ARMs?
  ldr ip, 3f
2:
  add ip, pc, ip
  ldr ip, [ip]

  cmp ip, #0

  // Fast path
  bxne ip

  // Slow path
  ldr ip, =75
  push {ip}
  .cfi_adjust_cfa_offset 4
  PUSH_REG(lr)
  bl _libpango_1_0_so_save_regs_and_resolve
  POP_REG(lr)
  add sp, #4
  .cfi_adjust_cfa_offset -4
  bx ip

  // Force constant pool for ldr above
  .ltorg

  .cfi_endproc

3:
  .word _libpango_1_0_so_tramp_table - (2b + 8) + 300

/*
 * Copyright 2018-2025 Yury Gribov
 *
 * The MIT License (MIT)
 *
 * Use of this source code is governed by MIT license that can be
 * found in the LICENSE.txt file.
 */

  .globl pango_attribute_copy
  .p2align 4
  .type pango_attribute_copy, %function
#ifndef IMPLIB_EXPORT_SHIMS
  .hidden pango_attribute_copy
#endif
pango_attribute_copy:
  .cfi_startproc

1:
  // Load address
  // TODO: can we do this faster on newer ARMs?
  ldr ip, 3f
2:
  add ip, pc, ip
  ldr ip, [ip]

  cmp ip, #0

  // Fast path
  bxne ip

  // Slow path
  ldr ip, =76
  push {ip}
  .cfi_adjust_cfa_offset 4
  PUSH_REG(lr)
  bl _libpango_1_0_so_save_regs_and_resolve
  POP_REG(lr)
  add sp, #4
  .cfi_adjust_cfa_offset -4
  bx ip

  // Force constant pool for ldr above
  .ltorg

  .cfi_endproc

3:
  .word _libpango_1_0_so_tramp_table - (2b + 8) + 304

/*
 * Copyright 2018-2025 Yury Gribov
 *
 * The MIT License (MIT)
 *
 * Use of this source code is governed by MIT license that can be
 * found in the LICENSE.txt file.
 */

  .globl pango_attribute_destroy
  .p2align 4
  .type pango_attribute_destroy, %function
#ifndef IMPLIB_EXPORT_SHIMS
  .hidden pango_attribute_destroy
#endif
pango_attribute_destroy:
  .cfi_startproc

1:
  // Load address
  // TODO: can we do this faster on newer ARMs?
  ldr ip, 3f
2:
  add ip, pc, ip
  ldr ip, [ip]

  cmp ip, #0

  // Fast path
  bxne ip

  // Slow path
  ldr ip, =77
  push {ip}
  .cfi_adjust_cfa_offset 4
  PUSH_REG(lr)
  bl _libpango_1_0_so_save_regs_and_resolve
  POP_REG(lr)
  add sp, #4
  .cfi_adjust_cfa_offset -4
  bx ip

  // Force constant pool for ldr above
  .ltorg

  .cfi_endproc

3:
  .word _libpango_1_0_so_tramp_table - (2b + 8) + 308

/*
 * Copyright 2018-2025 Yury Gribov
 *
 * The MIT License (MIT)
 *
 * Use of this source code is governed by MIT license that can be
 * found in the LICENSE.txt file.
 */

  .globl pango_attribute_equal
  .p2align 4
  .type pango_attribute_equal, %function
#ifndef IMPLIB_EXPORT_SHIMS
  .hidden pango_attribute_equal
#endif
pango_attribute_equal:
  .cfi_startproc

1:
  // Load address
  // TODO: can we do this faster on newer ARMs?
  ldr ip, 3f
2:
  add ip, pc, ip
  ldr ip, [ip]

  cmp ip, #0

  // Fast path
  bxne ip

  // Slow path
  ldr ip, =78
  push {ip}
  .cfi_adjust_cfa_offset 4
  PUSH_REG(lr)
  bl _libpango_1_0_so_save_regs_and_resolve
  POP_REG(lr)
  add sp, #4
  .cfi_adjust_cfa_offset -4
  bx ip

  // Force constant pool for ldr above
  .ltorg

  .cfi_endproc

3:
  .word _libpango_1_0_so_tramp_table - (2b + 8) + 312

/*
 * Copyright 2018-2025 Yury Gribov
 *
 * The MIT License (MIT)
 *
 * Use of this source code is governed by MIT license that can be
 * found in the LICENSE.txt file.
 */

  .globl pango_attribute_get_type
  .p2align 4
  .type pango_attribute_get_type, %function
#ifndef IMPLIB_EXPORT_SHIMS
  .hidden pango_attribute_get_type
#endif
pango_attribute_get_type:
  .cfi_startproc

1:
  // Load address
  // TODO: can we do this faster on newer ARMs?
  ldr ip, 3f
2:
  add ip, pc, ip
  ldr ip, [ip]

  cmp ip, #0

  // Fast path
  bxne ip

  // Slow path
  ldr ip, =79
  push {ip}
  .cfi_adjust_cfa_offset 4
  PUSH_REG(lr)
  bl _libpango_1_0_so_save_regs_and_resolve
  POP_REG(lr)
  add sp, #4
  .cfi_adjust_cfa_offset -4
  bx ip

  // Force constant pool for ldr above
  .ltorg

  .cfi_endproc

3:
  .word _libpango_1_0_so_tramp_table - (2b + 8) + 316

/*
 * Copyright 2018-2025 Yury Gribov
 *
 * The MIT License (MIT)
 *
 * Use of this source code is governed by MIT license that can be
 * found in the LICENSE.txt file.
 */

  .globl pango_attribute_init
  .p2align 4
  .type pango_attribute_init, %function
#ifndef IMPLIB_EXPORT_SHIMS
  .hidden pango_attribute_init
#endif
pango_attribute_init:
  .cfi_startproc

1:
  // Load address
  // TODO: can we do this faster on newer ARMs?
  ldr ip, 3f
2:
  add ip, pc, ip
  ldr ip, [ip]

  cmp ip, #0

  // Fast path
  bxne ip

  // Slow path
  ldr ip, =80
  push {ip}
  .cfi_adjust_cfa_offset 4
  PUSH_REG(lr)
  bl _libpango_1_0_so_save_regs_and_resolve
  POP_REG(lr)
  add sp, #4
  .cfi_adjust_cfa_offset -4
  bx ip

  // Force constant pool for ldr above
  .ltorg

  .cfi_endproc

3:
  .word _libpango_1_0_so_tramp_table - (2b + 8) + 320

/*
 * Copyright 2018-2025 Yury Gribov
 *
 * The MIT License (MIT)
 *
 * Use of this source code is governed by MIT license that can be
 * found in the LICENSE.txt file.
 */

  .globl pango_baseline_shift_get_type
  .p2align 4
  .type pango_baseline_shift_get_type, %function
#ifndef IMPLIB_EXPORT_SHIMS
  .hidden pango_baseline_shift_get_type
#endif
pango_baseline_shift_get_type:
  .cfi_startproc

1:
  // Load address
  // TODO: can we do this faster on newer ARMs?
  ldr ip, 3f
2:
  add ip, pc, ip
  ldr ip, [ip]

  cmp ip, #0

  // Fast path
  bxne ip

  // Slow path
  ldr ip, =81
  push {ip}
  .cfi_adjust_cfa_offset 4
  PUSH_REG(lr)
  bl _libpango_1_0_so_save_regs_and_resolve
  POP_REG(lr)
  add sp, #4
  .cfi_adjust_cfa_offset -4
  bx ip

  // Force constant pool for ldr above
  .ltorg

  .cfi_endproc

3:
  .word _libpango_1_0_so_tramp_table - (2b + 8) + 324

/*
 * Copyright 2018-2025 Yury Gribov
 *
 * The MIT License (MIT)
 *
 * Use of this source code is governed by MIT license that can be
 * found in the LICENSE.txt file.
 */

  .globl pango_bidi_type_for_unichar
  .p2align 4
  .type pango_bidi_type_for_unichar, %function
#ifndef IMPLIB_EXPORT_SHIMS
  .hidden pango_bidi_type_for_unichar
#endif
pango_bidi_type_for_unichar:
  .cfi_startproc

1:
  // Load address
  // TODO: can we do this faster on newer ARMs?
  ldr ip, 3f
2:
  add ip, pc, ip
  ldr ip, [ip]

  cmp ip, #0

  // Fast path
  bxne ip

  // Slow path
  ldr ip, =82
  push {ip}
  .cfi_adjust_cfa_offset 4
  PUSH_REG(lr)
  bl _libpango_1_0_so_save_regs_and_resolve
  POP_REG(lr)
  add sp, #4
  .cfi_adjust_cfa_offset -4
  bx ip

  // Force constant pool for ldr above
  .ltorg

  .cfi_endproc

3:
  .word _libpango_1_0_so_tramp_table - (2b + 8) + 328

/*
 * Copyright 2018-2025 Yury Gribov
 *
 * The MIT License (MIT)
 *
 * Use of this source code is governed by MIT license that can be
 * found in the LICENSE.txt file.
 */

  .globl pango_bidi_type_get_type
  .p2align 4
  .type pango_bidi_type_get_type, %function
#ifndef IMPLIB_EXPORT_SHIMS
  .hidden pango_bidi_type_get_type
#endif
pango_bidi_type_get_type:
  .cfi_startproc

1:
  // Load address
  // TODO: can we do this faster on newer ARMs?
  ldr ip, 3f
2:
  add ip, pc, ip
  ldr ip, [ip]

  cmp ip, #0

  // Fast path
  bxne ip

  // Slow path
  ldr ip, =83
  push {ip}
  .cfi_adjust_cfa_offset 4
  PUSH_REG(lr)
  bl _libpango_1_0_so_save_regs_and_resolve
  POP_REG(lr)
  add sp, #4
  .cfi_adjust_cfa_offset -4
  bx ip

  // Force constant pool for ldr above
  .ltorg

  .cfi_endproc

3:
  .word _libpango_1_0_so_tramp_table - (2b + 8) + 332

/*
 * Copyright 2018-2025 Yury Gribov
 *
 * The MIT License (MIT)
 *
 * Use of this source code is governed by MIT license that can be
 * found in the LICENSE.txt file.
 */

  .globl pango_break
  .p2align 4
  .type pango_break, %function
#ifndef IMPLIB_EXPORT_SHIMS
  .hidden pango_break
#endif
pango_break:
  .cfi_startproc

1:
  // Load address
  // TODO: can we do this faster on newer ARMs?
  ldr ip, 3f
2:
  add ip, pc, ip
  ldr ip, [ip]

  cmp ip, #0

  // Fast path
  bxne ip

  // Slow path
  ldr ip, =84
  push {ip}
  .cfi_adjust_cfa_offset 4
  PUSH_REG(lr)
  bl _libpango_1_0_so_save_regs_and_resolve
  POP_REG(lr)
  add sp, #4
  .cfi_adjust_cfa_offset -4
  bx ip

  // Force constant pool for ldr above
  .ltorg

  .cfi_endproc

3:
  .word _libpango_1_0_so_tramp_table - (2b + 8) + 336

/*
 * Copyright 2018-2025 Yury Gribov
 *
 * The MIT License (MIT)
 *
 * Use of this source code is governed by MIT license that can be
 * found in the LICENSE.txt file.
 */

  .globl pango_color_copy
  .p2align 4
  .type pango_color_copy, %function
#ifndef IMPLIB_EXPORT_SHIMS
  .hidden pango_color_copy
#endif
pango_color_copy:
  .cfi_startproc

1:
  // Load address
  // TODO: can we do this faster on newer ARMs?
  ldr ip, 3f
2:
  add ip, pc, ip
  ldr ip, [ip]

  cmp ip, #0

  // Fast path
  bxne ip

  // Slow path
  ldr ip, =85
  push {ip}
  .cfi_adjust_cfa_offset 4
  PUSH_REG(lr)
  bl _libpango_1_0_so_save_regs_and_resolve
  POP_REG(lr)
  add sp, #4
  .cfi_adjust_cfa_offset -4
  bx ip

  // Force constant pool for ldr above
  .ltorg

  .cfi_endproc

3:
  .word _libpango_1_0_so_tramp_table - (2b + 8) + 340

/*
 * Copyright 2018-2025 Yury Gribov
 *
 * The MIT License (MIT)
 *
 * Use of this source code is governed by MIT license that can be
 * found in the LICENSE.txt file.
 */

  .globl pango_color_free
  .p2align 4
  .type pango_color_free, %function
#ifndef IMPLIB_EXPORT_SHIMS
  .hidden pango_color_free
#endif
pango_color_free:
  .cfi_startproc

1:
  // Load address
  // TODO: can we do this faster on newer ARMs?
  ldr ip, 3f
2:
  add ip, pc, ip
  ldr ip, [ip]

  cmp ip, #0

  // Fast path
  bxne ip

  // Slow path
  ldr ip, =86
  push {ip}
  .cfi_adjust_cfa_offset 4
  PUSH_REG(lr)
  bl _libpango_1_0_so_save_regs_and_resolve
  POP_REG(lr)
  add sp, #4
  .cfi_adjust_cfa_offset -4
  bx ip

  // Force constant pool for ldr above
  .ltorg

  .cfi_endproc

3:
  .word _libpango_1_0_so_tramp_table - (2b + 8) + 344

/*
 * Copyright 2018-2025 Yury Gribov
 *
 * The MIT License (MIT)
 *
 * Use of this source code is governed by MIT license that can be
 * found in the LICENSE.txt file.
 */

  .globl pango_color_get_type
  .p2align 4
  .type pango_color_get_type, %function
#ifndef IMPLIB_EXPORT_SHIMS
  .hidden pango_color_get_type
#endif
pango_color_get_type:
  .cfi_startproc

1:
  // Load address
  // TODO: can we do this faster on newer ARMs?
  ldr ip, 3f
2:
  add ip, pc, ip
  ldr ip, [ip]

  cmp ip, #0

  // Fast path
  bxne ip

  // Slow path
  ldr ip, =87
  push {ip}
  .cfi_adjust_cfa_offset 4
  PUSH_REG(lr)
  bl _libpango_1_0_so_save_regs_and_resolve
  POP_REG(lr)
  add sp, #4
  .cfi_adjust_cfa_offset -4
  bx ip

  // Force constant pool for ldr above
  .ltorg

  .cfi_endproc

3:
  .word _libpango_1_0_so_tramp_table - (2b + 8) + 348

/*
 * Copyright 2018-2025 Yury Gribov
 *
 * The MIT License (MIT)
 *
 * Use of this source code is governed by MIT license that can be
 * found in the LICENSE.txt file.
 */

  .globl pango_color_parse
  .p2align 4
  .type pango_color_parse, %function
#ifndef IMPLIB_EXPORT_SHIMS
  .hidden pango_color_parse
#endif
pango_color_parse:
  .cfi_startproc

1:
  // Load address
  // TODO: can we do this faster on newer ARMs?
  ldr ip, 3f
2:
  add ip, pc, ip
  ldr ip, [ip]

  cmp ip, #0

  // Fast path
  bxne ip

  // Slow path
  ldr ip, =88
  push {ip}
  .cfi_adjust_cfa_offset 4
  PUSH_REG(lr)
  bl _libpango_1_0_so_save_regs_and_resolve
  POP_REG(lr)
  add sp, #4
  .cfi_adjust_cfa_offset -4
  bx ip

  // Force constant pool for ldr above
  .ltorg

  .cfi_endproc

3:
  .word _libpango_1_0_so_tramp_table - (2b + 8) + 352

/*
 * Copyright 2018-2025 Yury Gribov
 *
 * The MIT License (MIT)
 *
 * Use of this source code is governed by MIT license that can be
 * found in the LICENSE.txt file.
 */

  .globl pango_color_parse_with_alpha
  .p2align 4
  .type pango_color_parse_with_alpha, %function
#ifndef IMPLIB_EXPORT_SHIMS
  .hidden pango_color_parse_with_alpha
#endif
pango_color_parse_with_alpha:
  .cfi_startproc

1:
  // Load address
  // TODO: can we do this faster on newer ARMs?
  ldr ip, 3f
2:
  add ip, pc, ip
  ldr ip, [ip]

  cmp ip, #0

  // Fast path
  bxne ip

  // Slow path
  ldr ip, =89
  push {ip}
  .cfi_adjust_cfa_offset 4
  PUSH_REG(lr)
  bl _libpango_1_0_so_save_regs_and_resolve
  POP_REG(lr)
  add sp, #4
  .cfi_adjust_cfa_offset -4
  bx ip

  // Force constant pool for ldr above
  .ltorg

  .cfi_endproc

3:
  .word _libpango_1_0_so_tramp_table - (2b + 8) + 356

/*
 * Copyright 2018-2025 Yury Gribov
 *
 * The MIT License (MIT)
 *
 * Use of this source code is governed by MIT license that can be
 * found in the LICENSE.txt file.
 */

  .globl pango_color_to_string
  .p2align 4
  .type pango_color_to_string, %function
#ifndef IMPLIB_EXPORT_SHIMS
  .hidden pango_color_to_string
#endif
pango_color_to_string:
  .cfi_startproc

1:
  // Load address
  // TODO: can we do this faster on newer ARMs?
  ldr ip, 3f
2:
  add ip, pc, ip
  ldr ip, [ip]

  cmp ip, #0

  // Fast path
  bxne ip

  // Slow path
  ldr ip, =90
  push {ip}
  .cfi_adjust_cfa_offset 4
  PUSH_REG(lr)
  bl _libpango_1_0_so_save_regs_and_resolve
  POP_REG(lr)
  add sp, #4
  .cfi_adjust_cfa_offset -4
  bx ip

  // Force constant pool for ldr above
  .ltorg

  .cfi_endproc

3:
  .word _libpango_1_0_so_tramp_table - (2b + 8) + 360

/*
 * Copyright 2018-2025 Yury Gribov
 *
 * The MIT License (MIT)
 *
 * Use of this source code is governed by MIT license that can be
 * found in the LICENSE.txt file.
 */

  .globl pango_config_key_get
  .p2align 4
  .type pango_config_key_get, %function
#ifndef IMPLIB_EXPORT_SHIMS
  .hidden pango_config_key_get
#endif
pango_config_key_get:
  .cfi_startproc

1:
  // Load address
  // TODO: can we do this faster on newer ARMs?
  ldr ip, 3f
2:
  add ip, pc, ip
  ldr ip, [ip]

  cmp ip, #0

  // Fast path
  bxne ip

  // Slow path
  ldr ip, =91
  push {ip}
  .cfi_adjust_cfa_offset 4
  PUSH_REG(lr)
  bl _libpango_1_0_so_save_regs_and_resolve
  POP_REG(lr)
  add sp, #4
  .cfi_adjust_cfa_offset -4
  bx ip

  // Force constant pool for ldr above
  .ltorg

  .cfi_endproc

3:
  .word _libpango_1_0_so_tramp_table - (2b + 8) + 364

/*
 * Copyright 2018-2025 Yury Gribov
 *
 * The MIT License (MIT)
 *
 * Use of this source code is governed by MIT license that can be
 * found in the LICENSE.txt file.
 */

  .globl pango_config_key_get_system
  .p2align 4
  .type pango_config_key_get_system, %function
#ifndef IMPLIB_EXPORT_SHIMS
  .hidden pango_config_key_get_system
#endif
pango_config_key_get_system:
  .cfi_startproc

1:
  // Load address
  // TODO: can we do this faster on newer ARMs?
  ldr ip, 3f
2:
  add ip, pc, ip
  ldr ip, [ip]

  cmp ip, #0

  // Fast path
  bxne ip

  // Slow path
  ldr ip, =92
  push {ip}
  .cfi_adjust_cfa_offset 4
  PUSH_REG(lr)
  bl _libpango_1_0_so_save_regs_and_resolve
  POP_REG(lr)
  add sp, #4
  .cfi_adjust_cfa_offset -4
  bx ip

  // Force constant pool for ldr above
  .ltorg

  .cfi_endproc

3:
  .word _libpango_1_0_so_tramp_table - (2b + 8) + 368

/*
 * Copyright 2018-2025 Yury Gribov
 *
 * The MIT License (MIT)
 *
 * Use of this source code is governed by MIT license that can be
 * found in the LICENSE.txt file.
 */

  .globl pango_context_changed
  .p2align 4
  .type pango_context_changed, %function
#ifndef IMPLIB_EXPORT_SHIMS
  .hidden pango_context_changed
#endif
pango_context_changed:
  .cfi_startproc

1:
  // Load address
  // TODO: can we do this faster on newer ARMs?
  ldr ip, 3f
2:
  add ip, pc, ip
  ldr ip, [ip]

  cmp ip, #0

  // Fast path
  bxne ip

  // Slow path
  ldr ip, =93
  push {ip}
  .cfi_adjust_cfa_offset 4
  PUSH_REG(lr)
  bl _libpango_1_0_so_save_regs_and_resolve
  POP_REG(lr)
  add sp, #4
  .cfi_adjust_cfa_offset -4
  bx ip

  // Force constant pool for ldr above
  .ltorg

  .cfi_endproc

3:
  .word _libpango_1_0_so_tramp_table - (2b + 8) + 372

/*
 * Copyright 2018-2025 Yury Gribov
 *
 * The MIT License (MIT)
 *
 * Use of this source code is governed by MIT license that can be
 * found in the LICENSE.txt file.
 */

  .globl pango_context_get_base_dir
  .p2align 4
  .type pango_context_get_base_dir, %function
#ifndef IMPLIB_EXPORT_SHIMS
  .hidden pango_context_get_base_dir
#endif
pango_context_get_base_dir:
  .cfi_startproc

1:
  // Load address
  // TODO: can we do this faster on newer ARMs?
  ldr ip, 3f
2:
  add ip, pc, ip
  ldr ip, [ip]

  cmp ip, #0

  // Fast path
  bxne ip

  // Slow path
  ldr ip, =94
  push {ip}
  .cfi_adjust_cfa_offset 4
  PUSH_REG(lr)
  bl _libpango_1_0_so_save_regs_and_resolve
  POP_REG(lr)
  add sp, #4
  .cfi_adjust_cfa_offset -4
  bx ip

  // Force constant pool for ldr above
  .ltorg

  .cfi_endproc

3:
  .word _libpango_1_0_so_tramp_table - (2b + 8) + 376

/*
 * Copyright 2018-2025 Yury Gribov
 *
 * The MIT License (MIT)
 *
 * Use of this source code is governed by MIT license that can be
 * found in the LICENSE.txt file.
 */

  .globl pango_context_get_base_gravity
  .p2align 4
  .type pango_context_get_base_gravity, %function
#ifndef IMPLIB_EXPORT_SHIMS
  .hidden pango_context_get_base_gravity
#endif
pango_context_get_base_gravity:
  .cfi_startproc

1:
  // Load address
  // TODO: can we do this faster on newer ARMs?
  ldr ip, 3f
2:
  add ip, pc, ip
  ldr ip, [ip]

  cmp ip, #0

  // Fast path
  bxne ip

  // Slow path
  ldr ip, =95
  push {ip}
  .cfi_adjust_cfa_offset 4
  PUSH_REG(lr)
  bl _libpango_1_0_so_save_regs_and_resolve
  POP_REG(lr)
  add sp, #4
  .cfi_adjust_cfa_offset -4
  bx ip

  // Force constant pool for ldr above
  .ltorg

  .cfi_endproc

3:
  .word _libpango_1_0_so_tramp_table - (2b + 8) + 380

/*
 * Copyright 2018-2025 Yury Gribov
 *
 * The MIT License (MIT)
 *
 * Use of this source code is governed by MIT license that can be
 * found in the LICENSE.txt file.
 */

  .globl pango_context_get_font_description
  .p2align 4
  .type pango_context_get_font_description, %function
#ifndef IMPLIB_EXPORT_SHIMS
  .hidden pango_context_get_font_description
#endif
pango_context_get_font_description:
  .cfi_startproc

1:
  // Load address
  // TODO: can we do this faster on newer ARMs?
  ldr ip, 3f
2:
  add ip, pc, ip
  ldr ip, [ip]

  cmp ip, #0

  // Fast path
  bxne ip

  // Slow path
  ldr ip, =96
  push {ip}
  .cfi_adjust_cfa_offset 4
  PUSH_REG(lr)
  bl _libpango_1_0_so_save_regs_and_resolve
  POP_REG(lr)
  add sp, #4
  .cfi_adjust_cfa_offset -4
  bx ip

  // Force constant pool for ldr above
  .ltorg

  .cfi_endproc

3:
  .word _libpango_1_0_so_tramp_table - (2b + 8) + 384

/*
 * Copyright 2018-2025 Yury Gribov
 *
 * The MIT License (MIT)
 *
 * Use of this source code is governed by MIT license that can be
 * found in the LICENSE.txt file.
 */

  .globl pango_context_get_font_map
  .p2align 4
  .type pango_context_get_font_map, %function
#ifndef IMPLIB_EXPORT_SHIMS
  .hidden pango_context_get_font_map
#endif
pango_context_get_font_map:
  .cfi_startproc

1:
  // Load address
  // TODO: can we do this faster on newer ARMs?
  ldr ip, 3f
2:
  add ip, pc, ip
  ldr ip, [ip]

  cmp ip, #0

  // Fast path
  bxne ip

  // Slow path
  ldr ip, =97
  push {ip}
  .cfi_adjust_cfa_offset 4
  PUSH_REG(lr)
  bl _libpango_1_0_so_save_regs_and_resolve
  POP_REG(lr)
  add sp, #4
  .cfi_adjust_cfa_offset -4
  bx ip

  // Force constant pool for ldr above
  .ltorg

  .cfi_endproc

3:
  .word _libpango_1_0_so_tramp_table - (2b + 8) + 388

/*
 * Copyright 2018-2025 Yury Gribov
 *
 * The MIT License (MIT)
 *
 * Use of this source code is governed by MIT license that can be
 * found in the LICENSE.txt file.
 */

  .globl pango_context_get_gravity
  .p2align 4
  .type pango_context_get_gravity, %function
#ifndef IMPLIB_EXPORT_SHIMS
  .hidden pango_context_get_gravity
#endif
pango_context_get_gravity:
  .cfi_startproc

1:
  // Load address
  // TODO: can we do this faster on newer ARMs?
  ldr ip, 3f
2:
  add ip, pc, ip
  ldr ip, [ip]

  cmp ip, #0

  // Fast path
  bxne ip

  // Slow path
  ldr ip, =98
  push {ip}
  .cfi_adjust_cfa_offset 4
  PUSH_REG(lr)
  bl _libpango_1_0_so_save_regs_and_resolve
  POP_REG(lr)
  add sp, #4
  .cfi_adjust_cfa_offset -4
  bx ip

  // Force constant pool for ldr above
  .ltorg

  .cfi_endproc

3:
  .word _libpango_1_0_so_tramp_table - (2b + 8) + 392

/*
 * Copyright 2018-2025 Yury Gribov
 *
 * The MIT License (MIT)
 *
 * Use of this source code is governed by MIT license that can be
 * found in the LICENSE.txt file.
 */

  .globl pango_context_get_gravity_hint
  .p2align 4
  .type pango_context_get_gravity_hint, %function
#ifndef IMPLIB_EXPORT_SHIMS
  .hidden pango_context_get_gravity_hint
#endif
pango_context_get_gravity_hint:
  .cfi_startproc

1:
  // Load address
  // TODO: can we do this faster on newer ARMs?
  ldr ip, 3f
2:
  add ip, pc, ip
  ldr ip, [ip]

  cmp ip, #0

  // Fast path
  bxne ip

  // Slow path
  ldr ip, =99
  push {ip}
  .cfi_adjust_cfa_offset 4
  PUSH_REG(lr)
  bl _libpango_1_0_so_save_regs_and_resolve
  POP_REG(lr)
  add sp, #4
  .cfi_adjust_cfa_offset -4
  bx ip

  // Force constant pool for ldr above
  .ltorg

  .cfi_endproc

3:
  .word _libpango_1_0_so_tramp_table - (2b + 8) + 396

/*
 * Copyright 2018-2025 Yury Gribov
 *
 * The MIT License (MIT)
 *
 * Use of this source code is governed by MIT license that can be
 * found in the LICENSE.txt file.
 */

  .globl pango_context_get_language
  .p2align 4
  .type pango_context_get_language, %function
#ifndef IMPLIB_EXPORT_SHIMS
  .hidden pango_context_get_language
#endif
pango_context_get_language:
  .cfi_startproc

1:
  // Load address
  // TODO: can we do this faster on newer ARMs?
  ldr ip, 3f
2:
  add ip, pc, ip
  ldr ip, [ip]

  cmp ip, #0

  // Fast path
  bxne ip

  // Slow path
  ldr ip, =100
  push {ip}
  .cfi_adjust_cfa_offset 4
  PUSH_REG(lr)
  bl _libpango_1_0_so_save_regs_and_resolve
  POP_REG(lr)
  add sp, #4
  .cfi_adjust_cfa_offset -4
  bx ip

  // Force constant pool for ldr above
  .ltorg

  .cfi_endproc

3:
  .word _libpango_1_0_so_tramp_table - (2b + 8) + 400

/*
 * Copyright 2018-2025 Yury Gribov
 *
 * The MIT License (MIT)
 *
 * Use of this source code is governed by MIT license that can be
 * found in the LICENSE.txt file.
 */

  .globl pango_context_get_matrix
  .p2align 4
  .type pango_context_get_matrix, %function
#ifndef IMPLIB_EXPORT_SHIMS
  .hidden pango_context_get_matrix
#endif
pango_context_get_matrix:
  .cfi_startproc

1:
  // Load address
  // TODO: can we do this faster on newer ARMs?
  ldr ip, 3f
2:
  add ip, pc, ip
  ldr ip, [ip]

  cmp ip, #0

  // Fast path
  bxne ip

  // Slow path
  ldr ip, =101
  push {ip}
  .cfi_adjust_cfa_offset 4
  PUSH_REG(lr)
  bl _libpango_1_0_so_save_regs_and_resolve
  POP_REG(lr)
  add sp, #4
  .cfi_adjust_cfa_offset -4
  bx ip

  // Force constant pool for ldr above
  .ltorg

  .cfi_endproc

3:
  .word _libpango_1_0_so_tramp_table - (2b + 8) + 404

/*
 * Copyright 2018-2025 Yury Gribov
 *
 * The MIT License (MIT)
 *
 * Use of this source code is governed by MIT license that can be
 * found in the LICENSE.txt file.
 */

  .globl pango_context_get_metrics
  .p2align 4
  .type pango_context_get_metrics, %function
#ifndef IMPLIB_EXPORT_SHIMS
  .hidden pango_context_get_metrics
#endif
pango_context_get_metrics:
  .cfi_startproc

1:
  // Load address
  // TODO: can we do this faster on newer ARMs?
  ldr ip, 3f
2:
  add ip, pc, ip
  ldr ip, [ip]

  cmp ip, #0

  // Fast path
  bxne ip

  // Slow path
  ldr ip, =102
  push {ip}
  .cfi_adjust_cfa_offset 4
  PUSH_REG(lr)
  bl _libpango_1_0_so_save_regs_and_resolve
  POP_REG(lr)
  add sp, #4
  .cfi_adjust_cfa_offset -4
  bx ip

  // Force constant pool for ldr above
  .ltorg

  .cfi_endproc

3:
  .word _libpango_1_0_so_tramp_table - (2b + 8) + 408

/*
 * Copyright 2018-2025 Yury Gribov
 *
 * The MIT License (MIT)
 *
 * Use of this source code is governed by MIT license that can be
 * found in the LICENSE.txt file.
 */

  .globl pango_context_get_round_glyph_positions
  .p2align 4
  .type pango_context_get_round_glyph_positions, %function
#ifndef IMPLIB_EXPORT_SHIMS
  .hidden pango_context_get_round_glyph_positions
#endif
pango_context_get_round_glyph_positions:
  .cfi_startproc

1:
  // Load address
  // TODO: can we do this faster on newer ARMs?
  ldr ip, 3f
2:
  add ip, pc, ip
  ldr ip, [ip]

  cmp ip, #0

  // Fast path
  bxne ip

  // Slow path
  ldr ip, =103
  push {ip}
  .cfi_adjust_cfa_offset 4
  PUSH_REG(lr)
  bl _libpango_1_0_so_save_regs_and_resolve
  POP_REG(lr)
  add sp, #4
  .cfi_adjust_cfa_offset -4
  bx ip

  // Force constant pool for ldr above
  .ltorg

  .cfi_endproc

3:
  .word _libpango_1_0_so_tramp_table - (2b + 8) + 412

/*
 * Copyright 2018-2025 Yury Gribov
 *
 * The MIT License (MIT)
 *
 * Use of this source code is governed by MIT license that can be
 * found in the LICENSE.txt file.
 */

  .globl pango_context_get_serial
  .p2align 4
  .type pango_context_get_serial, %function
#ifndef IMPLIB_EXPORT_SHIMS
  .hidden pango_context_get_serial
#endif
pango_context_get_serial:
  .cfi_startproc

1:
  // Load address
  // TODO: can we do this faster on newer ARMs?
  ldr ip, 3f
2:
  add ip, pc, ip
  ldr ip, [ip]

  cmp ip, #0

  // Fast path
  bxne ip

  // Slow path
  ldr ip, =104
  push {ip}
  .cfi_adjust_cfa_offset 4
  PUSH_REG(lr)
  bl _libpango_1_0_so_save_regs_and_resolve
  POP_REG(lr)
  add sp, #4
  .cfi_adjust_cfa_offset -4
  bx ip

  // Force constant pool for ldr above
  .ltorg

  .cfi_endproc

3:
  .word _libpango_1_0_so_tramp_table - (2b + 8) + 416

/*
 * Copyright 2018-2025 Yury Gribov
 *
 * The MIT License (MIT)
 *
 * Use of this source code is governed by MIT license that can be
 * found in the LICENSE.txt file.
 */

  .globl pango_context_get_type
  .p2align 4
  .type pango_context_get_type, %function
#ifndef IMPLIB_EXPORT_SHIMS
  .hidden pango_context_get_type
#endif
pango_context_get_type:
  .cfi_startproc

1:
  // Load address
  // TODO: can we do this faster on newer ARMs?
  ldr ip, 3f
2:
  add ip, pc, ip
  ldr ip, [ip]

  cmp ip, #0

  // Fast path
  bxne ip

  // Slow path
  ldr ip, =105
  push {ip}
  .cfi_adjust_cfa_offset 4
  PUSH_REG(lr)
  bl _libpango_1_0_so_save_regs_and_resolve
  POP_REG(lr)
  add sp, #4
  .cfi_adjust_cfa_offset -4
  bx ip

  // Force constant pool for ldr above
  .ltorg

  .cfi_endproc

3:
  .word _libpango_1_0_so_tramp_table - (2b + 8) + 420

/*
 * Copyright 2018-2025 Yury Gribov
 *
 * The MIT License (MIT)
 *
 * Use of this source code is governed by MIT license that can be
 * found in the LICENSE.txt file.
 */

  .globl pango_context_list_families
  .p2align 4
  .type pango_context_list_families, %function
#ifndef IMPLIB_EXPORT_SHIMS
  .hidden pango_context_list_families
#endif
pango_context_list_families:
  .cfi_startproc

1:
  // Load address
  // TODO: can we do this faster on newer ARMs?
  ldr ip, 3f
2:
  add ip, pc, ip
  ldr ip, [ip]

  cmp ip, #0

  // Fast path
  bxne ip

  // Slow path
  ldr ip, =106
  push {ip}
  .cfi_adjust_cfa_offset 4
  PUSH_REG(lr)
  bl _libpango_1_0_so_save_regs_and_resolve
  POP_REG(lr)
  add sp, #4
  .cfi_adjust_cfa_offset -4
  bx ip

  // Force constant pool for ldr above
  .ltorg

  .cfi_endproc

3:
  .word _libpango_1_0_so_tramp_table - (2b + 8) + 424

/*
 * Copyright 2018-2025 Yury Gribov
 *
 * The MIT License (MIT)
 *
 * Use of this source code is governed by MIT license that can be
 * found in the LICENSE.txt file.
 */

  .globl pango_context_load_font
  .p2align 4
  .type pango_context_load_font, %function
#ifndef IMPLIB_EXPORT_SHIMS
  .hidden pango_context_load_font
#endif
pango_context_load_font:
  .cfi_startproc

1:
  // Load address
  // TODO: can we do this faster on newer ARMs?
  ldr ip, 3f
2:
  add ip, pc, ip
  ldr ip, [ip]

  cmp ip, #0

  // Fast path
  bxne ip

  // Slow path
  ldr ip, =107
  push {ip}
  .cfi_adjust_cfa_offset 4
  PUSH_REG(lr)
  bl _libpango_1_0_so_save_regs_and_resolve
  POP_REG(lr)
  add sp, #4
  .cfi_adjust_cfa_offset -4
  bx ip

  // Force constant pool for ldr above
  .ltorg

  .cfi_endproc

3:
  .word _libpango_1_0_so_tramp_table - (2b + 8) + 428

/*
 * Copyright 2018-2025 Yury Gribov
 *
 * The MIT License (MIT)
 *
 * Use of this source code is governed by MIT license that can be
 * found in the LICENSE.txt file.
 */

  .globl pango_context_load_fontset
  .p2align 4
  .type pango_context_load_fontset, %function
#ifndef IMPLIB_EXPORT_SHIMS
  .hidden pango_context_load_fontset
#endif
pango_context_load_fontset:
  .cfi_startproc

1:
  // Load address
  // TODO: can we do this faster on newer ARMs?
  ldr ip, 3f
2:
  add ip, pc, ip
  ldr ip, [ip]

  cmp ip, #0

  // Fast path
  bxne ip

  // Slow path
  ldr ip, =108
  push {ip}
  .cfi_adjust_cfa_offset 4
  PUSH_REG(lr)
  bl _libpango_1_0_so_save_regs_and_resolve
  POP_REG(lr)
  add sp, #4
  .cfi_adjust_cfa_offset -4
  bx ip

  // Force constant pool for ldr above
  .ltorg

  .cfi_endproc

3:
  .word _libpango_1_0_so_tramp_table - (2b + 8) + 432

/*
 * Copyright 2018-2025 Yury Gribov
 *
 * The MIT License (MIT)
 *
 * Use of this source code is governed by MIT license that can be
 * found in the LICENSE.txt file.
 */

  .globl pango_context_new
  .p2align 4
  .type pango_context_new, %function
#ifndef IMPLIB_EXPORT_SHIMS
  .hidden pango_context_new
#endif
pango_context_new:
  .cfi_startproc

1:
  // Load address
  // TODO: can we do this faster on newer ARMs?
  ldr ip, 3f
2:
  add ip, pc, ip
  ldr ip, [ip]

  cmp ip, #0

  // Fast path
  bxne ip

  // Slow path
  ldr ip, =109
  push {ip}
  .cfi_adjust_cfa_offset 4
  PUSH_REG(lr)
  bl _libpango_1_0_so_save_regs_and_resolve
  POP_REG(lr)
  add sp, #4
  .cfi_adjust_cfa_offset -4
  bx ip

  // Force constant pool for ldr above
  .ltorg

  .cfi_endproc

3:
  .word _libpango_1_0_so_tramp_table - (2b + 8) + 436

/*
 * Copyright 2018-2025 Yury Gribov
 *
 * The MIT License (MIT)
 *
 * Use of this source code is governed by MIT license that can be
 * found in the LICENSE.txt file.
 */

  .globl pango_context_set_base_dir
  .p2align 4
  .type pango_context_set_base_dir, %function
#ifndef IMPLIB_EXPORT_SHIMS
  .hidden pango_context_set_base_dir
#endif
pango_context_set_base_dir:
  .cfi_startproc

1:
  // Load address
  // TODO: can we do this faster on newer ARMs?
  ldr ip, 3f
2:
  add ip, pc, ip
  ldr ip, [ip]

  cmp ip, #0

  // Fast path
  bxne ip

  // Slow path
  ldr ip, =110
  push {ip}
  .cfi_adjust_cfa_offset 4
  PUSH_REG(lr)
  bl _libpango_1_0_so_save_regs_and_resolve
  POP_REG(lr)
  add sp, #4
  .cfi_adjust_cfa_offset -4
  bx ip

  // Force constant pool for ldr above
  .ltorg

  .cfi_endproc

3:
  .word _libpango_1_0_so_tramp_table - (2b + 8) + 440

/*
 * Copyright 2018-2025 Yury Gribov
 *
 * The MIT License (MIT)
 *
 * Use of this source code is governed by MIT license that can be
 * found in the LICENSE.txt file.
 */

  .globl pango_context_set_base_gravity
  .p2align 4
  .type pango_context_set_base_gravity, %function
#ifndef IMPLIB_EXPORT_SHIMS
  .hidden pango_context_set_base_gravity
#endif
pango_context_set_base_gravity:
  .cfi_startproc

1:
  // Load address
  // TODO: can we do this faster on newer ARMs?
  ldr ip, 3f
2:
  add ip, pc, ip
  ldr ip, [ip]

  cmp ip, #0

  // Fast path
  bxne ip

  // Slow path
  ldr ip, =111
  push {ip}
  .cfi_adjust_cfa_offset 4
  PUSH_REG(lr)
  bl _libpango_1_0_so_save_regs_and_resolve
  POP_REG(lr)
  add sp, #4
  .cfi_adjust_cfa_offset -4
  bx ip

  // Force constant pool for ldr above
  .ltorg

  .cfi_endproc

3:
  .word _libpango_1_0_so_tramp_table - (2b + 8) + 444

/*
 * Copyright 2018-2025 Yury Gribov
 *
 * The MIT License (MIT)
 *
 * Use of this source code is governed by MIT license that can be
 * found in the LICENSE.txt file.
 */

  .globl pango_context_set_font_description
  .p2align 4
  .type pango_context_set_font_description, %function
#ifndef IMPLIB_EXPORT_SHIMS
  .hidden pango_context_set_font_description
#endif
pango_context_set_font_description:
  .cfi_startproc

1:
  // Load address
  // TODO: can we do this faster on newer ARMs?
  ldr ip, 3f
2:
  add ip, pc, ip
  ldr ip, [ip]

  cmp ip, #0

  // Fast path
  bxne ip

  // Slow path
  ldr ip, =112
  push {ip}
  .cfi_adjust_cfa_offset 4
  PUSH_REG(lr)
  bl _libpango_1_0_so_save_regs_and_resolve
  POP_REG(lr)
  add sp, #4
  .cfi_adjust_cfa_offset -4
  bx ip

  // Force constant pool for ldr above
  .ltorg

  .cfi_endproc

3:
  .word _libpango_1_0_so_tramp_table - (2b + 8) + 448

/*
 * Copyright 2018-2025 Yury Gribov
 *
 * The MIT License (MIT)
 *
 * Use of this source code is governed by MIT license that can be
 * found in the LICENSE.txt file.
 */

  .globl pango_context_set_font_map
  .p2align 4
  .type pango_context_set_font_map, %function
#ifndef IMPLIB_EXPORT_SHIMS
  .hidden pango_context_set_font_map
#endif
pango_context_set_font_map:
  .cfi_startproc

1:
  // Load address
  // TODO: can we do this faster on newer ARMs?
  ldr ip, 3f
2:
  add ip, pc, ip
  ldr ip, [ip]

  cmp ip, #0

  // Fast path
  bxne ip

  // Slow path
  ldr ip, =113
  push {ip}
  .cfi_adjust_cfa_offset 4
  PUSH_REG(lr)
  bl _libpango_1_0_so_save_regs_and_resolve
  POP_REG(lr)
  add sp, #4
  .cfi_adjust_cfa_offset -4
  bx ip

  // Force constant pool for ldr above
  .ltorg

  .cfi_endproc

3:
  .word _libpango_1_0_so_tramp_table - (2b + 8) + 452

/*
 * Copyright 2018-2025 Yury Gribov
 *
 * The MIT License (MIT)
 *
 * Use of this source code is governed by MIT license that can be
 * found in the LICENSE.txt file.
 */

  .globl pango_context_set_gravity_hint
  .p2align 4
  .type pango_context_set_gravity_hint, %function
#ifndef IMPLIB_EXPORT_SHIMS
  .hidden pango_context_set_gravity_hint
#endif
pango_context_set_gravity_hint:
  .cfi_startproc

1:
  // Load address
  // TODO: can we do this faster on newer ARMs?
  ldr ip, 3f
2:
  add ip, pc, ip
  ldr ip, [ip]

  cmp ip, #0

  // Fast path
  bxne ip

  // Slow path
  ldr ip, =114
  push {ip}
  .cfi_adjust_cfa_offset 4
  PUSH_REG(lr)
  bl _libpango_1_0_so_save_regs_and_resolve
  POP_REG(lr)
  add sp, #4
  .cfi_adjust_cfa_offset -4
  bx ip

  // Force constant pool for ldr above
  .ltorg

  .cfi_endproc

3:
  .word _libpango_1_0_so_tramp_table - (2b + 8) + 456

/*
 * Copyright 2018-2025 Yury Gribov
 *
 * The MIT License (MIT)
 *
 * Use of this source code is governed by MIT license that can be
 * found in the LICENSE.txt file.
 */

  .globl pango_context_set_language
  .p2align 4
  .type pango_context_set_language, %function
#ifndef IMPLIB_EXPORT_SHIMS
  .hidden pango_context_set_language
#endif
pango_context_set_language:
  .cfi_startproc

1:
  // Load address
  // TODO: can we do this faster on newer ARMs?
  ldr ip, 3f
2:
  add ip, pc, ip
  ldr ip, [ip]

  cmp ip, #0

  // Fast path
  bxne ip

  // Slow path
  ldr ip, =115
  push {ip}
  .cfi_adjust_cfa_offset 4
  PUSH_REG(lr)
  bl _libpango_1_0_so_save_regs_and_resolve
  POP_REG(lr)
  add sp, #4
  .cfi_adjust_cfa_offset -4
  bx ip

  // Force constant pool for ldr above
  .ltorg

  .cfi_endproc

3:
  .word _libpango_1_0_so_tramp_table - (2b + 8) + 460

/*
 * Copyright 2018-2025 Yury Gribov
 *
 * The MIT License (MIT)
 *
 * Use of this source code is governed by MIT license that can be
 * found in the LICENSE.txt file.
 */

  .globl pango_context_set_matrix
  .p2align 4
  .type pango_context_set_matrix, %function
#ifndef IMPLIB_EXPORT_SHIMS
  .hidden pango_context_set_matrix
#endif
pango_context_set_matrix:
  .cfi_startproc

1:
  // Load address
  // TODO: can we do this faster on newer ARMs?
  ldr ip, 3f
2:
  add ip, pc, ip
  ldr ip, [ip]

  cmp ip, #0

  // Fast path
  bxne ip

  // Slow path
  ldr ip, =116
  push {ip}
  .cfi_adjust_cfa_offset 4
  PUSH_REG(lr)
  bl _libpango_1_0_so_save_regs_and_resolve
  POP_REG(lr)
  add sp, #4
  .cfi_adjust_cfa_offset -4
  bx ip

  // Force constant pool for ldr above
  .ltorg

  .cfi_endproc

3:
  .word _libpango_1_0_so_tramp_table - (2b + 8) + 464

/*
 * Copyright 2018-2025 Yury Gribov
 *
 * The MIT License (MIT)
 *
 * Use of this source code is governed by MIT license that can be
 * found in the LICENSE.txt file.
 */

  .globl pango_context_set_round_glyph_positions
  .p2align 4
  .type pango_context_set_round_glyph_positions, %function
#ifndef IMPLIB_EXPORT_SHIMS
  .hidden pango_context_set_round_glyph_positions
#endif
pango_context_set_round_glyph_positions:
  .cfi_startproc

1:
  // Load address
  // TODO: can we do this faster on newer ARMs?
  ldr ip, 3f
2:
  add ip, pc, ip
  ldr ip, [ip]

  cmp ip, #0

  // Fast path
  bxne ip

  // Slow path
  ldr ip, =117
  push {ip}
  .cfi_adjust_cfa_offset 4
  PUSH_REG(lr)
  bl _libpango_1_0_so_save_regs_and_resolve
  POP_REG(lr)
  add sp, #4
  .cfi_adjust_cfa_offset -4
  bx ip

  // Force constant pool for ldr above
  .ltorg

  .cfi_endproc

3:
  .word _libpango_1_0_so_tramp_table - (2b + 8) + 468

/*
 * Copyright 2018-2025 Yury Gribov
 *
 * The MIT License (MIT)
 *
 * Use of this source code is governed by MIT license that can be
 * found in the LICENSE.txt file.
 */

  .globl pango_coverage_copy
  .p2align 4
  .type pango_coverage_copy, %function
#ifndef IMPLIB_EXPORT_SHIMS
  .hidden pango_coverage_copy
#endif
pango_coverage_copy:
  .cfi_startproc

1:
  // Load address
  // TODO: can we do this faster on newer ARMs?
  ldr ip, 3f
2:
  add ip, pc, ip
  ldr ip, [ip]

  cmp ip, #0

  // Fast path
  bxne ip

  // Slow path
  ldr ip, =118
  push {ip}
  .cfi_adjust_cfa_offset 4
  PUSH_REG(lr)
  bl _libpango_1_0_so_save_regs_and_resolve
  POP_REG(lr)
  add sp, #4
  .cfi_adjust_cfa_offset -4
  bx ip

  // Force constant pool for ldr above
  .ltorg

  .cfi_endproc

3:
  .word _libpango_1_0_so_tramp_table - (2b + 8) + 472

/*
 * Copyright 2018-2025 Yury Gribov
 *
 * The MIT License (MIT)
 *
 * Use of this source code is governed by MIT license that can be
 * found in the LICENSE.txt file.
 */

  .globl pango_coverage_from_bytes
  .p2align 4
  .type pango_coverage_from_bytes, %function
#ifndef IMPLIB_EXPORT_SHIMS
  .hidden pango_coverage_from_bytes
#endif
pango_coverage_from_bytes:
  .cfi_startproc

1:
  // Load address
  // TODO: can we do this faster on newer ARMs?
  ldr ip, 3f
2:
  add ip, pc, ip
  ldr ip, [ip]

  cmp ip, #0

  // Fast path
  bxne ip

  // Slow path
  ldr ip, =119
  push {ip}
  .cfi_adjust_cfa_offset 4
  PUSH_REG(lr)
  bl _libpango_1_0_so_save_regs_and_resolve
  POP_REG(lr)
  add sp, #4
  .cfi_adjust_cfa_offset -4
  bx ip

  // Force constant pool for ldr above
  .ltorg

  .cfi_endproc

3:
  .word _libpango_1_0_so_tramp_table - (2b + 8) + 476

/*
 * Copyright 2018-2025 Yury Gribov
 *
 * The MIT License (MIT)
 *
 * Use of this source code is governed by MIT license that can be
 * found in the LICENSE.txt file.
 */

  .globl pango_coverage_get
  .p2align 4
  .type pango_coverage_get, %function
#ifndef IMPLIB_EXPORT_SHIMS
  .hidden pango_coverage_get
#endif
pango_coverage_get:
  .cfi_startproc

1:
  // Load address
  // TODO: can we do this faster on newer ARMs?
  ldr ip, 3f
2:
  add ip, pc, ip
  ldr ip, [ip]

  cmp ip, #0

  // Fast path
  bxne ip

  // Slow path
  ldr ip, =120
  push {ip}
  .cfi_adjust_cfa_offset 4
  PUSH_REG(lr)
  bl _libpango_1_0_so_save_regs_and_resolve
  POP_REG(lr)
  add sp, #4
  .cfi_adjust_cfa_offset -4
  bx ip

  // Force constant pool for ldr above
  .ltorg

  .cfi_endproc

3:
  .word _libpango_1_0_so_tramp_table - (2b + 8) + 480

/*
 * Copyright 2018-2025 Yury Gribov
 *
 * The MIT License (MIT)
 *
 * Use of this source code is governed by MIT license that can be
 * found in the LICENSE.txt file.
 */

  .globl pango_coverage_get_type
  .p2align 4
  .type pango_coverage_get_type, %function
#ifndef IMPLIB_EXPORT_SHIMS
  .hidden pango_coverage_get_type
#endif
pango_coverage_get_type:
  .cfi_startproc

1:
  // Load address
  // TODO: can we do this faster on newer ARMs?
  ldr ip, 3f
2:
  add ip, pc, ip
  ldr ip, [ip]

  cmp ip, #0

  // Fast path
  bxne ip

  // Slow path
  ldr ip, =121
  push {ip}
  .cfi_adjust_cfa_offset 4
  PUSH_REG(lr)
  bl _libpango_1_0_so_save_regs_and_resolve
  POP_REG(lr)
  add sp, #4
  .cfi_adjust_cfa_offset -4
  bx ip

  // Force constant pool for ldr above
  .ltorg

  .cfi_endproc

3:
  .word _libpango_1_0_so_tramp_table - (2b + 8) + 484

/*
 * Copyright 2018-2025 Yury Gribov
 *
 * The MIT License (MIT)
 *
 * Use of this source code is governed by MIT license that can be
 * found in the LICENSE.txt file.
 */

  .globl pango_coverage_level_get_type
  .p2align 4
  .type pango_coverage_level_get_type, %function
#ifndef IMPLIB_EXPORT_SHIMS
  .hidden pango_coverage_level_get_type
#endif
pango_coverage_level_get_type:
  .cfi_startproc

1:
  // Load address
  // TODO: can we do this faster on newer ARMs?
  ldr ip, 3f
2:
  add ip, pc, ip
  ldr ip, [ip]

  cmp ip, #0

  // Fast path
  bxne ip

  // Slow path
  ldr ip, =122
  push {ip}
  .cfi_adjust_cfa_offset 4
  PUSH_REG(lr)
  bl _libpango_1_0_so_save_regs_and_resolve
  POP_REG(lr)
  add sp, #4
  .cfi_adjust_cfa_offset -4
  bx ip

  // Force constant pool for ldr above
  .ltorg

  .cfi_endproc

3:
  .word _libpango_1_0_so_tramp_table - (2b + 8) + 488

/*
 * Copyright 2018-2025 Yury Gribov
 *
 * The MIT License (MIT)
 *
 * Use of this source code is governed by MIT license that can be
 * found in the LICENSE.txt file.
 */

  .globl pango_coverage_max
  .p2align 4
  .type pango_coverage_max, %function
#ifndef IMPLIB_EXPORT_SHIMS
  .hidden pango_coverage_max
#endif
pango_coverage_max:
  .cfi_startproc

1:
  // Load address
  // TODO: can we do this faster on newer ARMs?
  ldr ip, 3f
2:
  add ip, pc, ip
  ldr ip, [ip]

  cmp ip, #0

  // Fast path
  bxne ip

  // Slow path
  ldr ip, =123
  push {ip}
  .cfi_adjust_cfa_offset 4
  PUSH_REG(lr)
  bl _libpango_1_0_so_save_regs_and_resolve
  POP_REG(lr)
  add sp, #4
  .cfi_adjust_cfa_offset -4
  bx ip

  // Force constant pool for ldr above
  .ltorg

  .cfi_endproc

3:
  .word _libpango_1_0_so_tramp_table - (2b + 8) + 492

/*
 * Copyright 2018-2025 Yury Gribov
 *
 * The MIT License (MIT)
 *
 * Use of this source code is governed by MIT license that can be
 * found in the LICENSE.txt file.
 */

  .globl pango_coverage_new
  .p2align 4
  .type pango_coverage_new, %function
#ifndef IMPLIB_EXPORT_SHIMS
  .hidden pango_coverage_new
#endif
pango_coverage_new:
  .cfi_startproc

1:
  // Load address
  // TODO: can we do this faster on newer ARMs?
  ldr ip, 3f
2:
  add ip, pc, ip
  ldr ip, [ip]

  cmp ip, #0

  // Fast path
  bxne ip

  // Slow path
  ldr ip, =124
  push {ip}
  .cfi_adjust_cfa_offset 4
  PUSH_REG(lr)
  bl _libpango_1_0_so_save_regs_and_resolve
  POP_REG(lr)
  add sp, #4
  .cfi_adjust_cfa_offset -4
  bx ip

  // Force constant pool for ldr above
  .ltorg

  .cfi_endproc

3:
  .word _libpango_1_0_so_tramp_table - (2b + 8) + 496

/*
 * Copyright 2018-2025 Yury Gribov
 *
 * The MIT License (MIT)
 *
 * Use of this source code is governed by MIT license that can be
 * found in the LICENSE.txt file.
 */

  .globl pango_coverage_ref
  .p2align 4
  .type pango_coverage_ref, %function
#ifndef IMPLIB_EXPORT_SHIMS
  .hidden pango_coverage_ref
#endif
pango_coverage_ref:
  .cfi_startproc

1:
  // Load address
  // TODO: can we do this faster on newer ARMs?
  ldr ip, 3f
2:
  add ip, pc, ip
  ldr ip, [ip]

  cmp ip, #0

  // Fast path
  bxne ip

  // Slow path
  ldr ip, =125
  push {ip}
  .cfi_adjust_cfa_offset 4
  PUSH_REG(lr)
  bl _libpango_1_0_so_save_regs_and_resolve
  POP_REG(lr)
  add sp, #4
  .cfi_adjust_cfa_offset -4
  bx ip

  // Force constant pool for ldr above
  .ltorg

  .cfi_endproc

3:
  .word _libpango_1_0_so_tramp_table - (2b + 8) + 500

/*
 * Copyright 2018-2025 Yury Gribov
 *
 * The MIT License (MIT)
 *
 * Use of this source code is governed by MIT license that can be
 * found in the LICENSE.txt file.
 */

  .globl pango_coverage_set
  .p2align 4
  .type pango_coverage_set, %function
#ifndef IMPLIB_EXPORT_SHIMS
  .hidden pango_coverage_set
#endif
pango_coverage_set:
  .cfi_startproc

1:
  // Load address
  // TODO: can we do this faster on newer ARMs?
  ldr ip, 3f
2:
  add ip, pc, ip
  ldr ip, [ip]

  cmp ip, #0

  // Fast path
  bxne ip

  // Slow path
  ldr ip, =126
  push {ip}
  .cfi_adjust_cfa_offset 4
  PUSH_REG(lr)
  bl _libpango_1_0_so_save_regs_and_resolve
  POP_REG(lr)
  add sp, #4
  .cfi_adjust_cfa_offset -4
  bx ip

  // Force constant pool for ldr above
  .ltorg

  .cfi_endproc

3:
  .word _libpango_1_0_so_tramp_table - (2b + 8) + 504

/*
 * Copyright 2018-2025 Yury Gribov
 *
 * The MIT License (MIT)
 *
 * Use of this source code is governed by MIT license that can be
 * found in the LICENSE.txt file.
 */

  .globl pango_coverage_to_bytes
  .p2align 4
  .type pango_coverage_to_bytes, %function
#ifndef IMPLIB_EXPORT_SHIMS
  .hidden pango_coverage_to_bytes
#endif
pango_coverage_to_bytes:
  .cfi_startproc

1:
  // Load address
  // TODO: can we do this faster on newer ARMs?
  ldr ip, 3f
2:
  add ip, pc, ip
  ldr ip, [ip]

  cmp ip, #0

  // Fast path
  bxne ip

  // Slow path
  ldr ip, =127
  push {ip}
  .cfi_adjust_cfa_offset 4
  PUSH_REG(lr)
  bl _libpango_1_0_so_save_regs_and_resolve
  POP_REG(lr)
  add sp, #4
  .cfi_adjust_cfa_offset -4
  bx ip

  // Force constant pool for ldr above
  .ltorg

  .cfi_endproc

3:
  .word _libpango_1_0_so_tramp_table - (2b + 8) + 508

/*
 * Copyright 2018-2025 Yury Gribov
 *
 * The MIT License (MIT)
 *
 * Use of this source code is governed by MIT license that can be
 * found in the LICENSE.txt file.
 */

  .globl pango_coverage_unref
  .p2align 4
  .type pango_coverage_unref, %function
#ifndef IMPLIB_EXPORT_SHIMS
  .hidden pango_coverage_unref
#endif
pango_coverage_unref:
  .cfi_startproc

1:
  // Load address
  // TODO: can we do this faster on newer ARMs?
  ldr ip, 3f
2:
  add ip, pc, ip
  ldr ip, [ip]

  cmp ip, #0

  // Fast path
  bxne ip

  // Slow path
  ldr ip, =128
  push {ip}
  .cfi_adjust_cfa_offset 4
  PUSH_REG(lr)
  bl _libpango_1_0_so_save_regs_and_resolve
  POP_REG(lr)
  add sp, #4
  .cfi_adjust_cfa_offset -4
  bx ip

  // Force constant pool for ldr above
  .ltorg

  .cfi_endproc

3:
  .word _libpango_1_0_so_tramp_table - (2b + 8) + 512

/*
 * Copyright 2018-2025 Yury Gribov
 *
 * The MIT License (MIT)
 *
 * Use of this source code is governed by MIT license that can be
 * found in the LICENSE.txt file.
 */

  .globl pango_default_break
  .p2align 4
  .type pango_default_break, %function
#ifndef IMPLIB_EXPORT_SHIMS
  .hidden pango_default_break
#endif
pango_default_break:
  .cfi_startproc

1:
  // Load address
  // TODO: can we do this faster on newer ARMs?
  ldr ip, 3f
2:
  add ip, pc, ip
  ldr ip, [ip]

  cmp ip, #0

  // Fast path
  bxne ip

  // Slow path
  ldr ip, =129
  push {ip}
  .cfi_adjust_cfa_offset 4
  PUSH_REG(lr)
  bl _libpango_1_0_so_save_regs_and_resolve
  POP_REG(lr)
  add sp, #4
  .cfi_adjust_cfa_offset -4
  bx ip

  // Force constant pool for ldr above
  .ltorg

  .cfi_endproc

3:
  .word _libpango_1_0_so_tramp_table - (2b + 8) + 516

/*
 * Copyright 2018-2025 Yury Gribov
 *
 * The MIT License (MIT)
 *
 * Use of this source code is governed by MIT license that can be
 * found in the LICENSE.txt file.
 */

  .globl pango_direction_get_type
  .p2align 4
  .type pango_direction_get_type, %function
#ifndef IMPLIB_EXPORT_SHIMS
  .hidden pango_direction_get_type
#endif
pango_direction_get_type:
  .cfi_startproc

1:
  // Load address
  // TODO: can we do this faster on newer ARMs?
  ldr ip, 3f
2:
  add ip, pc, ip
  ldr ip, [ip]

  cmp ip, #0

  // Fast path
  bxne ip

  // Slow path
  ldr ip, =130
  push {ip}
  .cfi_adjust_cfa_offset 4
  PUSH_REG(lr)
  bl _libpango_1_0_so_save_regs_and_resolve
  POP_REG(lr)
  add sp, #4
  .cfi_adjust_cfa_offset -4
  bx ip

  // Force constant pool for ldr above
  .ltorg

  .cfi_endproc

3:
  .word _libpango_1_0_so_tramp_table - (2b + 8) + 520

/*
 * Copyright 2018-2025 Yury Gribov
 *
 * The MIT License (MIT)
 *
 * Use of this source code is governed by MIT license that can be
 * found in the LICENSE.txt file.
 */

  .globl pango_ellipsize_mode_get_type
  .p2align 4
  .type pango_ellipsize_mode_get_type, %function
#ifndef IMPLIB_EXPORT_SHIMS
  .hidden pango_ellipsize_mode_get_type
#endif
pango_ellipsize_mode_get_type:
  .cfi_startproc

1:
  // Load address
  // TODO: can we do this faster on newer ARMs?
  ldr ip, 3f
2:
  add ip, pc, ip
  ldr ip, [ip]

  cmp ip, #0

  // Fast path
  bxne ip

  // Slow path
  ldr ip, =131
  push {ip}
  .cfi_adjust_cfa_offset 4
  PUSH_REG(lr)
  bl _libpango_1_0_so_save_regs_and_resolve
  POP_REG(lr)
  add sp, #4
  .cfi_adjust_cfa_offset -4
  bx ip

  // Force constant pool for ldr above
  .ltorg

  .cfi_endproc

3:
  .word _libpango_1_0_so_tramp_table - (2b + 8) + 524

/*
 * Copyright 2018-2025 Yury Gribov
 *
 * The MIT License (MIT)
 *
 * Use of this source code is governed by MIT license that can be
 * found in the LICENSE.txt file.
 */

  .globl pango_engine_get_type
  .p2align 4
  .type pango_engine_get_type, %function
#ifndef IMPLIB_EXPORT_SHIMS
  .hidden pango_engine_get_type
#endif
pango_engine_get_type:
  .cfi_startproc

1:
  // Load address
  // TODO: can we do this faster on newer ARMs?
  ldr ip, 3f
2:
  add ip, pc, ip
  ldr ip, [ip]

  cmp ip, #0

  // Fast path
  bxne ip

  // Slow path
  ldr ip, =132
  push {ip}
  .cfi_adjust_cfa_offset 4
  PUSH_REG(lr)
  bl _libpango_1_0_so_save_regs_and_resolve
  POP_REG(lr)
  add sp, #4
  .cfi_adjust_cfa_offset -4
  bx ip

  // Force constant pool for ldr above
  .ltorg

  .cfi_endproc

3:
  .word _libpango_1_0_so_tramp_table - (2b + 8) + 528

/*
 * Copyright 2018-2025 Yury Gribov
 *
 * The MIT License (MIT)
 *
 * Use of this source code is governed by MIT license that can be
 * found in the LICENSE.txt file.
 */

  .globl pango_engine_lang_get_type
  .p2align 4
  .type pango_engine_lang_get_type, %function
#ifndef IMPLIB_EXPORT_SHIMS
  .hidden pango_engine_lang_get_type
#endif
pango_engine_lang_get_type:
  .cfi_startproc

1:
  // Load address
  // TODO: can we do this faster on newer ARMs?
  ldr ip, 3f
2:
  add ip, pc, ip
  ldr ip, [ip]

  cmp ip, #0

  // Fast path
  bxne ip

  // Slow path
  ldr ip, =133
  push {ip}
  .cfi_adjust_cfa_offset 4
  PUSH_REG(lr)
  bl _libpango_1_0_so_save_regs_and_resolve
  POP_REG(lr)
  add sp, #4
  .cfi_adjust_cfa_offset -4
  bx ip

  // Force constant pool for ldr above
  .ltorg

  .cfi_endproc

3:
  .word _libpango_1_0_so_tramp_table - (2b + 8) + 532

/*
 * Copyright 2018-2025 Yury Gribov
 *
 * The MIT License (MIT)
 *
 * Use of this source code is governed by MIT license that can be
 * found in the LICENSE.txt file.
 */

  .globl pango_engine_shape_get_type
  .p2align 4
  .type pango_engine_shape_get_type, %function
#ifndef IMPLIB_EXPORT_SHIMS
  .hidden pango_engine_shape_get_type
#endif
pango_engine_shape_get_type:
  .cfi_startproc

1:
  // Load address
  // TODO: can we do this faster on newer ARMs?
  ldr ip, 3f
2:
  add ip, pc, ip
  ldr ip, [ip]

  cmp ip, #0

  // Fast path
  bxne ip

  // Slow path
  ldr ip, =134
  push {ip}
  .cfi_adjust_cfa_offset 4
  PUSH_REG(lr)
  bl _libpango_1_0_so_save_regs_and_resolve
  POP_REG(lr)
  add sp, #4
  .cfi_adjust_cfa_offset -4
  bx ip

  // Force constant pool for ldr above
  .ltorg

  .cfi_endproc

3:
  .word _libpango_1_0_so_tramp_table - (2b + 8) + 536

/*
 * Copyright 2018-2025 Yury Gribov
 *
 * The MIT License (MIT)
 *
 * Use of this source code is governed by MIT license that can be
 * found in the LICENSE.txt file.
 */

  .globl pango_extents_to_pixels
  .p2align 4
  .type pango_extents_to_pixels, %function
#ifndef IMPLIB_EXPORT_SHIMS
  .hidden pango_extents_to_pixels
#endif
pango_extents_to_pixels:
  .cfi_startproc

1:
  // Load address
  // TODO: can we do this faster on newer ARMs?
  ldr ip, 3f
2:
  add ip, pc, ip
  ldr ip, [ip]

  cmp ip, #0

  // Fast path
  bxne ip

  // Slow path
  ldr ip, =135
  push {ip}
  .cfi_adjust_cfa_offset 4
  PUSH_REG(lr)
  bl _libpango_1_0_so_save_regs_and_resolve
  POP_REG(lr)
  add sp, #4
  .cfi_adjust_cfa_offset -4
  bx ip

  // Force constant pool for ldr above
  .ltorg

  .cfi_endproc

3:
  .word _libpango_1_0_so_tramp_table - (2b + 8) + 540

/*
 * Copyright 2018-2025 Yury Gribov
 *
 * The MIT License (MIT)
 *
 * Use of this source code is governed by MIT license that can be
 * found in the LICENSE.txt file.
 */

  .globl pango_find_base_dir
  .p2align 4
  .type pango_find_base_dir, %function
#ifndef IMPLIB_EXPORT_SHIMS
  .hidden pango_find_base_dir
#endif
pango_find_base_dir:
  .cfi_startproc

1:
  // Load address
  // TODO: can we do this faster on newer ARMs?
  ldr ip, 3f
2:
  add ip, pc, ip
  ldr ip, [ip]

  cmp ip, #0

  // Fast path
  bxne ip

  // Slow path
  ldr ip, =136
  push {ip}
  .cfi_adjust_cfa_offset 4
  PUSH_REG(lr)
  bl _libpango_1_0_so_save_regs_and_resolve
  POP_REG(lr)
  add sp, #4
  .cfi_adjust_cfa_offset -4
  bx ip

  // Force constant pool for ldr above
  .ltorg

  .cfi_endproc

3:
  .word _libpango_1_0_so_tramp_table - (2b + 8) + 544

/*
 * Copyright 2018-2025 Yury Gribov
 *
 * The MIT License (MIT)
 *
 * Use of this source code is governed by MIT license that can be
 * found in the LICENSE.txt file.
 */

  .globl pango_find_map
  .p2align 4
  .type pango_find_map, %function
#ifndef IMPLIB_EXPORT_SHIMS
  .hidden pango_find_map
#endif
pango_find_map:
  .cfi_startproc

1:
  // Load address
  // TODO: can we do this faster on newer ARMs?
  ldr ip, 3f
2:
  add ip, pc, ip
  ldr ip, [ip]

  cmp ip, #0

  // Fast path
  bxne ip

  // Slow path
  ldr ip, =137
  push {ip}
  .cfi_adjust_cfa_offset 4
  PUSH_REG(lr)
  bl _libpango_1_0_so_save_regs_and_resolve
  POP_REG(lr)
  add sp, #4
  .cfi_adjust_cfa_offset -4
  bx ip

  // Force constant pool for ldr above
  .ltorg

  .cfi_endproc

3:
  .word _libpango_1_0_so_tramp_table - (2b + 8) + 548

/*
 * Copyright 2018-2025 Yury Gribov
 *
 * The MIT License (MIT)
 *
 * Use of this source code is governed by MIT license that can be
 * found in the LICENSE.txt file.
 */

  .globl pango_find_paragraph_boundary
  .p2align 4
  .type pango_find_paragraph_boundary, %function
#ifndef IMPLIB_EXPORT_SHIMS
  .hidden pango_find_paragraph_boundary
#endif
pango_find_paragraph_boundary:
  .cfi_startproc

1:
  // Load address
  // TODO: can we do this faster on newer ARMs?
  ldr ip, 3f
2:
  add ip, pc, ip
  ldr ip, [ip]

  cmp ip, #0

  // Fast path
  bxne ip

  // Slow path
  ldr ip, =138
  push {ip}
  .cfi_adjust_cfa_offset 4
  PUSH_REG(lr)
  bl _libpango_1_0_so_save_regs_and_resolve
  POP_REG(lr)
  add sp, #4
  .cfi_adjust_cfa_offset -4
  bx ip

  // Force constant pool for ldr above
  .ltorg

  .cfi_endproc

3:
  .word _libpango_1_0_so_tramp_table - (2b + 8) + 552

/*
 * Copyright 2018-2025 Yury Gribov
 *
 * The MIT License (MIT)
 *
 * Use of this source code is governed by MIT license that can be
 * found in the LICENSE.txt file.
 */

  .globl pango_font_describe
  .p2align 4
  .type pango_font_describe, %function
#ifndef IMPLIB_EXPORT_SHIMS
  .hidden pango_font_describe
#endif
pango_font_describe:
  .cfi_startproc

1:
  // Load address
  // TODO: can we do this faster on newer ARMs?
  ldr ip, 3f
2:
  add ip, pc, ip
  ldr ip, [ip]

  cmp ip, #0

  // Fast path
  bxne ip

  // Slow path
  ldr ip, =139
  push {ip}
  .cfi_adjust_cfa_offset 4
  PUSH_REG(lr)
  bl _libpango_1_0_so_save_regs_and_resolve
  POP_REG(lr)
  add sp, #4
  .cfi_adjust_cfa_offset -4
  bx ip

  // Force constant pool for ldr above
  .ltorg

  .cfi_endproc

3:
  .word _libpango_1_0_so_tramp_table - (2b + 8) + 556

/*
 * Copyright 2018-2025 Yury Gribov
 *
 * The MIT License (MIT)
 *
 * Use of this source code is governed by MIT license that can be
 * found in the LICENSE.txt file.
 */

  .globl pango_font_describe_with_absolute_size
  .p2align 4
  .type pango_font_describe_with_absolute_size, %function
#ifndef IMPLIB_EXPORT_SHIMS
  .hidden pango_font_describe_with_absolute_size
#endif
pango_font_describe_with_absolute_size:
  .cfi_startproc

1:
  // Load address
  // TODO: can we do this faster on newer ARMs?
  ldr ip, 3f
2:
  add ip, pc, ip
  ldr ip, [ip]

  cmp ip, #0

  // Fast path
  bxne ip

  // Slow path
  ldr ip, =140
  push {ip}
  .cfi_adjust_cfa_offset 4
  PUSH_REG(lr)
  bl _libpango_1_0_so_save_regs_and_resolve
  POP_REG(lr)
  add sp, #4
  .cfi_adjust_cfa_offset -4
  bx ip

  // Force constant pool for ldr above
  .ltorg

  .cfi_endproc

3:
  .word _libpango_1_0_so_tramp_table - (2b + 8) + 560

/*
 * Copyright 2018-2025 Yury Gribov
 *
 * The MIT License (MIT)
 *
 * Use of this source code is governed by MIT license that can be
 * found in the LICENSE.txt file.
 */

  .globl pango_font_description_better_match
  .p2align 4
  .type pango_font_description_better_match, %function
#ifndef IMPLIB_EXPORT_SHIMS
  .hidden pango_font_description_better_match
#endif
pango_font_description_better_match:
  .cfi_startproc

1:
  // Load address
  // TODO: can we do this faster on newer ARMs?
  ldr ip, 3f
2:
  add ip, pc, ip
  ldr ip, [ip]

  cmp ip, #0

  // Fast path
  bxne ip

  // Slow path
  ldr ip, =141
  push {ip}
  .cfi_adjust_cfa_offset 4
  PUSH_REG(lr)
  bl _libpango_1_0_so_save_regs_and_resolve
  POP_REG(lr)
  add sp, #4
  .cfi_adjust_cfa_offset -4
  bx ip

  // Force constant pool for ldr above
  .ltorg

  .cfi_endproc

3:
  .word _libpango_1_0_so_tramp_table - (2b + 8) + 564

/*
 * Copyright 2018-2025 Yury Gribov
 *
 * The MIT License (MIT)
 *
 * Use of this source code is governed by MIT license that can be
 * found in the LICENSE.txt file.
 */

  .globl pango_font_description_copy
  .p2align 4
  .type pango_font_description_copy, %function
#ifndef IMPLIB_EXPORT_SHIMS
  .hidden pango_font_description_copy
#endif
pango_font_description_copy:
  .cfi_startproc

1:
  // Load address
  // TODO: can we do this faster on newer ARMs?
  ldr ip, 3f
2:
  add ip, pc, ip
  ldr ip, [ip]

  cmp ip, #0

  // Fast path
  bxne ip

  // Slow path
  ldr ip, =142
  push {ip}
  .cfi_adjust_cfa_offset 4
  PUSH_REG(lr)
  bl _libpango_1_0_so_save_regs_and_resolve
  POP_REG(lr)
  add sp, #4
  .cfi_adjust_cfa_offset -4
  bx ip

  // Force constant pool for ldr above
  .ltorg

  .cfi_endproc

3:
  .word _libpango_1_0_so_tramp_table - (2b + 8) + 568

/*
 * Copyright 2018-2025 Yury Gribov
 *
 * The MIT License (MIT)
 *
 * Use of this source code is governed by MIT license that can be
 * found in the LICENSE.txt file.
 */

  .globl pango_font_description_copy_static
  .p2align 4
  .type pango_font_description_copy_static, %function
#ifndef IMPLIB_EXPORT_SHIMS
  .hidden pango_font_description_copy_static
#endif
pango_font_description_copy_static:
  .cfi_startproc

1:
  // Load address
  // TODO: can we do this faster on newer ARMs?
  ldr ip, 3f
2:
  add ip, pc, ip
  ldr ip, [ip]

  cmp ip, #0

  // Fast path
  bxne ip

  // Slow path
  ldr ip, =143
  push {ip}
  .cfi_adjust_cfa_offset 4
  PUSH_REG(lr)
  bl _libpango_1_0_so_save_regs_and_resolve
  POP_REG(lr)
  add sp, #4
  .cfi_adjust_cfa_offset -4
  bx ip

  // Force constant pool for ldr above
  .ltorg

  .cfi_endproc

3:
  .word _libpango_1_0_so_tramp_table - (2b + 8) + 572

/*
 * Copyright 2018-2025 Yury Gribov
 *
 * The MIT License (MIT)
 *
 * Use of this source code is governed by MIT license that can be
 * found in the LICENSE.txt file.
 */

  .globl pango_font_description_equal
  .p2align 4
  .type pango_font_description_equal, %function
#ifndef IMPLIB_EXPORT_SHIMS
  .hidden pango_font_description_equal
#endif
pango_font_description_equal:
  .cfi_startproc

1:
  // Load address
  // TODO: can we do this faster on newer ARMs?
  ldr ip, 3f
2:
  add ip, pc, ip
  ldr ip, [ip]

  cmp ip, #0

  // Fast path
  bxne ip

  // Slow path
  ldr ip, =144
  push {ip}
  .cfi_adjust_cfa_offset 4
  PUSH_REG(lr)
  bl _libpango_1_0_so_save_regs_and_resolve
  POP_REG(lr)
  add sp, #4
  .cfi_adjust_cfa_offset -4
  bx ip

  // Force constant pool for ldr above
  .ltorg

  .cfi_endproc

3:
  .word _libpango_1_0_so_tramp_table - (2b + 8) + 576

/*
 * Copyright 2018-2025 Yury Gribov
 *
 * The MIT License (MIT)
 *
 * Use of this source code is governed by MIT license that can be
 * found in the LICENSE.txt file.
 */

  .globl pango_font_description_free
  .p2align 4
  .type pango_font_description_free, %function
#ifndef IMPLIB_EXPORT_SHIMS
  .hidden pango_font_description_free
#endif
pango_font_description_free:
  .cfi_startproc

1:
  // Load address
  // TODO: can we do this faster on newer ARMs?
  ldr ip, 3f
2:
  add ip, pc, ip
  ldr ip, [ip]

  cmp ip, #0

  // Fast path
  bxne ip

  // Slow path
  ldr ip, =145
  push {ip}
  .cfi_adjust_cfa_offset 4
  PUSH_REG(lr)
  bl _libpango_1_0_so_save_regs_and_resolve
  POP_REG(lr)
  add sp, #4
  .cfi_adjust_cfa_offset -4
  bx ip

  // Force constant pool for ldr above
  .ltorg

  .cfi_endproc

3:
  .word _libpango_1_0_so_tramp_table - (2b + 8) + 580

/*
 * Copyright 2018-2025 Yury Gribov
 *
 * The MIT License (MIT)
 *
 * Use of this source code is governed by MIT license that can be
 * found in the LICENSE.txt file.
 */

  .globl pango_font_description_from_string
  .p2align 4
  .type pango_font_description_from_string, %function
#ifndef IMPLIB_EXPORT_SHIMS
  .hidden pango_font_description_from_string
#endif
pango_font_description_from_string:
  .cfi_startproc

1:
  // Load address
  // TODO: can we do this faster on newer ARMs?
  ldr ip, 3f
2:
  add ip, pc, ip
  ldr ip, [ip]

  cmp ip, #0

  // Fast path
  bxne ip

  // Slow path
  ldr ip, =146
  push {ip}
  .cfi_adjust_cfa_offset 4
  PUSH_REG(lr)
  bl _libpango_1_0_so_save_regs_and_resolve
  POP_REG(lr)
  add sp, #4
  .cfi_adjust_cfa_offset -4
  bx ip

  // Force constant pool for ldr above
  .ltorg

  .cfi_endproc

3:
  .word _libpango_1_0_so_tramp_table - (2b + 8) + 584

/*
 * Copyright 2018-2025 Yury Gribov
 *
 * The MIT License (MIT)
 *
 * Use of this source code is governed by MIT license that can be
 * found in the LICENSE.txt file.
 */

  .globl pango_font_description_get_family
  .p2align 4
  .type pango_font_description_get_family, %function
#ifndef IMPLIB_EXPORT_SHIMS
  .hidden pango_font_description_get_family
#endif
pango_font_description_get_family:
  .cfi_startproc

1:
  // Load address
  // TODO: can we do this faster on newer ARMs?
  ldr ip, 3f
2:
  add ip, pc, ip
  ldr ip, [ip]

  cmp ip, #0

  // Fast path
  bxne ip

  // Slow path
  ldr ip, =147
  push {ip}
  .cfi_adjust_cfa_offset 4
  PUSH_REG(lr)
  bl _libpango_1_0_so_save_regs_and_resolve
  POP_REG(lr)
  add sp, #4
  .cfi_adjust_cfa_offset -4
  bx ip

  // Force constant pool for ldr above
  .ltorg

  .cfi_endproc

3:
  .word _libpango_1_0_so_tramp_table - (2b + 8) + 588

/*
 * Copyright 2018-2025 Yury Gribov
 *
 * The MIT License (MIT)
 *
 * Use of this source code is governed by MIT license that can be
 * found in the LICENSE.txt file.
 */

  .globl pango_font_description_get_features
  .p2align 4
  .type pango_font_description_get_features, %function
#ifndef IMPLIB_EXPORT_SHIMS
  .hidden pango_font_description_get_features
#endif
pango_font_description_get_features:
  .cfi_startproc

1:
  // Load address
  // TODO: can we do this faster on newer ARMs?
  ldr ip, 3f
2:
  add ip, pc, ip
  ldr ip, [ip]

  cmp ip, #0

  // Fast path
  bxne ip

  // Slow path
  ldr ip, =148
  push {ip}
  .cfi_adjust_cfa_offset 4
  PUSH_REG(lr)
  bl _libpango_1_0_so_save_regs_and_resolve
  POP_REG(lr)
  add sp, #4
  .cfi_adjust_cfa_offset -4
  bx ip

  // Force constant pool for ldr above
  .ltorg

  .cfi_endproc

3:
  .word _libpango_1_0_so_tramp_table - (2b + 8) + 592

/*
 * Copyright 2018-2025 Yury Gribov
 *
 * The MIT License (MIT)
 *
 * Use of this source code is governed by MIT license that can be
 * found in the LICENSE.txt file.
 */

  .globl pango_font_description_get_gravity
  .p2align 4
  .type pango_font_description_get_gravity, %function
#ifndef IMPLIB_EXPORT_SHIMS
  .hidden pango_font_description_get_gravity
#endif
pango_font_description_get_gravity:
  .cfi_startproc

1:
  // Load address
  // TODO: can we do this faster on newer ARMs?
  ldr ip, 3f
2:
  add ip, pc, ip
  ldr ip, [ip]

  cmp ip, #0

  // Fast path
  bxne ip

  // Slow path
  ldr ip, =149
  push {ip}
  .cfi_adjust_cfa_offset 4
  PUSH_REG(lr)
  bl _libpango_1_0_so_save_regs_and_resolve
  POP_REG(lr)
  add sp, #4
  .cfi_adjust_cfa_offset -4
  bx ip

  // Force constant pool for ldr above
  .ltorg

  .cfi_endproc

3:
  .word _libpango_1_0_so_tramp_table - (2b + 8) + 596

/*
 * Copyright 2018-2025 Yury Gribov
 *
 * The MIT License (MIT)
 *
 * Use of this source code is governed by MIT license that can be
 * found in the LICENSE.txt file.
 */

  .globl pango_font_description_get_set_fields
  .p2align 4
  .type pango_font_description_get_set_fields, %function
#ifndef IMPLIB_EXPORT_SHIMS
  .hidden pango_font_description_get_set_fields
#endif
pango_font_description_get_set_fields:
  .cfi_startproc

1:
  // Load address
  // TODO: can we do this faster on newer ARMs?
  ldr ip, 3f
2:
  add ip, pc, ip
  ldr ip, [ip]

  cmp ip, #0

  // Fast path
  bxne ip

  // Slow path
  ldr ip, =150
  push {ip}
  .cfi_adjust_cfa_offset 4
  PUSH_REG(lr)
  bl _libpango_1_0_so_save_regs_and_resolve
  POP_REG(lr)
  add sp, #4
  .cfi_adjust_cfa_offset -4
  bx ip

  // Force constant pool for ldr above
  .ltorg

  .cfi_endproc

3:
  .word _libpango_1_0_so_tramp_table - (2b + 8) + 600

/*
 * Copyright 2018-2025 Yury Gribov
 *
 * The MIT License (MIT)
 *
 * Use of this source code is governed by MIT license that can be
 * found in the LICENSE.txt file.
 */

  .globl pango_font_description_get_size
  .p2align 4
  .type pango_font_description_get_size, %function
#ifndef IMPLIB_EXPORT_SHIMS
  .hidden pango_font_description_get_size
#endif
pango_font_description_get_size:
  .cfi_startproc

1:
  // Load address
  // TODO: can we do this faster on newer ARMs?
  ldr ip, 3f
2:
  add ip, pc, ip
  ldr ip, [ip]

  cmp ip, #0

  // Fast path
  bxne ip

  // Slow path
  ldr ip, =151
  push {ip}
  .cfi_adjust_cfa_offset 4
  PUSH_REG(lr)
  bl _libpango_1_0_so_save_regs_and_resolve
  POP_REG(lr)
  add sp, #4
  .cfi_adjust_cfa_offset -4
  bx ip

  // Force constant pool for ldr above
  .ltorg

  .cfi_endproc

3:
  .word _libpango_1_0_so_tramp_table - (2b + 8) + 604

/*
 * Copyright 2018-2025 Yury Gribov
 *
 * The MIT License (MIT)
 *
 * Use of this source code is governed by MIT license that can be
 * found in the LICENSE.txt file.
 */

  .globl pango_font_description_get_size_is_absolute
  .p2align 4
  .type pango_font_description_get_size_is_absolute, %function
#ifndef IMPLIB_EXPORT_SHIMS
  .hidden pango_font_description_get_size_is_absolute
#endif
pango_font_description_get_size_is_absolute:
  .cfi_startproc

1:
  // Load address
  // TODO: can we do this faster on newer ARMs?
  ldr ip, 3f
2:
  add ip, pc, ip
  ldr ip, [ip]

  cmp ip, #0

  // Fast path
  bxne ip

  // Slow path
  ldr ip, =152
  push {ip}
  .cfi_adjust_cfa_offset 4
  PUSH_REG(lr)
  bl _libpango_1_0_so_save_regs_and_resolve
  POP_REG(lr)
  add sp, #4
  .cfi_adjust_cfa_offset -4
  bx ip

  // Force constant pool for ldr above
  .ltorg

  .cfi_endproc

3:
  .word _libpango_1_0_so_tramp_table - (2b + 8) + 608

/*
 * Copyright 2018-2025 Yury Gribov
 *
 * The MIT License (MIT)
 *
 * Use of this source code is governed by MIT license that can be
 * found in the LICENSE.txt file.
 */

  .globl pango_font_description_get_stretch
  .p2align 4
  .type pango_font_description_get_stretch, %function
#ifndef IMPLIB_EXPORT_SHIMS
  .hidden pango_font_description_get_stretch
#endif
pango_font_description_get_stretch:
  .cfi_startproc

1:
  // Load address
  // TODO: can we do this faster on newer ARMs?
  ldr ip, 3f
2:
  add ip, pc, ip
  ldr ip, [ip]

  cmp ip, #0

  // Fast path
  bxne ip

  // Slow path
  ldr ip, =153
  push {ip}
  .cfi_adjust_cfa_offset 4
  PUSH_REG(lr)
  bl _libpango_1_0_so_save_regs_and_resolve
  POP_REG(lr)
  add sp, #4
  .cfi_adjust_cfa_offset -4
  bx ip

  // Force constant pool for ldr above
  .ltorg

  .cfi_endproc

3:
  .word _libpango_1_0_so_tramp_table - (2b + 8) + 612

/*
 * Copyright 2018-2025 Yury Gribov
 *
 * The MIT License (MIT)
 *
 * Use of this source code is governed by MIT license that can be
 * found in the LICENSE.txt file.
 */

  .globl pango_font_description_get_style
  .p2align 4
  .type pango_font_description_get_style, %function
#ifndef IMPLIB_EXPORT_SHIMS
  .hidden pango_font_description_get_style
#endif
pango_font_description_get_style:
  .cfi_startproc

1:
  // Load address
  // TODO: can we do this faster on newer ARMs?
  ldr ip, 3f
2:
  add ip, pc, ip
  ldr ip, [ip]

  cmp ip, #0

  // Fast path
  bxne ip

  // Slow path
  ldr ip, =154
  push {ip}
  .cfi_adjust_cfa_offset 4
  PUSH_REG(lr)
  bl _libpango_1_0_so_save_regs_and_resolve
  POP_REG(lr)
  add sp, #4
  .cfi_adjust_cfa_offset -4
  bx ip

  // Force constant pool for ldr above
  .ltorg

  .cfi_endproc

3:
  .word _libpango_1_0_so_tramp_table - (2b + 8) + 616

/*
 * Copyright 2018-2025 Yury Gribov
 *
 * The MIT License (MIT)
 *
 * Use of this source code is governed by MIT license that can be
 * found in the LICENSE.txt file.
 */

  .globl pango_font_description_get_type
  .p2align 4
  .type pango_font_description_get_type, %function
#ifndef IMPLIB_EXPORT_SHIMS
  .hidden pango_font_description_get_type
#endif
pango_font_description_get_type:
  .cfi_startproc

1:
  // Load address
  // TODO: can we do this faster on newer ARMs?
  ldr ip, 3f
2:
  add ip, pc, ip
  ldr ip, [ip]

  cmp ip, #0

  // Fast path
  bxne ip

  // Slow path
  ldr ip, =155
  push {ip}
  .cfi_adjust_cfa_offset 4
  PUSH_REG(lr)
  bl _libpango_1_0_so_save_regs_and_resolve
  POP_REG(lr)
  add sp, #4
  .cfi_adjust_cfa_offset -4
  bx ip

  // Force constant pool for ldr above
  .ltorg

  .cfi_endproc

3:
  .word _libpango_1_0_so_tramp_table - (2b + 8) + 620

/*
 * Copyright 2018-2025 Yury Gribov
 *
 * The MIT License (MIT)
 *
 * Use of this source code is governed by MIT license that can be
 * found in the LICENSE.txt file.
 */

  .globl pango_font_description_get_variant
  .p2align 4
  .type pango_font_description_get_variant, %function
#ifndef IMPLIB_EXPORT_SHIMS
  .hidden pango_font_description_get_variant
#endif
pango_font_description_get_variant:
  .cfi_startproc

1:
  // Load address
  // TODO: can we do this faster on newer ARMs?
  ldr ip, 3f
2:
  add ip, pc, ip
  ldr ip, [ip]

  cmp ip, #0

  // Fast path
  bxne ip

  // Slow path
  ldr ip, =156
  push {ip}
  .cfi_adjust_cfa_offset 4
  PUSH_REG(lr)
  bl _libpango_1_0_so_save_regs_and_resolve
  POP_REG(lr)
  add sp, #4
  .cfi_adjust_cfa_offset -4
  bx ip

  // Force constant pool for ldr above
  .ltorg

  .cfi_endproc

3:
  .word _libpango_1_0_so_tramp_table - (2b + 8) + 624

/*
 * Copyright 2018-2025 Yury Gribov
 *
 * The MIT License (MIT)
 *
 * Use of this source code is governed by MIT license that can be
 * found in the LICENSE.txt file.
 */

  .globl pango_font_description_get_variations
  .p2align 4
  .type pango_font_description_get_variations, %function
#ifndef IMPLIB_EXPORT_SHIMS
  .hidden pango_font_description_get_variations
#endif
pango_font_description_get_variations:
  .cfi_startproc

1:
  // Load address
  // TODO: can we do this faster on newer ARMs?
  ldr ip, 3f
2:
  add ip, pc, ip
  ldr ip, [ip]

  cmp ip, #0

  // Fast path
  bxne ip

  // Slow path
  ldr ip, =157
  push {ip}
  .cfi_adjust_cfa_offset 4
  PUSH_REG(lr)
  bl _libpango_1_0_so_save_regs_and_resolve
  POP_REG(lr)
  add sp, #4
  .cfi_adjust_cfa_offset -4
  bx ip

  // Force constant pool for ldr above
  .ltorg

  .cfi_endproc

3:
  .word _libpango_1_0_so_tramp_table - (2b + 8) + 628

/*
 * Copyright 2018-2025 Yury Gribov
 *
 * The MIT License (MIT)
 *
 * Use of this source code is governed by MIT license that can be
 * found in the LICENSE.txt file.
 */

  .globl pango_font_description_get_weight
  .p2align 4
  .type pango_font_description_get_weight, %function
#ifndef IMPLIB_EXPORT_SHIMS
  .hidden pango_font_description_get_weight
#endif
pango_font_description_get_weight:
  .cfi_startproc

1:
  // Load address
  // TODO: can we do this faster on newer ARMs?
  ldr ip, 3f
2:
  add ip, pc, ip
  ldr ip, [ip]

  cmp ip, #0

  // Fast path
  bxne ip

  // Slow path
  ldr ip, =158
  push {ip}
  .cfi_adjust_cfa_offset 4
  PUSH_REG(lr)
  bl _libpango_1_0_so_save_regs_and_resolve
  POP_REG(lr)
  add sp, #4
  .cfi_adjust_cfa_offset -4
  bx ip

  // Force constant pool for ldr above
  .ltorg

  .cfi_endproc

3:
  .word _libpango_1_0_so_tramp_table - (2b + 8) + 632

/*
 * Copyright 2018-2025 Yury Gribov
 *
 * The MIT License (MIT)
 *
 * Use of this source code is governed by MIT license that can be
 * found in the LICENSE.txt file.
 */

  .globl pango_font_description_hash
  .p2align 4
  .type pango_font_description_hash, %function
#ifndef IMPLIB_EXPORT_SHIMS
  .hidden pango_font_description_hash
#endif
pango_font_description_hash:
  .cfi_startproc

1:
  // Load address
  // TODO: can we do this faster on newer ARMs?
  ldr ip, 3f
2:
  add ip, pc, ip
  ldr ip, [ip]

  cmp ip, #0

  // Fast path
  bxne ip

  // Slow path
  ldr ip, =159
  push {ip}
  .cfi_adjust_cfa_offset 4
  PUSH_REG(lr)
  bl _libpango_1_0_so_save_regs_and_resolve
  POP_REG(lr)
  add sp, #4
  .cfi_adjust_cfa_offset -4
  bx ip

  // Force constant pool for ldr above
  .ltorg

  .cfi_endproc

3:
  .word _libpango_1_0_so_tramp_table - (2b + 8) + 636

/*
 * Copyright 2018-2025 Yury Gribov
 *
 * The MIT License (MIT)
 *
 * Use of this source code is governed by MIT license that can be
 * found in the LICENSE.txt file.
 */

  .globl pango_font_description_merge
  .p2align 4
  .type pango_font_description_merge, %function
#ifndef IMPLIB_EXPORT_SHIMS
  .hidden pango_font_description_merge
#endif
pango_font_description_merge:
  .cfi_startproc

1:
  // Load address
  // TODO: can we do this faster on newer ARMs?
  ldr ip, 3f
2:
  add ip, pc, ip
  ldr ip, [ip]

  cmp ip, #0

  // Fast path
  bxne ip

  // Slow path
  ldr ip, =160
  push {ip}
  .cfi_adjust_cfa_offset 4
  PUSH_REG(lr)
  bl _libpango_1_0_so_save_regs_and_resolve
  POP_REG(lr)
  add sp, #4
  .cfi_adjust_cfa_offset -4
  bx ip

  // Force constant pool for ldr above
  .ltorg

  .cfi_endproc

3:
  .word _libpango_1_0_so_tramp_table - (2b + 8) + 640

/*
 * Copyright 2018-2025 Yury Gribov
 *
 * The MIT License (MIT)
 *
 * Use of this source code is governed by MIT license that can be
 * found in the LICENSE.txt file.
 */

  .globl pango_font_description_merge_static
  .p2align 4
  .type pango_font_description_merge_static, %function
#ifndef IMPLIB_EXPORT_SHIMS
  .hidden pango_font_description_merge_static
#endif
pango_font_description_merge_static:
  .cfi_startproc

1:
  // Load address
  // TODO: can we do this faster on newer ARMs?
  ldr ip, 3f
2:
  add ip, pc, ip
  ldr ip, [ip]

  cmp ip, #0

  // Fast path
  bxne ip

  // Slow path
  ldr ip, =161
  push {ip}
  .cfi_adjust_cfa_offset 4
  PUSH_REG(lr)
  bl _libpango_1_0_so_save_regs_and_resolve
  POP_REG(lr)
  add sp, #4
  .cfi_adjust_cfa_offset -4
  bx ip

  // Force constant pool for ldr above
  .ltorg

  .cfi_endproc

3:
  .word _libpango_1_0_so_tramp_table - (2b + 8) + 644

/*
 * Copyright 2018-2025 Yury Gribov
 *
 * The MIT License (MIT)
 *
 * Use of this source code is governed by MIT license that can be
 * found in the LICENSE.txt file.
 */

  .globl pango_font_description_new
  .p2align 4
  .type pango_font_description_new, %function
#ifndef IMPLIB_EXPORT_SHIMS
  .hidden pango_font_description_new
#endif
pango_font_description_new:
  .cfi_startproc

1:
  // Load address
  // TODO: can we do this faster on newer ARMs?
  ldr ip, 3f
2:
  add ip, pc, ip
  ldr ip, [ip]

  cmp ip, #0

  // Fast path
  bxne ip

  // Slow path
  ldr ip, =162
  push {ip}
  .cfi_adjust_cfa_offset 4
  PUSH_REG(lr)
  bl _libpango_1_0_so_save_regs_and_resolve
  POP_REG(lr)
  add sp, #4
  .cfi_adjust_cfa_offset -4
  bx ip

  // Force constant pool for ldr above
  .ltorg

  .cfi_endproc

3:
  .word _libpango_1_0_so_tramp_table - (2b + 8) + 648

/*
 * Copyright 2018-2025 Yury Gribov
 *
 * The MIT License (MIT)
 *
 * Use of this source code is governed by MIT license that can be
 * found in the LICENSE.txt file.
 */

  .globl pango_font_description_set_absolute_size
  .p2align 4
  .type pango_font_description_set_absolute_size, %function
#ifndef IMPLIB_EXPORT_SHIMS
  .hidden pango_font_description_set_absolute_size
#endif
pango_font_description_set_absolute_size:
  .cfi_startproc

1:
  // Load address
  // TODO: can we do this faster on newer ARMs?
  ldr ip, 3f
2:
  add ip, pc, ip
  ldr ip, [ip]

  cmp ip, #0

  // Fast path
  bxne ip

  // Slow path
  ldr ip, =163
  push {ip}
  .cfi_adjust_cfa_offset 4
  PUSH_REG(lr)
  bl _libpango_1_0_so_save_regs_and_resolve
  POP_REG(lr)
  add sp, #4
  .cfi_adjust_cfa_offset -4
  bx ip

  // Force constant pool for ldr above
  .ltorg

  .cfi_endproc

3:
  .word _libpango_1_0_so_tramp_table - (2b + 8) + 652

/*
 * Copyright 2018-2025 Yury Gribov
 *
 * The MIT License (MIT)
 *
 * Use of this source code is governed by MIT license that can be
 * found in the LICENSE.txt file.
 */

  .globl pango_font_description_set_family
  .p2align 4
  .type pango_font_description_set_family, %function
#ifndef IMPLIB_EXPORT_SHIMS
  .hidden pango_font_description_set_family
#endif
pango_font_description_set_family:
  .cfi_startproc

1:
  // Load address
  // TODO: can we do this faster on newer ARMs?
  ldr ip, 3f
2:
  add ip, pc, ip
  ldr ip, [ip]

  cmp ip, #0

  // Fast path
  bxne ip

  // Slow path
  ldr ip, =164
  push {ip}
  .cfi_adjust_cfa_offset 4
  PUSH_REG(lr)
  bl _libpango_1_0_so_save_regs_and_resolve
  POP_REG(lr)
  add sp, #4
  .cfi_adjust_cfa_offset -4
  bx ip

  // Force constant pool for ldr above
  .ltorg

  .cfi_endproc

3:
  .word _libpango_1_0_so_tramp_table - (2b + 8) + 656

/*
 * Copyright 2018-2025 Yury Gribov
 *
 * The MIT License (MIT)
 *
 * Use of this source code is governed by MIT license that can be
 * found in the LICENSE.txt file.
 */

  .globl pango_font_description_set_family_static
  .p2align 4
  .type pango_font_description_set_family_static, %function
#ifndef IMPLIB_EXPORT_SHIMS
  .hidden pango_font_description_set_family_static
#endif
pango_font_description_set_family_static:
  .cfi_startproc

1:
  // Load address
  // TODO: can we do this faster on newer ARMs?
  ldr ip, 3f
2:
  add ip, pc, ip
  ldr ip, [ip]

  cmp ip, #0

  // Fast path
  bxne ip

  // Slow path
  ldr ip, =165
  push {ip}
  .cfi_adjust_cfa_offset 4
  PUSH_REG(lr)
  bl _libpango_1_0_so_save_regs_and_resolve
  POP_REG(lr)
  add sp, #4
  .cfi_adjust_cfa_offset -4
  bx ip

  // Force constant pool for ldr above
  .ltorg

  .cfi_endproc

3:
  .word _libpango_1_0_so_tramp_table - (2b + 8) + 660

/*
 * Copyright 2018-2025 Yury Gribov
 *
 * The MIT License (MIT)
 *
 * Use of this source code is governed by MIT license that can be
 * found in the LICENSE.txt file.
 */

  .globl pango_font_description_set_features
  .p2align 4
  .type pango_font_description_set_features, %function
#ifndef IMPLIB_EXPORT_SHIMS
  .hidden pango_font_description_set_features
#endif
pango_font_description_set_features:
  .cfi_startproc

1:
  // Load address
  // TODO: can we do this faster on newer ARMs?
  ldr ip, 3f
2:
  add ip, pc, ip
  ldr ip, [ip]

  cmp ip, #0

  // Fast path
  bxne ip

  // Slow path
  ldr ip, =166
  push {ip}
  .cfi_adjust_cfa_offset 4
  PUSH_REG(lr)
  bl _libpango_1_0_so_save_regs_and_resolve
  POP_REG(lr)
  add sp, #4
  .cfi_adjust_cfa_offset -4
  bx ip

  // Force constant pool for ldr above
  .ltorg

  .cfi_endproc

3:
  .word _libpango_1_0_so_tramp_table - (2b + 8) + 664

/*
 * Copyright 2018-2025 Yury Gribov
 *
 * The MIT License (MIT)
 *
 * Use of this source code is governed by MIT license that can be
 * found in the LICENSE.txt file.
 */

  .globl pango_font_description_set_features_static
  .p2align 4
  .type pango_font_description_set_features_static, %function
#ifndef IMPLIB_EXPORT_SHIMS
  .hidden pango_font_description_set_features_static
#endif
pango_font_description_set_features_static:
  .cfi_startproc

1:
  // Load address
  // TODO: can we do this faster on newer ARMs?
  ldr ip, 3f
2:
  add ip, pc, ip
  ldr ip, [ip]

  cmp ip, #0

  // Fast path
  bxne ip

  // Slow path
  ldr ip, =167
  push {ip}
  .cfi_adjust_cfa_offset 4
  PUSH_REG(lr)
  bl _libpango_1_0_so_save_regs_and_resolve
  POP_REG(lr)
  add sp, #4
  .cfi_adjust_cfa_offset -4
  bx ip

  // Force constant pool for ldr above
  .ltorg

  .cfi_endproc

3:
  .word _libpango_1_0_so_tramp_table - (2b + 8) + 668

/*
 * Copyright 2018-2025 Yury Gribov
 *
 * The MIT License (MIT)
 *
 * Use of this source code is governed by MIT license that can be
 * found in the LICENSE.txt file.
 */

  .globl pango_font_description_set_gravity
  .p2align 4
  .type pango_font_description_set_gravity, %function
#ifndef IMPLIB_EXPORT_SHIMS
  .hidden pango_font_description_set_gravity
#endif
pango_font_description_set_gravity:
  .cfi_startproc

1:
  // Load address
  // TODO: can we do this faster on newer ARMs?
  ldr ip, 3f
2:
  add ip, pc, ip
  ldr ip, [ip]

  cmp ip, #0

  // Fast path
  bxne ip

  // Slow path
  ldr ip, =168
  push {ip}
  .cfi_adjust_cfa_offset 4
  PUSH_REG(lr)
  bl _libpango_1_0_so_save_regs_and_resolve
  POP_REG(lr)
  add sp, #4
  .cfi_adjust_cfa_offset -4
  bx ip

  // Force constant pool for ldr above
  .ltorg

  .cfi_endproc

3:
  .word _libpango_1_0_so_tramp_table - (2b + 8) + 672

/*
 * Copyright 2018-2025 Yury Gribov
 *
 * The MIT License (MIT)
 *
 * Use of this source code is governed by MIT license that can be
 * found in the LICENSE.txt file.
 */

  .globl pango_font_description_set_size
  .p2align 4
  .type pango_font_description_set_size, %function
#ifndef IMPLIB_EXPORT_SHIMS
  .hidden pango_font_description_set_size
#endif
pango_font_description_set_size:
  .cfi_startproc

1:
  // Load address
  // TODO: can we do this faster on newer ARMs?
  ldr ip, 3f
2:
  add ip, pc, ip
  ldr ip, [ip]

  cmp ip, #0

  // Fast path
  bxne ip

  // Slow path
  ldr ip, =169
  push {ip}
  .cfi_adjust_cfa_offset 4
  PUSH_REG(lr)
  bl _libpango_1_0_so_save_regs_and_resolve
  POP_REG(lr)
  add sp, #4
  .cfi_adjust_cfa_offset -4
  bx ip

  // Force constant pool for ldr above
  .ltorg

  .cfi_endproc

3:
  .word _libpango_1_0_so_tramp_table - (2b + 8) + 676

/*
 * Copyright 2018-2025 Yury Gribov
 *
 * The MIT License (MIT)
 *
 * Use of this source code is governed by MIT license that can be
 * found in the LICENSE.txt file.
 */

  .globl pango_font_description_set_stretch
  .p2align 4
  .type pango_font_description_set_stretch, %function
#ifndef IMPLIB_EXPORT_SHIMS
  .hidden pango_font_description_set_stretch
#endif
pango_font_description_set_stretch:
  .cfi_startproc

1:
  // Load address
  // TODO: can we do this faster on newer ARMs?
  ldr ip, 3f
2:
  add ip, pc, ip
  ldr ip, [ip]

  cmp ip, #0

  // Fast path
  bxne ip

  // Slow path
  ldr ip, =170
  push {ip}
  .cfi_adjust_cfa_offset 4
  PUSH_REG(lr)
  bl _libpango_1_0_so_save_regs_and_resolve
  POP_REG(lr)
  add sp, #4
  .cfi_adjust_cfa_offset -4
  bx ip

  // Force constant pool for ldr above
  .ltorg

  .cfi_endproc

3:
  .word _libpango_1_0_so_tramp_table - (2b + 8) + 680

/*
 * Copyright 2018-2025 Yury Gribov
 *
 * The MIT License (MIT)
 *
 * Use of this source code is governed by MIT license that can be
 * found in the LICENSE.txt file.
 */

  .globl pango_font_description_set_style
  .p2align 4
  .type pango_font_description_set_style, %function
#ifndef IMPLIB_EXPORT_SHIMS
  .hidden pango_font_description_set_style
#endif
pango_font_description_set_style:
  .cfi_startproc

1:
  // Load address
  // TODO: can we do this faster on newer ARMs?
  ldr ip, 3f
2:
  add ip, pc, ip
  ldr ip, [ip]

  cmp ip, #0

  // Fast path
  bxne ip

  // Slow path
  ldr ip, =171
  push {ip}
  .cfi_adjust_cfa_offset 4
  PUSH_REG(lr)
  bl _libpango_1_0_so_save_regs_and_resolve
  POP_REG(lr)
  add sp, #4
  .cfi_adjust_cfa_offset -4
  bx ip

  // Force constant pool for ldr above
  .ltorg

  .cfi_endproc

3:
  .word _libpango_1_0_so_tramp_table - (2b + 8) + 684

/*
 * Copyright 2018-2025 Yury Gribov
 *
 * The MIT License (MIT)
 *
 * Use of this source code is governed by MIT license that can be
 * found in the LICENSE.txt file.
 */

  .globl pango_font_description_set_variant
  .p2align 4
  .type pango_font_description_set_variant, %function
#ifndef IMPLIB_EXPORT_SHIMS
  .hidden pango_font_description_set_variant
#endif
pango_font_description_set_variant:
  .cfi_startproc

1:
  // Load address
  // TODO: can we do this faster on newer ARMs?
  ldr ip, 3f
2:
  add ip, pc, ip
  ldr ip, [ip]

  cmp ip, #0

  // Fast path
  bxne ip

  // Slow path
  ldr ip, =172
  push {ip}
  .cfi_adjust_cfa_offset 4
  PUSH_REG(lr)
  bl _libpango_1_0_so_save_regs_and_resolve
  POP_REG(lr)
  add sp, #4
  .cfi_adjust_cfa_offset -4
  bx ip

  // Force constant pool for ldr above
  .ltorg

  .cfi_endproc

3:
  .word _libpango_1_0_so_tramp_table - (2b + 8) + 688

/*
 * Copyright 2018-2025 Yury Gribov
 *
 * The MIT License (MIT)
 *
 * Use of this source code is governed by MIT license that can be
 * found in the LICENSE.txt file.
 */

  .globl pango_font_description_set_variations
  .p2align 4
  .type pango_font_description_set_variations, %function
#ifndef IMPLIB_EXPORT_SHIMS
  .hidden pango_font_description_set_variations
#endif
pango_font_description_set_variations:
  .cfi_startproc

1:
  // Load address
  // TODO: can we do this faster on newer ARMs?
  ldr ip, 3f
2:
  add ip, pc, ip
  ldr ip, [ip]

  cmp ip, #0

  // Fast path
  bxne ip

  // Slow path
  ldr ip, =173
  push {ip}
  .cfi_adjust_cfa_offset 4
  PUSH_REG(lr)
  bl _libpango_1_0_so_save_regs_and_resolve
  POP_REG(lr)
  add sp, #4
  .cfi_adjust_cfa_offset -4
  bx ip

  // Force constant pool for ldr above
  .ltorg

  .cfi_endproc

3:
  .word _libpango_1_0_so_tramp_table - (2b + 8) + 692

/*
 * Copyright 2018-2025 Yury Gribov
 *
 * The MIT License (MIT)
 *
 * Use of this source code is governed by MIT license that can be
 * found in the LICENSE.txt file.
 */

  .globl pango_font_description_set_variations_static
  .p2align 4
  .type pango_font_description_set_variations_static, %function
#ifndef IMPLIB_EXPORT_SHIMS
  .hidden pango_font_description_set_variations_static
#endif
pango_font_description_set_variations_static:
  .cfi_startproc

1:
  // Load address
  // TODO: can we do this faster on newer ARMs?
  ldr ip, 3f
2:
  add ip, pc, ip
  ldr ip, [ip]

  cmp ip, #0

  // Fast path
  bxne ip

  // Slow path
  ldr ip, =174
  push {ip}
  .cfi_adjust_cfa_offset 4
  PUSH_REG(lr)
  bl _libpango_1_0_so_save_regs_and_resolve
  POP_REG(lr)
  add sp, #4
  .cfi_adjust_cfa_offset -4
  bx ip

  // Force constant pool for ldr above
  .ltorg

  .cfi_endproc

3:
  .word _libpango_1_0_so_tramp_table - (2b + 8) + 696

/*
 * Copyright 2018-2025 Yury Gribov
 *
 * The MIT License (MIT)
 *
 * Use of this source code is governed by MIT license that can be
 * found in the LICENSE.txt file.
 */

  .globl pango_font_description_set_weight
  .p2align 4
  .type pango_font_description_set_weight, %function
#ifndef IMPLIB_EXPORT_SHIMS
  .hidden pango_font_description_set_weight
#endif
pango_font_description_set_weight:
  .cfi_startproc

1:
  // Load address
  // TODO: can we do this faster on newer ARMs?
  ldr ip, 3f
2:
  add ip, pc, ip
  ldr ip, [ip]

  cmp ip, #0

  // Fast path
  bxne ip

  // Slow path
  ldr ip, =175
  push {ip}
  .cfi_adjust_cfa_offset 4
  PUSH_REG(lr)
  bl _libpango_1_0_so_save_regs_and_resolve
  POP_REG(lr)
  add sp, #4
  .cfi_adjust_cfa_offset -4
  bx ip

  // Force constant pool for ldr above
  .ltorg

  .cfi_endproc

3:
  .word _libpango_1_0_so_tramp_table - (2b + 8) + 700

/*
 * Copyright 2018-2025 Yury Gribov
 *
 * The MIT License (MIT)
 *
 * Use of this source code is governed by MIT license that can be
 * found in the LICENSE.txt file.
 */

  .globl pango_font_description_to_filename
  .p2align 4
  .type pango_font_description_to_filename, %function
#ifndef IMPLIB_EXPORT_SHIMS
  .hidden pango_font_description_to_filename
#endif
pango_font_description_to_filename:
  .cfi_startproc

1:
  // Load address
  // TODO: can we do this faster on newer ARMs?
  ldr ip, 3f
2:
  add ip, pc, ip
  ldr ip, [ip]

  cmp ip, #0

  // Fast path
  bxne ip

  // Slow path
  ldr ip, =176
  push {ip}
  .cfi_adjust_cfa_offset 4
  PUSH_REG(lr)
  bl _libpango_1_0_so_save_regs_and_resolve
  POP_REG(lr)
  add sp, #4
  .cfi_adjust_cfa_offset -4
  bx ip

  // Force constant pool for ldr above
  .ltorg

  .cfi_endproc

3:
  .word _libpango_1_0_so_tramp_table - (2b + 8) + 704

/*
 * Copyright 2018-2025 Yury Gribov
 *
 * The MIT License (MIT)
 *
 * Use of this source code is governed by MIT license that can be
 * found in the LICENSE.txt file.
 */

  .globl pango_font_description_to_string
  .p2align 4
  .type pango_font_description_to_string, %function
#ifndef IMPLIB_EXPORT_SHIMS
  .hidden pango_font_description_to_string
#endif
pango_font_description_to_string:
  .cfi_startproc

1:
  // Load address
  // TODO: can we do this faster on newer ARMs?
  ldr ip, 3f
2:
  add ip, pc, ip
  ldr ip, [ip]

  cmp ip, #0

  // Fast path
  bxne ip

  // Slow path
  ldr ip, =177
  push {ip}
  .cfi_adjust_cfa_offset 4
  PUSH_REG(lr)
  bl _libpango_1_0_so_save_regs_and_resolve
  POP_REG(lr)
  add sp, #4
  .cfi_adjust_cfa_offset -4
  bx ip

  // Force constant pool for ldr above
  .ltorg

  .cfi_endproc

3:
  .word _libpango_1_0_so_tramp_table - (2b + 8) + 708

/*
 * Copyright 2018-2025 Yury Gribov
 *
 * The MIT License (MIT)
 *
 * Use of this source code is governed by MIT license that can be
 * found in the LICENSE.txt file.
 */

  .globl pango_font_description_unset_fields
  .p2align 4
  .type pango_font_description_unset_fields, %function
#ifndef IMPLIB_EXPORT_SHIMS
  .hidden pango_font_description_unset_fields
#endif
pango_font_description_unset_fields:
  .cfi_startproc

1:
  // Load address
  // TODO: can we do this faster on newer ARMs?
  ldr ip, 3f
2:
  add ip, pc, ip
  ldr ip, [ip]

  cmp ip, #0

  // Fast path
  bxne ip

  // Slow path
  ldr ip, =178
  push {ip}
  .cfi_adjust_cfa_offset 4
  PUSH_REG(lr)
  bl _libpango_1_0_so_save_regs_and_resolve
  POP_REG(lr)
  add sp, #4
  .cfi_adjust_cfa_offset -4
  bx ip

  // Force constant pool for ldr above
  .ltorg

  .cfi_endproc

3:
  .word _libpango_1_0_so_tramp_table - (2b + 8) + 712

/*
 * Copyright 2018-2025 Yury Gribov
 *
 * The MIT License (MIT)
 *
 * Use of this source code is governed by MIT license that can be
 * found in the LICENSE.txt file.
 */

  .globl pango_font_descriptions_free
  .p2align 4
  .type pango_font_descriptions_free, %function
#ifndef IMPLIB_EXPORT_SHIMS
  .hidden pango_font_descriptions_free
#endif
pango_font_descriptions_free:
  .cfi_startproc

1:
  // Load address
  // TODO: can we do this faster on newer ARMs?
  ldr ip, 3f
2:
  add ip, pc, ip
  ldr ip, [ip]

  cmp ip, #0

  // Fast path
  bxne ip

  // Slow path
  ldr ip, =179
  push {ip}
  .cfi_adjust_cfa_offset 4
  PUSH_REG(lr)
  bl _libpango_1_0_so_save_regs_and_resolve
  POP_REG(lr)
  add sp, #4
  .cfi_adjust_cfa_offset -4
  bx ip

  // Force constant pool for ldr above
  .ltorg

  .cfi_endproc

3:
  .word _libpango_1_0_so_tramp_table - (2b + 8) + 716

/*
 * Copyright 2018-2025 Yury Gribov
 *
 * The MIT License (MIT)
 *
 * Use of this source code is governed by MIT license that can be
 * found in the LICENSE.txt file.
 */

  .globl pango_font_deserialize
  .p2align 4
  .type pango_font_deserialize, %function
#ifndef IMPLIB_EXPORT_SHIMS
  .hidden pango_font_deserialize
#endif
pango_font_deserialize:
  .cfi_startproc

1:
  // Load address
  // TODO: can we do this faster on newer ARMs?
  ldr ip, 3f
2:
  add ip, pc, ip
  ldr ip, [ip]

  cmp ip, #0

  // Fast path
  bxne ip

  // Slow path
  ldr ip, =180
  push {ip}
  .cfi_adjust_cfa_offset 4
  PUSH_REG(lr)
  bl _libpango_1_0_so_save_regs_and_resolve
  POP_REG(lr)
  add sp, #4
  .cfi_adjust_cfa_offset -4
  bx ip

  // Force constant pool for ldr above
  .ltorg

  .cfi_endproc

3:
  .word _libpango_1_0_so_tramp_table - (2b + 8) + 720

/*
 * Copyright 2018-2025 Yury Gribov
 *
 * The MIT License (MIT)
 *
 * Use of this source code is governed by MIT license that can be
 * found in the LICENSE.txt file.
 */

  .globl pango_font_face_describe
  .p2align 4
  .type pango_font_face_describe, %function
#ifndef IMPLIB_EXPORT_SHIMS
  .hidden pango_font_face_describe
#endif
pango_font_face_describe:
  .cfi_startproc

1:
  // Load address
  // TODO: can we do this faster on newer ARMs?
  ldr ip, 3f
2:
  add ip, pc, ip
  ldr ip, [ip]

  cmp ip, #0

  // Fast path
  bxne ip

  // Slow path
  ldr ip, =181
  push {ip}
  .cfi_adjust_cfa_offset 4
  PUSH_REG(lr)
  bl _libpango_1_0_so_save_regs_and_resolve
  POP_REG(lr)
  add sp, #4
  .cfi_adjust_cfa_offset -4
  bx ip

  // Force constant pool for ldr above
  .ltorg

  .cfi_endproc

3:
  .word _libpango_1_0_so_tramp_table - (2b + 8) + 724

/*
 * Copyright 2018-2025 Yury Gribov
 *
 * The MIT License (MIT)
 *
 * Use of this source code is governed by MIT license that can be
 * found in the LICENSE.txt file.
 */

  .globl pango_font_face_get_face_name
  .p2align 4
  .type pango_font_face_get_face_name, %function
#ifndef IMPLIB_EXPORT_SHIMS
  .hidden pango_font_face_get_face_name
#endif
pango_font_face_get_face_name:
  .cfi_startproc

1:
  // Load address
  // TODO: can we do this faster on newer ARMs?
  ldr ip, 3f
2:
  add ip, pc, ip
  ldr ip, [ip]

  cmp ip, #0

  // Fast path
  bxne ip

  // Slow path
  ldr ip, =182
  push {ip}
  .cfi_adjust_cfa_offset 4
  PUSH_REG(lr)
  bl _libpango_1_0_so_save_regs_and_resolve
  POP_REG(lr)
  add sp, #4
  .cfi_adjust_cfa_offset -4
  bx ip

  // Force constant pool for ldr above
  .ltorg

  .cfi_endproc

3:
  .word _libpango_1_0_so_tramp_table - (2b + 8) + 728

/*
 * Copyright 2018-2025 Yury Gribov
 *
 * The MIT License (MIT)
 *
 * Use of this source code is governed by MIT license that can be
 * found in the LICENSE.txt file.
 */

  .globl pango_font_face_get_family
  .p2align 4
  .type pango_font_face_get_family, %function
#ifndef IMPLIB_EXPORT_SHIMS
  .hidden pango_font_face_get_family
#endif
pango_font_face_get_family:
  .cfi_startproc

1:
  // Load address
  // TODO: can we do this faster on newer ARMs?
  ldr ip, 3f
2:
  add ip, pc, ip
  ldr ip, [ip]

  cmp ip, #0

  // Fast path
  bxne ip

  // Slow path
  ldr ip, =183
  push {ip}
  .cfi_adjust_cfa_offset 4
  PUSH_REG(lr)
  bl _libpango_1_0_so_save_regs_and_resolve
  POP_REG(lr)
  add sp, #4
  .cfi_adjust_cfa_offset -4
  bx ip

  // Force constant pool for ldr above
  .ltorg

  .cfi_endproc

3:
  .word _libpango_1_0_so_tramp_table - (2b + 8) + 732

/*
 * Copyright 2018-2025 Yury Gribov
 *
 * The MIT License (MIT)
 *
 * Use of this source code is governed by MIT license that can be
 * found in the LICENSE.txt file.
 */

  .globl pango_font_face_get_type
  .p2align 4
  .type pango_font_face_get_type, %function
#ifndef IMPLIB_EXPORT_SHIMS
  .hidden pango_font_face_get_type
#endif
pango_font_face_get_type:
  .cfi_startproc

1:
  // Load address
  // TODO: can we do this faster on newer ARMs?
  ldr ip, 3f
2:
  add ip, pc, ip
  ldr ip, [ip]

  cmp ip, #0

  // Fast path
  bxne ip

  // Slow path
  ldr ip, =184
  push {ip}
  .cfi_adjust_cfa_offset 4
  PUSH_REG(lr)
  bl _libpango_1_0_so_save_regs_and_resolve
  POP_REG(lr)
  add sp, #4
  .cfi_adjust_cfa_offset -4
  bx ip

  // Force constant pool for ldr above
  .ltorg

  .cfi_endproc

3:
  .word _libpango_1_0_so_tramp_table - (2b + 8) + 736

/*
 * Copyright 2018-2025 Yury Gribov
 *
 * The MIT License (MIT)
 *
 * Use of this source code is governed by MIT license that can be
 * found in the LICENSE.txt file.
 */

  .globl pango_font_face_is_synthesized
  .p2align 4
  .type pango_font_face_is_synthesized, %function
#ifndef IMPLIB_EXPORT_SHIMS
  .hidden pango_font_face_is_synthesized
#endif
pango_font_face_is_synthesized:
  .cfi_startproc

1:
  // Load address
  // TODO: can we do this faster on newer ARMs?
  ldr ip, 3f
2:
  add ip, pc, ip
  ldr ip, [ip]

  cmp ip, #0

  // Fast path
  bxne ip

  // Slow path
  ldr ip, =185
  push {ip}
  .cfi_adjust_cfa_offset 4
  PUSH_REG(lr)
  bl _libpango_1_0_so_save_regs_and_resolve
  POP_REG(lr)
  add sp, #4
  .cfi_adjust_cfa_offset -4
  bx ip

  // Force constant pool for ldr above
  .ltorg

  .cfi_endproc

3:
  .word _libpango_1_0_so_tramp_table - (2b + 8) + 740

/*
 * Copyright 2018-2025 Yury Gribov
 *
 * The MIT License (MIT)
 *
 * Use of this source code is governed by MIT license that can be
 * found in the LICENSE.txt file.
 */

  .globl pango_font_face_list_sizes
  .p2align 4
  .type pango_font_face_list_sizes, %function
#ifndef IMPLIB_EXPORT_SHIMS
  .hidden pango_font_face_list_sizes
#endif
pango_font_face_list_sizes:
  .cfi_startproc

1:
  // Load address
  // TODO: can we do this faster on newer ARMs?
  ldr ip, 3f
2:
  add ip, pc, ip
  ldr ip, [ip]

  cmp ip, #0

  // Fast path
  bxne ip

  // Slow path
  ldr ip, =186
  push {ip}
  .cfi_adjust_cfa_offset 4
  PUSH_REG(lr)
  bl _libpango_1_0_so_save_regs_and_resolve
  POP_REG(lr)
  add sp, #4
  .cfi_adjust_cfa_offset -4
  bx ip

  // Force constant pool for ldr above
  .ltorg

  .cfi_endproc

3:
  .word _libpango_1_0_so_tramp_table - (2b + 8) + 744

/*
 * Copyright 2018-2025 Yury Gribov
 *
 * The MIT License (MIT)
 *
 * Use of this source code is governed by MIT license that can be
 * found in the LICENSE.txt file.
 */

  .globl pango_font_family_get_face
  .p2align 4
  .type pango_font_family_get_face, %function
#ifndef IMPLIB_EXPORT_SHIMS
  .hidden pango_font_family_get_face
#endif
pango_font_family_get_face:
  .cfi_startproc

1:
  // Load address
  // TODO: can we do this faster on newer ARMs?
  ldr ip, 3f
2:
  add ip, pc, ip
  ldr ip, [ip]

  cmp ip, #0

  // Fast path
  bxne ip

  // Slow path
  ldr ip, =187
  push {ip}
  .cfi_adjust_cfa_offset 4
  PUSH_REG(lr)
  bl _libpango_1_0_so_save_regs_and_resolve
  POP_REG(lr)
  add sp, #4
  .cfi_adjust_cfa_offset -4
  bx ip

  // Force constant pool for ldr above
  .ltorg

  .cfi_endproc

3:
  .word _libpango_1_0_so_tramp_table - (2b + 8) + 748

/*
 * Copyright 2018-2025 Yury Gribov
 *
 * The MIT License (MIT)
 *
 * Use of this source code is governed by MIT license that can be
 * found in the LICENSE.txt file.
 */

  .globl pango_font_family_get_name
  .p2align 4
  .type pango_font_family_get_name, %function
#ifndef IMPLIB_EXPORT_SHIMS
  .hidden pango_font_family_get_name
#endif
pango_font_family_get_name:
  .cfi_startproc

1:
  // Load address
  // TODO: can we do this faster on newer ARMs?
  ldr ip, 3f
2:
  add ip, pc, ip
  ldr ip, [ip]

  cmp ip, #0

  // Fast path
  bxne ip

  // Slow path
  ldr ip, =188
  push {ip}
  .cfi_adjust_cfa_offset 4
  PUSH_REG(lr)
  bl _libpango_1_0_so_save_regs_and_resolve
  POP_REG(lr)
  add sp, #4
  .cfi_adjust_cfa_offset -4
  bx ip

  // Force constant pool for ldr above
  .ltorg

  .cfi_endproc

3:
  .word _libpango_1_0_so_tramp_table - (2b + 8) + 752

/*
 * Copyright 2018-2025 Yury Gribov
 *
 * The MIT License (MIT)
 *
 * Use of this source code is governed by MIT license that can be
 * found in the LICENSE.txt file.
 */

  .globl pango_font_family_get_type
  .p2align 4
  .type pango_font_family_get_type, %function
#ifndef IMPLIB_EXPORT_SHIMS
  .hidden pango_font_family_get_type
#endif
pango_font_family_get_type:
  .cfi_startproc

1:
  // Load address
  // TODO: can we do this faster on newer ARMs?
  ldr ip, 3f
2:
  add ip, pc, ip
  ldr ip, [ip]

  cmp ip, #0

  // Fast path
  bxne ip

  // Slow path
  ldr ip, =189
  push {ip}
  .cfi_adjust_cfa_offset 4
  PUSH_REG(lr)
  bl _libpango_1_0_so_save_regs_and_resolve
  POP_REG(lr)
  add sp, #4
  .cfi_adjust_cfa_offset -4
  bx ip

  // Force constant pool for ldr above
  .ltorg

  .cfi_endproc

3:
  .word _libpango_1_0_so_tramp_table - (2b + 8) + 756

/*
 * Copyright 2018-2025 Yury Gribov
 *
 * The MIT License (MIT)
 *
 * Use of this source code is governed by MIT license that can be
 * found in the LICENSE.txt file.
 */

  .globl pango_font_family_is_monospace
  .p2align 4
  .type pango_font_family_is_monospace, %function
#ifndef IMPLIB_EXPORT_SHIMS
  .hidden pango_font_family_is_monospace
#endif
pango_font_family_is_monospace:
  .cfi_startproc

1:
  // Load address
  // TODO: can we do this faster on newer ARMs?
  ldr ip, 3f
2:
  add ip, pc, ip
  ldr ip, [ip]

  cmp ip, #0

  // Fast path
  bxne ip

  // Slow path
  ldr ip, =190
  push {ip}
  .cfi_adjust_cfa_offset 4
  PUSH_REG(lr)
  bl _libpango_1_0_so_save_regs_and_resolve
  POP_REG(lr)
  add sp, #4
  .cfi_adjust_cfa_offset -4
  bx ip

  // Force constant pool for ldr above
  .ltorg

  .cfi_endproc

3:
  .word _libpango_1_0_so_tramp_table - (2b + 8) + 760

/*
 * Copyright 2018-2025 Yury Gribov
 *
 * The MIT License (MIT)
 *
 * Use of this source code is governed by MIT license that can be
 * found in the LICENSE.txt file.
 */

  .globl pango_font_family_is_variable
  .p2align 4
  .type pango_font_family_is_variable, %function
#ifndef IMPLIB_EXPORT_SHIMS
  .hidden pango_font_family_is_variable
#endif
pango_font_family_is_variable:
  .cfi_startproc

1:
  // Load address
  // TODO: can we do this faster on newer ARMs?
  ldr ip, 3f
2:
  add ip, pc, ip
  ldr ip, [ip]

  cmp ip, #0

  // Fast path
  bxne ip

  // Slow path
  ldr ip, =191
  push {ip}
  .cfi_adjust_cfa_offset 4
  PUSH_REG(lr)
  bl _libpango_1_0_so_save_regs_and_resolve
  POP_REG(lr)
  add sp, #4
  .cfi_adjust_cfa_offset -4
  bx ip

  // Force constant pool for ldr above
  .ltorg

  .cfi_endproc

3:
  .word _libpango_1_0_so_tramp_table - (2b + 8) + 764

/*
 * Copyright 2018-2025 Yury Gribov
 *
 * The MIT License (MIT)
 *
 * Use of this source code is governed by MIT license that can be
 * found in the LICENSE.txt file.
 */

  .globl pango_font_family_list_faces
  .p2align 4
  .type pango_font_family_list_faces, %function
#ifndef IMPLIB_EXPORT_SHIMS
  .hidden pango_font_family_list_faces
#endif
pango_font_family_list_faces:
  .cfi_startproc

1:
  // Load address
  // TODO: can we do this faster on newer ARMs?
  ldr ip, 3f
2:
  add ip, pc, ip
  ldr ip, [ip]

  cmp ip, #0

  // Fast path
  bxne ip

  // Slow path
  ldr ip, =192
  push {ip}
  .cfi_adjust_cfa_offset 4
  PUSH_REG(lr)
  bl _libpango_1_0_so_save_regs_and_resolve
  POP_REG(lr)
  add sp, #4
  .cfi_adjust_cfa_offset -4
  bx ip

  // Force constant pool for ldr above
  .ltorg

  .cfi_endproc

3:
  .word _libpango_1_0_so_tramp_table - (2b + 8) + 768

/*
 * Copyright 2018-2025 Yury Gribov
 *
 * The MIT License (MIT)
 *
 * Use of this source code is governed by MIT license that can be
 * found in the LICENSE.txt file.
 */

  .globl pango_font_find_shaper
  .p2align 4
  .type pango_font_find_shaper, %function
#ifndef IMPLIB_EXPORT_SHIMS
  .hidden pango_font_find_shaper
#endif
pango_font_find_shaper:
  .cfi_startproc

1:
  // Load address
  // TODO: can we do this faster on newer ARMs?
  ldr ip, 3f
2:
  add ip, pc, ip
  ldr ip, [ip]

  cmp ip, #0

  // Fast path
  bxne ip

  // Slow path
  ldr ip, =193
  push {ip}
  .cfi_adjust_cfa_offset 4
  PUSH_REG(lr)
  bl _libpango_1_0_so_save_regs_and_resolve
  POP_REG(lr)
  add sp, #4
  .cfi_adjust_cfa_offset -4
  bx ip

  // Force constant pool for ldr above
  .ltorg

  .cfi_endproc

3:
  .word _libpango_1_0_so_tramp_table - (2b + 8) + 772

/*
 * Copyright 2018-2025 Yury Gribov
 *
 * The MIT License (MIT)
 *
 * Use of this source code is governed by MIT license that can be
 * found in the LICENSE.txt file.
 */

  .globl pango_font_get_coverage
  .p2align 4
  .type pango_font_get_coverage, %function
#ifndef IMPLIB_EXPORT_SHIMS
  .hidden pango_font_get_coverage
#endif
pango_font_get_coverage:
  .cfi_startproc

1:
  // Load address
  // TODO: can we do this faster on newer ARMs?
  ldr ip, 3f
2:
  add ip, pc, ip
  ldr ip, [ip]

  cmp ip, #0

  // Fast path
  bxne ip

  // Slow path
  ldr ip, =194
  push {ip}
  .cfi_adjust_cfa_offset 4
  PUSH_REG(lr)
  bl _libpango_1_0_so_save_regs_and_resolve
  POP_REG(lr)
  add sp, #4
  .cfi_adjust_cfa_offset -4
  bx ip

  // Force constant pool for ldr above
  .ltorg

  .cfi_endproc

3:
  .word _libpango_1_0_so_tramp_table - (2b + 8) + 776

/*
 * Copyright 2018-2025 Yury Gribov
 *
 * The MIT License (MIT)
 *
 * Use of this source code is governed by MIT license that can be
 * found in the LICENSE.txt file.
 */

  .globl pango_font_get_face
  .p2align 4
  .type pango_font_get_face, %function
#ifndef IMPLIB_EXPORT_SHIMS
  .hidden pango_font_get_face
#endif
pango_font_get_face:
  .cfi_startproc

1:
  // Load address
  // TODO: can we do this faster on newer ARMs?
  ldr ip, 3f
2:
  add ip, pc, ip
  ldr ip, [ip]

  cmp ip, #0

  // Fast path
  bxne ip

  // Slow path
  ldr ip, =195
  push {ip}
  .cfi_adjust_cfa_offset 4
  PUSH_REG(lr)
  bl _libpango_1_0_so_save_regs_and_resolve
  POP_REG(lr)
  add sp, #4
  .cfi_adjust_cfa_offset -4
  bx ip

  // Force constant pool for ldr above
  .ltorg

  .cfi_endproc

3:
  .word _libpango_1_0_so_tramp_table - (2b + 8) + 780

/*
 * Copyright 2018-2025 Yury Gribov
 *
 * The MIT License (MIT)
 *
 * Use of this source code is governed by MIT license that can be
 * found in the LICENSE.txt file.
 */

  .globl pango_font_get_features
  .p2align 4
  .type pango_font_get_features, %function
#ifndef IMPLIB_EXPORT_SHIMS
  .hidden pango_font_get_features
#endif
pango_font_get_features:
  .cfi_startproc

1:
  // Load address
  // TODO: can we do this faster on newer ARMs?
  ldr ip, 3f
2:
  add ip, pc, ip
  ldr ip, [ip]

  cmp ip, #0

  // Fast path
  bxne ip

  // Slow path
  ldr ip, =196
  push {ip}
  .cfi_adjust_cfa_offset 4
  PUSH_REG(lr)
  bl _libpango_1_0_so_save_regs_and_resolve
  POP_REG(lr)
  add sp, #4
  .cfi_adjust_cfa_offset -4
  bx ip

  // Force constant pool for ldr above
  .ltorg

  .cfi_endproc

3:
  .word _libpango_1_0_so_tramp_table - (2b + 8) + 784

/*
 * Copyright 2018-2025 Yury Gribov
 *
 * The MIT License (MIT)
 *
 * Use of this source code is governed by MIT license that can be
 * found in the LICENSE.txt file.
 */

  .globl pango_font_get_font_map
  .p2align 4
  .type pango_font_get_font_map, %function
#ifndef IMPLIB_EXPORT_SHIMS
  .hidden pango_font_get_font_map
#endif
pango_font_get_font_map:
  .cfi_startproc

1:
  // Load address
  // TODO: can we do this faster on newer ARMs?
  ldr ip, 3f
2:
  add ip, pc, ip
  ldr ip, [ip]

  cmp ip, #0

  // Fast path
  bxne ip

  // Slow path
  ldr ip, =197
  push {ip}
  .cfi_adjust_cfa_offset 4
  PUSH_REG(lr)
  bl _libpango_1_0_so_save_regs_and_resolve
  POP_REG(lr)
  add sp, #4
  .cfi_adjust_cfa_offset -4
  bx ip

  // Force constant pool for ldr above
  .ltorg

  .cfi_endproc

3:
  .word _libpango_1_0_so_tramp_table - (2b + 8) + 788

/*
 * Copyright 2018-2025 Yury Gribov
 *
 * The MIT License (MIT)
 *
 * Use of this source code is governed by MIT license that can be
 * found in the LICENSE.txt file.
 */

  .globl pango_font_get_glyph_extents
  .p2align 4
  .type pango_font_get_glyph_extents, %function
#ifndef IMPLIB_EXPORT_SHIMS
  .hidden pango_font_get_glyph_extents
#endif
pango_font_get_glyph_extents:
  .cfi_startproc

1:
  // Load address
  // TODO: can we do this faster on newer ARMs?
  ldr ip, 3f
2:
  add ip, pc, ip
  ldr ip, [ip]

  cmp ip, #0

  // Fast path
  bxne ip

  // Slow path
  ldr ip, =198
  push {ip}
  .cfi_adjust_cfa_offset 4
  PUSH_REG(lr)
  bl _libpango_1_0_so_save_regs_and_resolve
  POP_REG(lr)
  add sp, #4
  .cfi_adjust_cfa_offset -4
  bx ip

  // Force constant pool for ldr above
  .ltorg

  .cfi_endproc

3:
  .word _libpango_1_0_so_tramp_table - (2b + 8) + 792

/*
 * Copyright 2018-2025 Yury Gribov
 *
 * The MIT License (MIT)
 *
 * Use of this source code is governed by MIT license that can be
 * found in the LICENSE.txt file.
 */

  .globl pango_font_get_hb_font
  .p2align 4
  .type pango_font_get_hb_font, %function
#ifndef IMPLIB_EXPORT_SHIMS
  .hidden pango_font_get_hb_font
#endif
pango_font_get_hb_font:
  .cfi_startproc

1:
  // Load address
  // TODO: can we do this faster on newer ARMs?
  ldr ip, 3f
2:
  add ip, pc, ip
  ldr ip, [ip]

  cmp ip, #0

  // Fast path
  bxne ip

  // Slow path
  ldr ip, =199
  push {ip}
  .cfi_adjust_cfa_offset 4
  PUSH_REG(lr)
  bl _libpango_1_0_so_save_regs_and_resolve
  POP_REG(lr)
  add sp, #4
  .cfi_adjust_cfa_offset -4
  bx ip

  // Force constant pool for ldr above
  .ltorg

  .cfi_endproc

3:
  .word _libpango_1_0_so_tramp_table - (2b + 8) + 796

/*
 * Copyright 2018-2025 Yury Gribov
 *
 * The MIT License (MIT)
 *
 * Use of this source code is governed by MIT license that can be
 * found in the LICENSE.txt file.
 */

  .globl pango_font_get_languages
  .p2align 4
  .type pango_font_get_languages, %function
#ifndef IMPLIB_EXPORT_SHIMS
  .hidden pango_font_get_languages
#endif
pango_font_get_languages:
  .cfi_startproc

1:
  // Load address
  // TODO: can we do this faster on newer ARMs?
  ldr ip, 3f
2:
  add ip, pc, ip
  ldr ip, [ip]

  cmp ip, #0

  // Fast path
  bxne ip

  // Slow path
  ldr ip, =200
  push {ip}
  .cfi_adjust_cfa_offset 4
  PUSH_REG(lr)
  bl _libpango_1_0_so_save_regs_and_resolve
  POP_REG(lr)
  add sp, #4
  .cfi_adjust_cfa_offset -4
  bx ip

  // Force constant pool for ldr above
  .ltorg

  .cfi_endproc

3:
  .word _libpango_1_0_so_tramp_table - (2b + 8) + 800

/*
 * Copyright 2018-2025 Yury Gribov
 *
 * The MIT License (MIT)
 *
 * Use of this source code is governed by MIT license that can be
 * found in the LICENSE.txt file.
 */

  .globl pango_font_get_metrics
  .p2align 4
  .type pango_font_get_metrics, %function
#ifndef IMPLIB_EXPORT_SHIMS
  .hidden pango_font_get_metrics
#endif
pango_font_get_metrics:
  .cfi_startproc

1:
  // Load address
  // TODO: can we do this faster on newer ARMs?
  ldr ip, 3f
2:
  add ip, pc, ip
  ldr ip, [ip]

  cmp ip, #0

  // Fast path
  bxne ip

  // Slow path
  ldr ip, =201
  push {ip}
  .cfi_adjust_cfa_offset 4
  PUSH_REG(lr)
  bl _libpango_1_0_so_save_regs_and_resolve
  POP_REG(lr)
  add sp, #4
  .cfi_adjust_cfa_offset -4
  bx ip

  // Force constant pool for ldr above
  .ltorg

  .cfi_endproc

3:
  .word _libpango_1_0_so_tramp_table - (2b + 8) + 804

/*
 * Copyright 2018-2025 Yury Gribov
 *
 * The MIT License (MIT)
 *
 * Use of this source code is governed by MIT license that can be
 * found in the LICENSE.txt file.
 */

  .globl pango_font_get_type
  .p2align 4
  .type pango_font_get_type, %function
#ifndef IMPLIB_EXPORT_SHIMS
  .hidden pango_font_get_type
#endif
pango_font_get_type:
  .cfi_startproc

1:
  // Load address
  // TODO: can we do this faster on newer ARMs?
  ldr ip, 3f
2:
  add ip, pc, ip
  ldr ip, [ip]

  cmp ip, #0

  // Fast path
  bxne ip

  // Slow path
  ldr ip, =202
  push {ip}
  .cfi_adjust_cfa_offset 4
  PUSH_REG(lr)
  bl _libpango_1_0_so_save_regs_and_resolve
  POP_REG(lr)
  add sp, #4
  .cfi_adjust_cfa_offset -4
  bx ip

  // Force constant pool for ldr above
  .ltorg

  .cfi_endproc

3:
  .word _libpango_1_0_so_tramp_table - (2b + 8) + 808

/*
 * Copyright 2018-2025 Yury Gribov
 *
 * The MIT License (MIT)
 *
 * Use of this source code is governed by MIT license that can be
 * found in the LICENSE.txt file.
 */

  .globl pango_font_has_char
  .p2align 4
  .type pango_font_has_char, %function
#ifndef IMPLIB_EXPORT_SHIMS
  .hidden pango_font_has_char
#endif
pango_font_has_char:
  .cfi_startproc

1:
  // Load address
  // TODO: can we do this faster on newer ARMs?
  ldr ip, 3f
2:
  add ip, pc, ip
  ldr ip, [ip]

  cmp ip, #0

  // Fast path
  bxne ip

  // Slow path
  ldr ip, =203
  push {ip}
  .cfi_adjust_cfa_offset 4
  PUSH_REG(lr)
  bl _libpango_1_0_so_save_regs_and_resolve
  POP_REG(lr)
  add sp, #4
  .cfi_adjust_cfa_offset -4
  bx ip

  // Force constant pool for ldr above
  .ltorg

  .cfi_endproc

3:
  .word _libpango_1_0_so_tramp_table - (2b + 8) + 812

/*
 * Copyright 2018-2025 Yury Gribov
 *
 * The MIT License (MIT)
 *
 * Use of this source code is governed by MIT license that can be
 * found in the LICENSE.txt file.
 */

  .globl pango_font_map_add_font_file
  .p2align 4
  .type pango_font_map_add_font_file, %function
#ifndef IMPLIB_EXPORT_SHIMS
  .hidden pango_font_map_add_font_file
#endif
pango_font_map_add_font_file:
  .cfi_startproc

1:
  // Load address
  // TODO: can we do this faster on newer ARMs?
  ldr ip, 3f
2:
  add ip, pc, ip
  ldr ip, [ip]

  cmp ip, #0

  // Fast path
  bxne ip

  // Slow path
  ldr ip, =204
  push {ip}
  .cfi_adjust_cfa_offset 4
  PUSH_REG(lr)
  bl _libpango_1_0_so_save_regs_and_resolve
  POP_REG(lr)
  add sp, #4
  .cfi_adjust_cfa_offset -4
  bx ip

  // Force constant pool for ldr above
  .ltorg

  .cfi_endproc

3:
  .word _libpango_1_0_so_tramp_table - (2b + 8) + 816

/*
 * Copyright 2018-2025 Yury Gribov
 *
 * The MIT License (MIT)
 *
 * Use of this source code is governed by MIT license that can be
 * found in the LICENSE.txt file.
 */

  .globl pango_font_map_changed
  .p2align 4
  .type pango_font_map_changed, %function
#ifndef IMPLIB_EXPORT_SHIMS
  .hidden pango_font_map_changed
#endif
pango_font_map_changed:
  .cfi_startproc

1:
  // Load address
  // TODO: can we do this faster on newer ARMs?
  ldr ip, 3f
2:
  add ip, pc, ip
  ldr ip, [ip]

  cmp ip, #0

  // Fast path
  bxne ip

  // Slow path
  ldr ip, =205
  push {ip}
  .cfi_adjust_cfa_offset 4
  PUSH_REG(lr)
  bl _libpango_1_0_so_save_regs_and_resolve
  POP_REG(lr)
  add sp, #4
  .cfi_adjust_cfa_offset -4
  bx ip

  // Force constant pool for ldr above
  .ltorg

  .cfi_endproc

3:
  .word _libpango_1_0_so_tramp_table - (2b + 8) + 820

/*
 * Copyright 2018-2025 Yury Gribov
 *
 * The MIT License (MIT)
 *
 * Use of this source code is governed by MIT license that can be
 * found in the LICENSE.txt file.
 */

  .globl pango_font_map_create_context
  .p2align 4
  .type pango_font_map_create_context, %function
#ifndef IMPLIB_EXPORT_SHIMS
  .hidden pango_font_map_create_context
#endif
pango_font_map_create_context:
  .cfi_startproc

1:
  // Load address
  // TODO: can we do this faster on newer ARMs?
  ldr ip, 3f
2:
  add ip, pc, ip
  ldr ip, [ip]

  cmp ip, #0

  // Fast path
  bxne ip

  // Slow path
  ldr ip, =206
  push {ip}
  .cfi_adjust_cfa_offset 4
  PUSH_REG(lr)
  bl _libpango_1_0_so_save_regs_and_resolve
  POP_REG(lr)
  add sp, #4
  .cfi_adjust_cfa_offset -4
  bx ip

  // Force constant pool for ldr above
  .ltorg

  .cfi_endproc

3:
  .word _libpango_1_0_so_tramp_table - (2b + 8) + 824

/*
 * Copyright 2018-2025 Yury Gribov
 *
 * The MIT License (MIT)
 *
 * Use of this source code is governed by MIT license that can be
 * found in the LICENSE.txt file.
 */

  .globl pango_font_map_get_family
  .p2align 4
  .type pango_font_map_get_family, %function
#ifndef IMPLIB_EXPORT_SHIMS
  .hidden pango_font_map_get_family
#endif
pango_font_map_get_family:
  .cfi_startproc

1:
  // Load address
  // TODO: can we do this faster on newer ARMs?
  ldr ip, 3f
2:
  add ip, pc, ip
  ldr ip, [ip]

  cmp ip, #0

  // Fast path
  bxne ip

  // Slow path
  ldr ip, =207
  push {ip}
  .cfi_adjust_cfa_offset 4
  PUSH_REG(lr)
  bl _libpango_1_0_so_save_regs_and_resolve
  POP_REG(lr)
  add sp, #4
  .cfi_adjust_cfa_offset -4
  bx ip

  // Force constant pool for ldr above
  .ltorg

  .cfi_endproc

3:
  .word _libpango_1_0_so_tramp_table - (2b + 8) + 828

/*
 * Copyright 2018-2025 Yury Gribov
 *
 * The MIT License (MIT)
 *
 * Use of this source code is governed by MIT license that can be
 * found in the LICENSE.txt file.
 */

  .globl pango_font_map_get_serial
  .p2align 4
  .type pango_font_map_get_serial, %function
#ifndef IMPLIB_EXPORT_SHIMS
  .hidden pango_font_map_get_serial
#endif
pango_font_map_get_serial:
  .cfi_startproc

1:
  // Load address
  // TODO: can we do this faster on newer ARMs?
  ldr ip, 3f
2:
  add ip, pc, ip
  ldr ip, [ip]

  cmp ip, #0

  // Fast path
  bxne ip

  // Slow path
  ldr ip, =208
  push {ip}
  .cfi_adjust_cfa_offset 4
  PUSH_REG(lr)
  bl _libpango_1_0_so_save_regs_and_resolve
  POP_REG(lr)
  add sp, #4
  .cfi_adjust_cfa_offset -4
  bx ip

  // Force constant pool for ldr above
  .ltorg

  .cfi_endproc

3:
  .word _libpango_1_0_so_tramp_table - (2b + 8) + 832

/*
 * Copyright 2018-2025 Yury Gribov
 *
 * The MIT License (MIT)
 *
 * Use of this source code is governed by MIT license that can be
 * found in the LICENSE.txt file.
 */

  .globl pango_font_map_get_shape_engine_type
  .p2align 4
  .type pango_font_map_get_shape_engine_type, %function
#ifndef IMPLIB_EXPORT_SHIMS
  .hidden pango_font_map_get_shape_engine_type
#endif
pango_font_map_get_shape_engine_type:
  .cfi_startproc

1:
  // Load address
  // TODO: can we do this faster on newer ARMs?
  ldr ip, 3f
2:
  add ip, pc, ip
  ldr ip, [ip]

  cmp ip, #0

  // Fast path
  bxne ip

  // Slow path
  ldr ip, =209
  push {ip}
  .cfi_adjust_cfa_offset 4
  PUSH_REG(lr)
  bl _libpango_1_0_so_save_regs_and_resolve
  POP_REG(lr)
  add sp, #4
  .cfi_adjust_cfa_offset -4
  bx ip

  // Force constant pool for ldr above
  .ltorg

  .cfi_endproc

3:
  .word _libpango_1_0_so_tramp_table - (2b + 8) + 836

/*
 * Copyright 2018-2025 Yury Gribov
 *
 * The MIT License (MIT)
 *
 * Use of this source code is governed by MIT license that can be
 * found in the LICENSE.txt file.
 */

  .globl pango_font_map_get_type
  .p2align 4
  .type pango_font_map_get_type, %function
#ifndef IMPLIB_EXPORT_SHIMS
  .hidden pango_font_map_get_type
#endif
pango_font_map_get_type:
  .cfi_startproc

1:
  // Load address
  // TODO: can we do this faster on newer ARMs?
  ldr ip, 3f
2:
  add ip, pc, ip
  ldr ip, [ip]

  cmp ip, #0

  // Fast path
  bxne ip

  // Slow path
  ldr ip, =210
  push {ip}
  .cfi_adjust_cfa_offset 4
  PUSH_REG(lr)
  bl _libpango_1_0_so_save_regs_and_resolve
  POP_REG(lr)
  add sp, #4
  .cfi_adjust_cfa_offset -4
  bx ip

  // Force constant pool for ldr above
  .ltorg

  .cfi_endproc

3:
  .word _libpango_1_0_so_tramp_table - (2b + 8) + 840

/*
 * Copyright 2018-2025 Yury Gribov
 *
 * The MIT License (MIT)
 *
 * Use of this source code is governed by MIT license that can be
 * found in the LICENSE.txt file.
 */

  .globl pango_font_map_list_families
  .p2align 4
  .type pango_font_map_list_families, %function
#ifndef IMPLIB_EXPORT_SHIMS
  .hidden pango_font_map_list_families
#endif
pango_font_map_list_families:
  .cfi_startproc

1:
  // Load address
  // TODO: can we do this faster on newer ARMs?
  ldr ip, 3f
2:
  add ip, pc, ip
  ldr ip, [ip]

  cmp ip, #0

  // Fast path
  bxne ip

  // Slow path
  ldr ip, =211
  push {ip}
  .cfi_adjust_cfa_offset 4
  PUSH_REG(lr)
  bl _libpango_1_0_so_save_regs_and_resolve
  POP_REG(lr)
  add sp, #4
  .cfi_adjust_cfa_offset -4
  bx ip

  // Force constant pool for ldr above
  .ltorg

  .cfi_endproc

3:
  .word _libpango_1_0_so_tramp_table - (2b + 8) + 844

/*
 * Copyright 2018-2025 Yury Gribov
 *
 * The MIT License (MIT)
 *
 * Use of this source code is governed by MIT license that can be
 * found in the LICENSE.txt file.
 */

  .globl pango_font_map_load_font
  .p2align 4
  .type pango_font_map_load_font, %function
#ifndef IMPLIB_EXPORT_SHIMS
  .hidden pango_font_map_load_font
#endif
pango_font_map_load_font:
  .cfi_startproc

1:
  // Load address
  // TODO: can we do this faster on newer ARMs?
  ldr ip, 3f
2:
  add ip, pc, ip
  ldr ip, [ip]

  cmp ip, #0

  // Fast path
  bxne ip

  // Slow path
  ldr ip, =212
  push {ip}
  .cfi_adjust_cfa_offset 4
  PUSH_REG(lr)
  bl _libpango_1_0_so_save_regs_and_resolve
  POP_REG(lr)
  add sp, #4
  .cfi_adjust_cfa_offset -4
  bx ip

  // Force constant pool for ldr above
  .ltorg

  .cfi_endproc

3:
  .word _libpango_1_0_so_tramp_table - (2b + 8) + 848

/*
 * Copyright 2018-2025 Yury Gribov
 *
 * The MIT License (MIT)
 *
 * Use of this source code is governed by MIT license that can be
 * found in the LICENSE.txt file.
 */

  .globl pango_font_map_load_fontset
  .p2align 4
  .type pango_font_map_load_fontset, %function
#ifndef IMPLIB_EXPORT_SHIMS
  .hidden pango_font_map_load_fontset
#endif
pango_font_map_load_fontset:
  .cfi_startproc

1:
  // Load address
  // TODO: can we do this faster on newer ARMs?
  ldr ip, 3f
2:
  add ip, pc, ip
  ldr ip, [ip]

  cmp ip, #0

  // Fast path
  bxne ip

  // Slow path
  ldr ip, =213
  push {ip}
  .cfi_adjust_cfa_offset 4
  PUSH_REG(lr)
  bl _libpango_1_0_so_save_regs_and_resolve
  POP_REG(lr)
  add sp, #4
  .cfi_adjust_cfa_offset -4
  bx ip

  // Force constant pool for ldr above
  .ltorg

  .cfi_endproc

3:
  .word _libpango_1_0_so_tramp_table - (2b + 8) + 852

/*
 * Copyright 2018-2025 Yury Gribov
 *
 * The MIT License (MIT)
 *
 * Use of this source code is governed by MIT license that can be
 * found in the LICENSE.txt file.
 */

  .globl pango_font_map_reload_font
  .p2align 4
  .type pango_font_map_reload_font, %function
#ifndef IMPLIB_EXPORT_SHIMS
  .hidden pango_font_map_reload_font
#endif
pango_font_map_reload_font:
  .cfi_startproc

1:
  // Load address
  // TODO: can we do this faster on newer ARMs?
  ldr ip, 3f
2:
  add ip, pc, ip
  ldr ip, [ip]

  cmp ip, #0

  // Fast path
  bxne ip

  // Slow path
  ldr ip, =214
  push {ip}
  .cfi_adjust_cfa_offset 4
  PUSH_REG(lr)
  bl _libpango_1_0_so_save_regs_and_resolve
  POP_REG(lr)
  add sp, #4
  .cfi_adjust_cfa_offset -4
  bx ip

  // Force constant pool for ldr above
  .ltorg

  .cfi_endproc

3:
  .word _libpango_1_0_so_tramp_table - (2b + 8) + 856

/*
 * Copyright 2018-2025 Yury Gribov
 *
 * The MIT License (MIT)
 *
 * Use of this source code is governed by MIT license that can be
 * found in the LICENSE.txt file.
 */

  .globl pango_font_mask_get_type
  .p2align 4
  .type pango_font_mask_get_type, %function
#ifndef IMPLIB_EXPORT_SHIMS
  .hidden pango_font_mask_get_type
#endif
pango_font_mask_get_type:
  .cfi_startproc

1:
  // Load address
  // TODO: can we do this faster on newer ARMs?
  ldr ip, 3f
2:
  add ip, pc, ip
  ldr ip, [ip]

  cmp ip, #0

  // Fast path
  bxne ip

  // Slow path
  ldr ip, =215
  push {ip}
  .cfi_adjust_cfa_offset 4
  PUSH_REG(lr)
  bl _libpango_1_0_so_save_regs_and_resolve
  POP_REG(lr)
  add sp, #4
  .cfi_adjust_cfa_offset -4
  bx ip

  // Force constant pool for ldr above
  .ltorg

  .cfi_endproc

3:
  .word _libpango_1_0_so_tramp_table - (2b + 8) + 860

/*
 * Copyright 2018-2025 Yury Gribov
 *
 * The MIT License (MIT)
 *
 * Use of this source code is governed by MIT license that can be
 * found in the LICENSE.txt file.
 */

  .globl pango_font_metrics_get_approximate_char_width
  .p2align 4
  .type pango_font_metrics_get_approximate_char_width, %function
#ifndef IMPLIB_EXPORT_SHIMS
  .hidden pango_font_metrics_get_approximate_char_width
#endif
pango_font_metrics_get_approximate_char_width:
  .cfi_startproc

1:
  // Load address
  // TODO: can we do this faster on newer ARMs?
  ldr ip, 3f
2:
  add ip, pc, ip
  ldr ip, [ip]

  cmp ip, #0

  // Fast path
  bxne ip

  // Slow path
  ldr ip, =216
  push {ip}
  .cfi_adjust_cfa_offset 4
  PUSH_REG(lr)
  bl _libpango_1_0_so_save_regs_and_resolve
  POP_REG(lr)
  add sp, #4
  .cfi_adjust_cfa_offset -4
  bx ip

  // Force constant pool for ldr above
  .ltorg

  .cfi_endproc

3:
  .word _libpango_1_0_so_tramp_table - (2b + 8) + 864

/*
 * Copyright 2018-2025 Yury Gribov
 *
 * The MIT License (MIT)
 *
 * Use of this source code is governed by MIT license that can be
 * found in the LICENSE.txt file.
 */

  .globl pango_font_metrics_get_approximate_digit_width
  .p2align 4
  .type pango_font_metrics_get_approximate_digit_width, %function
#ifndef IMPLIB_EXPORT_SHIMS
  .hidden pango_font_metrics_get_approximate_digit_width
#endif
pango_font_metrics_get_approximate_digit_width:
  .cfi_startproc

1:
  // Load address
  // TODO: can we do this faster on newer ARMs?
  ldr ip, 3f
2:
  add ip, pc, ip
  ldr ip, [ip]

  cmp ip, #0

  // Fast path
  bxne ip

  // Slow path
  ldr ip, =217
  push {ip}
  .cfi_adjust_cfa_offset 4
  PUSH_REG(lr)
  bl _libpango_1_0_so_save_regs_and_resolve
  POP_REG(lr)
  add sp, #4
  .cfi_adjust_cfa_offset -4
  bx ip

  // Force constant pool for ldr above
  .ltorg

  .cfi_endproc

3:
  .word _libpango_1_0_so_tramp_table - (2b + 8) + 868

/*
 * Copyright 2018-2025 Yury Gribov
 *
 * The MIT License (MIT)
 *
 * Use of this source code is governed by MIT license that can be
 * found in the LICENSE.txt file.
 */

  .globl pango_font_metrics_get_ascent
  .p2align 4
  .type pango_font_metrics_get_ascent, %function
#ifndef IMPLIB_EXPORT_SHIMS
  .hidden pango_font_metrics_get_ascent
#endif
pango_font_metrics_get_ascent:
  .cfi_startproc

1:
  // Load address
  // TODO: can we do this faster on newer ARMs?
  ldr ip, 3f
2:
  add ip, pc, ip
  ldr ip, [ip]

  cmp ip, #0

  // Fast path
  bxne ip

  // Slow path
  ldr ip, =218
  push {ip}
  .cfi_adjust_cfa_offset 4
  PUSH_REG(lr)
  bl _libpango_1_0_so_save_regs_and_resolve
  POP_REG(lr)
  add sp, #4
  .cfi_adjust_cfa_offset -4
  bx ip

  // Force constant pool for ldr above
  .ltorg

  .cfi_endproc

3:
  .word _libpango_1_0_so_tramp_table - (2b + 8) + 872

/*
 * Copyright 2018-2025 Yury Gribov
 *
 * The MIT License (MIT)
 *
 * Use of this source code is governed by MIT license that can be
 * found in the LICENSE.txt file.
 */

  .globl pango_font_metrics_get_descent
  .p2align 4
  .type pango_font_metrics_get_descent, %function
#ifndef IMPLIB_EXPORT_SHIMS
  .hidden pango_font_metrics_get_descent
#endif
pango_font_metrics_get_descent:
  .cfi_startproc

1:
  // Load address
  // TODO: can we do this faster on newer ARMs?
  ldr ip, 3f
2:
  add ip, pc, ip
  ldr ip, [ip]

  cmp ip, #0

  // Fast path
  bxne ip

  // Slow path
  ldr ip, =219
  push {ip}
  .cfi_adjust_cfa_offset 4
  PUSH_REG(lr)
  bl _libpango_1_0_so_save_regs_and_resolve
  POP_REG(lr)
  add sp, #4
  .cfi_adjust_cfa_offset -4
  bx ip

  // Force constant pool for ldr above
  .ltorg

  .cfi_endproc

3:
  .word _libpango_1_0_so_tramp_table - (2b + 8) + 876

/*
 * Copyright 2018-2025 Yury Gribov
 *
 * The MIT License (MIT)
 *
 * Use of this source code is governed by MIT license that can be
 * found in the LICENSE.txt file.
 */

  .globl pango_font_metrics_get_height
  .p2align 4
  .type pango_font_metrics_get_height, %function
#ifndef IMPLIB_EXPORT_SHIMS
  .hidden pango_font_metrics_get_height
#endif
pango_font_metrics_get_height:
  .cfi_startproc

1:
  // Load address
  // TODO: can we do this faster on newer ARMs?
  ldr ip, 3f
2:
  add ip, pc, ip
  ldr ip, [ip]

  cmp ip, #0

  // Fast path
  bxne ip

  // Slow path
  ldr ip, =220
  push {ip}
  .cfi_adjust_cfa_offset 4
  PUSH_REG(lr)
  bl _libpango_1_0_so_save_regs_and_resolve
  POP_REG(lr)
  add sp, #4
  .cfi_adjust_cfa_offset -4
  bx ip

  // Force constant pool for ldr above
  .ltorg

  .cfi_endproc

3:
  .word _libpango_1_0_so_tramp_table - (2b + 8) + 880

/*
 * Copyright 2018-2025 Yury Gribov
 *
 * The MIT License (MIT)
 *
 * Use of this source code is governed by MIT license that can be
 * found in the LICENSE.txt file.
 */

  .globl pango_font_metrics_get_strikethrough_position
  .p2align 4
  .type pango_font_metrics_get_strikethrough_position, %function
#ifndef IMPLIB_EXPORT_SHIMS
  .hidden pango_font_metrics_get_strikethrough_position
#endif
pango_font_metrics_get_strikethrough_position:
  .cfi_startproc

1:
  // Load address
  // TODO: can we do this faster on newer ARMs?
  ldr ip, 3f
2:
  add ip, pc, ip
  ldr ip, [ip]

  cmp ip, #0

  // Fast path
  bxne ip

  // Slow path
  ldr ip, =221
  push {ip}
  .cfi_adjust_cfa_offset 4
  PUSH_REG(lr)
  bl _libpango_1_0_so_save_regs_and_resolve
  POP_REG(lr)
  add sp, #4
  .cfi_adjust_cfa_offset -4
  bx ip

  // Force constant pool for ldr above
  .ltorg

  .cfi_endproc

3:
  .word _libpango_1_0_so_tramp_table - (2b + 8) + 884

/*
 * Copyright 2018-2025 Yury Gribov
 *
 * The MIT License (MIT)
 *
 * Use of this source code is governed by MIT license that can be
 * found in the LICENSE.txt file.
 */

  .globl pango_font_metrics_get_strikethrough_thickness
  .p2align 4
  .type pango_font_metrics_get_strikethrough_thickness, %function
#ifndef IMPLIB_EXPORT_SHIMS
  .hidden pango_font_metrics_get_strikethrough_thickness
#endif
pango_font_metrics_get_strikethrough_thickness:
  .cfi_startproc

1:
  // Load address
  // TODO: can we do this faster on newer ARMs?
  ldr ip, 3f
2:
  add ip, pc, ip
  ldr ip, [ip]

  cmp ip, #0

  // Fast path
  bxne ip

  // Slow path
  ldr ip, =222
  push {ip}
  .cfi_adjust_cfa_offset 4
  PUSH_REG(lr)
  bl _libpango_1_0_so_save_regs_and_resolve
  POP_REG(lr)
  add sp, #4
  .cfi_adjust_cfa_offset -4
  bx ip

  // Force constant pool for ldr above
  .ltorg

  .cfi_endproc

3:
  .word _libpango_1_0_so_tramp_table - (2b + 8) + 888

/*
 * Copyright 2018-2025 Yury Gribov
 *
 * The MIT License (MIT)
 *
 * Use of this source code is governed by MIT license that can be
 * found in the LICENSE.txt file.
 */

  .globl pango_font_metrics_get_type
  .p2align 4
  .type pango_font_metrics_get_type, %function
#ifndef IMPLIB_EXPORT_SHIMS
  .hidden pango_font_metrics_get_type
#endif
pango_font_metrics_get_type:
  .cfi_startproc

1:
  // Load address
  // TODO: can we do this faster on newer ARMs?
  ldr ip, 3f
2:
  add ip, pc, ip
  ldr ip, [ip]

  cmp ip, #0

  // Fast path
  bxne ip

  // Slow path
  ldr ip, =223
  push {ip}
  .cfi_adjust_cfa_offset 4
  PUSH_REG(lr)
  bl _libpango_1_0_so_save_regs_and_resolve
  POP_REG(lr)
  add sp, #4
  .cfi_adjust_cfa_offset -4
  bx ip

  // Force constant pool for ldr above
  .ltorg

  .cfi_endproc

3:
  .word _libpango_1_0_so_tramp_table - (2b + 8) + 892

/*
 * Copyright 2018-2025 Yury Gribov
 *
 * The MIT License (MIT)
 *
 * Use of this source code is governed by MIT license that can be
 * found in the LICENSE.txt file.
 */

  .globl pango_font_metrics_get_underline_position
  .p2align 4
  .type pango_font_metrics_get_underline_position, %function
#ifndef IMPLIB_EXPORT_SHIMS
  .hidden pango_font_metrics_get_underline_position
#endif
pango_font_metrics_get_underline_position:
  .cfi_startproc

1:
  // Load address
  // TODO: can we do this faster on newer ARMs?
  ldr ip, 3f
2:
  add ip, pc, ip
  ldr ip, [ip]

  cmp ip, #0

  // Fast path
  bxne ip

  // Slow path
  ldr ip, =224
  push {ip}
  .cfi_adjust_cfa_offset 4
  PUSH_REG(lr)
  bl _libpango_1_0_so_save_regs_and_resolve
  POP_REG(lr)
  add sp, #4
  .cfi_adjust_cfa_offset -4
  bx ip

  // Force constant pool for ldr above
  .ltorg

  .cfi_endproc

3:
  .word _libpango_1_0_so_tramp_table - (2b + 8) + 896

/*
 * Copyright 2018-2025 Yury Gribov
 *
 * The MIT License (MIT)
 *
 * Use of this source code is governed by MIT license that can be
 * found in the LICENSE.txt file.
 */

  .globl pango_font_metrics_get_underline_thickness
  .p2align 4
  .type pango_font_metrics_get_underline_thickness, %function
#ifndef IMPLIB_EXPORT_SHIMS
  .hidden pango_font_metrics_get_underline_thickness
#endif
pango_font_metrics_get_underline_thickness:
  .cfi_startproc

1:
  // Load address
  // TODO: can we do this faster on newer ARMs?
  ldr ip, 3f
2:
  add ip, pc, ip
  ldr ip, [ip]

  cmp ip, #0

  // Fast path
  bxne ip

  // Slow path
  ldr ip, =225
  push {ip}
  .cfi_adjust_cfa_offset 4
  PUSH_REG(lr)
  bl _libpango_1_0_so_save_regs_and_resolve
  POP_REG(lr)
  add sp, #4
  .cfi_adjust_cfa_offset -4
  bx ip

  // Force constant pool for ldr above
  .ltorg

  .cfi_endproc

3:
  .word _libpango_1_0_so_tramp_table - (2b + 8) + 900

/*
 * Copyright 2018-2025 Yury Gribov
 *
 * The MIT License (MIT)
 *
 * Use of this source code is governed by MIT license that can be
 * found in the LICENSE.txt file.
 */

  .globl pango_font_metrics_new
  .p2align 4
  .type pango_font_metrics_new, %function
#ifndef IMPLIB_EXPORT_SHIMS
  .hidden pango_font_metrics_new
#endif
pango_font_metrics_new:
  .cfi_startproc

1:
  // Load address
  // TODO: can we do this faster on newer ARMs?
  ldr ip, 3f
2:
  add ip, pc, ip
  ldr ip, [ip]

  cmp ip, #0

  // Fast path
  bxne ip

  // Slow path
  ldr ip, =226
  push {ip}
  .cfi_adjust_cfa_offset 4
  PUSH_REG(lr)
  bl _libpango_1_0_so_save_regs_and_resolve
  POP_REG(lr)
  add sp, #4
  .cfi_adjust_cfa_offset -4
  bx ip

  // Force constant pool for ldr above
  .ltorg

  .cfi_endproc

3:
  .word _libpango_1_0_so_tramp_table - (2b + 8) + 904

/*
 * Copyright 2018-2025 Yury Gribov
 *
 * The MIT License (MIT)
 *
 * Use of this source code is governed by MIT license that can be
 * found in the LICENSE.txt file.
 */

  .globl pango_font_metrics_ref
  .p2align 4
  .type pango_font_metrics_ref, %function
#ifndef IMPLIB_EXPORT_SHIMS
  .hidden pango_font_metrics_ref
#endif
pango_font_metrics_ref:
  .cfi_startproc

1:
  // Load address
  // TODO: can we do this faster on newer ARMs?
  ldr ip, 3f
2:
  add ip, pc, ip
  ldr ip, [ip]

  cmp ip, #0

  // Fast path
  bxne ip

  // Slow path
  ldr ip, =227
  push {ip}
  .cfi_adjust_cfa_offset 4
  PUSH_REG(lr)
  bl _libpango_1_0_so_save_regs_and_resolve
  POP_REG(lr)
  add sp, #4
  .cfi_adjust_cfa_offset -4
  bx ip

  // Force constant pool for ldr above
  .ltorg

  .cfi_endproc

3:
  .word _libpango_1_0_so_tramp_table - (2b + 8) + 908

/*
 * Copyright 2018-2025 Yury Gribov
 *
 * The MIT License (MIT)
 *
 * Use of this source code is governed by MIT license that can be
 * found in the LICENSE.txt file.
 */

  .globl pango_font_metrics_unref
  .p2align 4
  .type pango_font_metrics_unref, %function
#ifndef IMPLIB_EXPORT_SHIMS
  .hidden pango_font_metrics_unref
#endif
pango_font_metrics_unref:
  .cfi_startproc

1:
  // Load address
  // TODO: can we do this faster on newer ARMs?
  ldr ip, 3f
2:
  add ip, pc, ip
  ldr ip, [ip]

  cmp ip, #0

  // Fast path
  bxne ip

  // Slow path
  ldr ip, =228
  push {ip}
  .cfi_adjust_cfa_offset 4
  PUSH_REG(lr)
  bl _libpango_1_0_so_save_regs_and_resolve
  POP_REG(lr)
  add sp, #4
  .cfi_adjust_cfa_offset -4
  bx ip

  // Force constant pool for ldr above
  .ltorg

  .cfi_endproc

3:
  .word _libpango_1_0_so_tramp_table - (2b + 8) + 912

/*
 * Copyright 2018-2025 Yury Gribov
 *
 * The MIT License (MIT)
 *
 * Use of this source code is governed by MIT license that can be
 * found in the LICENSE.txt file.
 */

  .globl pango_font_scale_get_type
  .p2align 4
  .type pango_font_scale_get_type, %function
#ifndef IMPLIB_EXPORT_SHIMS
  .hidden pango_font_scale_get_type
#endif
pango_font_scale_get_type:
  .cfi_startproc

1:
  // Load address
  // TODO: can we do this faster on newer ARMs?
  ldr ip, 3f
2:
  add ip, pc, ip
  ldr ip, [ip]

  cmp ip, #0

  // Fast path
  bxne ip

  // Slow path
  ldr ip, =229
  push {ip}
  .cfi_adjust_cfa_offset 4
  PUSH_REG(lr)
  bl _libpango_1_0_so_save_regs_and_resolve
  POP_REG(lr)
  add sp, #4
  .cfi_adjust_cfa_offset -4
  bx ip

  // Force constant pool for ldr above
  .ltorg

  .cfi_endproc

3:
  .word _libpango_1_0_so_tramp_table - (2b + 8) + 916

/*
 * Copyright 2018-2025 Yury Gribov
 *
 * The MIT License (MIT)
 *
 * Use of this source code is governed by MIT license that can be
 * found in the LICENSE.txt file.
 */

  .globl pango_font_serialize
  .p2align 4
  .type pango_font_serialize, %function
#ifndef IMPLIB_EXPORT_SHIMS
  .hidden pango_font_serialize
#endif
pango_font_serialize:
  .cfi_startproc

1:
  // Load address
  // TODO: can we do this faster on newer ARMs?
  ldr ip, 3f
2:
  add ip, pc, ip
  ldr ip, [ip]

  cmp ip, #0

  // Fast path
  bxne ip

  // Slow path
  ldr ip, =230
  push {ip}
  .cfi_adjust_cfa_offset 4
  PUSH_REG(lr)
  bl _libpango_1_0_so_save_regs_and_resolve
  POP_REG(lr)
  add sp, #4
  .cfi_adjust_cfa_offset -4
  bx ip

  // Force constant pool for ldr above
  .ltorg

  .cfi_endproc

3:
  .word _libpango_1_0_so_tramp_table - (2b + 8) + 920

/*
 * Copyright 2018-2025 Yury Gribov
 *
 * The MIT License (MIT)
 *
 * Use of this source code is governed by MIT license that can be
 * found in the LICENSE.txt file.
 */

  .globl pango_fontset_foreach
  .p2align 4
  .type pango_fontset_foreach, %function
#ifndef IMPLIB_EXPORT_SHIMS
  .hidden pango_fontset_foreach
#endif
pango_fontset_foreach:
  .cfi_startproc

1:
  // Load address
  // TODO: can we do this faster on newer ARMs?
  ldr ip, 3f
2:
  add ip, pc, ip
  ldr ip, [ip]

  cmp ip, #0

  // Fast path
  bxne ip

  // Slow path
  ldr ip, =231
  push {ip}
  .cfi_adjust_cfa_offset 4
  PUSH_REG(lr)
  bl _libpango_1_0_so_save_regs_and_resolve
  POP_REG(lr)
  add sp, #4
  .cfi_adjust_cfa_offset -4
  bx ip

  // Force constant pool for ldr above
  .ltorg

  .cfi_endproc

3:
  .word _libpango_1_0_so_tramp_table - (2b + 8) + 924

/*
 * Copyright 2018-2025 Yury Gribov
 *
 * The MIT License (MIT)
 *
 * Use of this source code is governed by MIT license that can be
 * found in the LICENSE.txt file.
 */

  .globl pango_fontset_get_font
  .p2align 4
  .type pango_fontset_get_font, %function
#ifndef IMPLIB_EXPORT_SHIMS
  .hidden pango_fontset_get_font
#endif
pango_fontset_get_font:
  .cfi_startproc

1:
  // Load address
  // TODO: can we do this faster on newer ARMs?
  ldr ip, 3f
2:
  add ip, pc, ip
  ldr ip, [ip]

  cmp ip, #0

  // Fast path
  bxne ip

  // Slow path
  ldr ip, =232
  push {ip}
  .cfi_adjust_cfa_offset 4
  PUSH_REG(lr)
  bl _libpango_1_0_so_save_regs_and_resolve
  POP_REG(lr)
  add sp, #4
  .cfi_adjust_cfa_offset -4
  bx ip

  // Force constant pool for ldr above
  .ltorg

  .cfi_endproc

3:
  .word _libpango_1_0_so_tramp_table - (2b + 8) + 928

/*
 * Copyright 2018-2025 Yury Gribov
 *
 * The MIT License (MIT)
 *
 * Use of this source code is governed by MIT license that can be
 * found in the LICENSE.txt file.
 */

  .globl pango_fontset_get_metrics
  .p2align 4
  .type pango_fontset_get_metrics, %function
#ifndef IMPLIB_EXPORT_SHIMS
  .hidden pango_fontset_get_metrics
#endif
pango_fontset_get_metrics:
  .cfi_startproc

1:
  // Load address
  // TODO: can we do this faster on newer ARMs?
  ldr ip, 3f
2:
  add ip, pc, ip
  ldr ip, [ip]

  cmp ip, #0

  // Fast path
  bxne ip

  // Slow path
  ldr ip, =233
  push {ip}
  .cfi_adjust_cfa_offset 4
  PUSH_REG(lr)
  bl _libpango_1_0_so_save_regs_and_resolve
  POP_REG(lr)
  add sp, #4
  .cfi_adjust_cfa_offset -4
  bx ip

  // Force constant pool for ldr above
  .ltorg

  .cfi_endproc

3:
  .word _libpango_1_0_so_tramp_table - (2b + 8) + 932

/*
 * Copyright 2018-2025 Yury Gribov
 *
 * The MIT License (MIT)
 *
 * Use of this source code is governed by MIT license that can be
 * found in the LICENSE.txt file.
 */

  .globl pango_fontset_get_type
  .p2align 4
  .type pango_fontset_get_type, %function
#ifndef IMPLIB_EXPORT_SHIMS
  .hidden pango_fontset_get_type
#endif
pango_fontset_get_type:
  .cfi_startproc

1:
  // Load address
  // TODO: can we do this faster on newer ARMs?
  ldr ip, 3f
2:
  add ip, pc, ip
  ldr ip, [ip]

  cmp ip, #0

  // Fast path
  bxne ip

  // Slow path
  ldr ip, =234
  push {ip}
  .cfi_adjust_cfa_offset 4
  PUSH_REG(lr)
  bl _libpango_1_0_so_save_regs_and_resolve
  POP_REG(lr)
  add sp, #4
  .cfi_adjust_cfa_offset -4
  bx ip

  // Force constant pool for ldr above
  .ltorg

  .cfi_endproc

3:
  .word _libpango_1_0_so_tramp_table - (2b + 8) + 936

/*
 * Copyright 2018-2025 Yury Gribov
 *
 * The MIT License (MIT)
 *
 * Use of this source code is governed by MIT license that can be
 * found in the LICENSE.txt file.
 */

  .globl pango_fontset_simple_append
  .p2align 4
  .type pango_fontset_simple_append, %function
#ifndef IMPLIB_EXPORT_SHIMS
  .hidden pango_fontset_simple_append
#endif
pango_fontset_simple_append:
  .cfi_startproc

1:
  // Load address
  // TODO: can we do this faster on newer ARMs?
  ldr ip, 3f
2:
  add ip, pc, ip
  ldr ip, [ip]

  cmp ip, #0

  // Fast path
  bxne ip

  // Slow path
  ldr ip, =235
  push {ip}
  .cfi_adjust_cfa_offset 4
  PUSH_REG(lr)
  bl _libpango_1_0_so_save_regs_and_resolve
  POP_REG(lr)
  add sp, #4
  .cfi_adjust_cfa_offset -4
  bx ip

  // Force constant pool for ldr above
  .ltorg

  .cfi_endproc

3:
  .word _libpango_1_0_so_tramp_table - (2b + 8) + 940

/*
 * Copyright 2018-2025 Yury Gribov
 *
 * The MIT License (MIT)
 *
 * Use of this source code is governed by MIT license that can be
 * found in the LICENSE.txt file.
 */

  .globl pango_fontset_simple_get_type
  .p2align 4
  .type pango_fontset_simple_get_type, %function
#ifndef IMPLIB_EXPORT_SHIMS
  .hidden pango_fontset_simple_get_type
#endif
pango_fontset_simple_get_type:
  .cfi_startproc

1:
  // Load address
  // TODO: can we do this faster on newer ARMs?
  ldr ip, 3f
2:
  add ip, pc, ip
  ldr ip, [ip]

  cmp ip, #0

  // Fast path
  bxne ip

  // Slow path
  ldr ip, =236
  push {ip}
  .cfi_adjust_cfa_offset 4
  PUSH_REG(lr)
  bl _libpango_1_0_so_save_regs_and_resolve
  POP_REG(lr)
  add sp, #4
  .cfi_adjust_cfa_offset -4
  bx ip

  // Force constant pool for ldr above
  .ltorg

  .cfi_endproc

3:
  .word _libpango_1_0_so_tramp_table - (2b + 8) + 944

/*
 * Copyright 2018-2025 Yury Gribov
 *
 * The MIT License (MIT)
 *
 * Use of this source code is governed by MIT license that can be
 * found in the LICENSE.txt file.
 */

  .globl pango_fontset_simple_new
  .p2align 4
  .type pango_fontset_simple_new, %function
#ifndef IMPLIB_EXPORT_SHIMS
  .hidden pango_fontset_simple_new
#endif
pango_fontset_simple_new:
  .cfi_startproc

1:
  // Load address
  // TODO: can we do this faster on newer ARMs?
  ldr ip, 3f
2:
  add ip, pc, ip
  ldr ip, [ip]

  cmp ip, #0

  // Fast path
  bxne ip

  // Slow path
  ldr ip, =237
  push {ip}
  .cfi_adjust_cfa_offset 4
  PUSH_REG(lr)
  bl _libpango_1_0_so_save_regs_and_resolve
  POP_REG(lr)
  add sp, #4
  .cfi_adjust_cfa_offset -4
  bx ip

  // Force constant pool for ldr above
  .ltorg

  .cfi_endproc

3:
  .word _libpango_1_0_so_tramp_table - (2b + 8) + 948

/*
 * Copyright 2018-2025 Yury Gribov
 *
 * The MIT License (MIT)
 *
 * Use of this source code is governed by MIT license that can be
 * found in the LICENSE.txt file.
 */

  .globl pango_fontset_simple_size
  .p2align 4
  .type pango_fontset_simple_size, %function
#ifndef IMPLIB_EXPORT_SHIMS
  .hidden pango_fontset_simple_size
#endif
pango_fontset_simple_size:
  .cfi_startproc

1:
  // Load address
  // TODO: can we do this faster on newer ARMs?
  ldr ip, 3f
2:
  add ip, pc, ip
  ldr ip, [ip]

  cmp ip, #0

  // Fast path
  bxne ip

  // Slow path
  ldr ip, =238
  push {ip}
  .cfi_adjust_cfa_offset 4
  PUSH_REG(lr)
  bl _libpango_1_0_so_save_regs_and_resolve
  POP_REG(lr)
  add sp, #4
  .cfi_adjust_cfa_offset -4
  bx ip

  // Force constant pool for ldr above
  .ltorg

  .cfi_endproc

3:
  .word _libpango_1_0_so_tramp_table - (2b + 8) + 952

/*
 * Copyright 2018-2025 Yury Gribov
 *
 * The MIT License (MIT)
 *
 * Use of this source code is governed by MIT license that can be
 * found in the LICENSE.txt file.
 */

  .globl pango_get_lib_subdirectory
  .p2align 4
  .type pango_get_lib_subdirectory, %function
#ifndef IMPLIB_EXPORT_SHIMS
  .hidden pango_get_lib_subdirectory
#endif
pango_get_lib_subdirectory:
  .cfi_startproc

1:
  // Load address
  // TODO: can we do this faster on newer ARMs?
  ldr ip, 3f
2:
  add ip, pc, ip
  ldr ip, [ip]

  cmp ip, #0

  // Fast path
  bxne ip

  // Slow path
  ldr ip, =239
  push {ip}
  .cfi_adjust_cfa_offset 4
  PUSH_REG(lr)
  bl _libpango_1_0_so_save_regs_and_resolve
  POP_REG(lr)
  add sp, #4
  .cfi_adjust_cfa_offset -4
  bx ip

  // Force constant pool for ldr above
  .ltorg

  .cfi_endproc

3:
  .word _libpango_1_0_so_tramp_table - (2b + 8) + 956

/*
 * Copyright 2018-2025 Yury Gribov
 *
 * The MIT License (MIT)
 *
 * Use of this source code is governed by MIT license that can be
 * found in the LICENSE.txt file.
 */

  .globl pango_get_log_attrs
  .p2align 4
  .type pango_get_log_attrs, %function
#ifndef IMPLIB_EXPORT_SHIMS
  .hidden pango_get_log_attrs
#endif
pango_get_log_attrs:
  .cfi_startproc

1:
  // Load address
  // TODO: can we do this faster on newer ARMs?
  ldr ip, 3f
2:
  add ip, pc, ip
  ldr ip, [ip]

  cmp ip, #0

  // Fast path
  bxne ip

  // Slow path
  ldr ip, =240
  push {ip}
  .cfi_adjust_cfa_offset 4
  PUSH_REG(lr)
  bl _libpango_1_0_so_save_regs_and_resolve
  POP_REG(lr)
  add sp, #4
  .cfi_adjust_cfa_offset -4
  bx ip

  // Force constant pool for ldr above
  .ltorg

  .cfi_endproc

3:
  .word _libpango_1_0_so_tramp_table - (2b + 8) + 960

/*
 * Copyright 2018-2025 Yury Gribov
 *
 * The MIT License (MIT)
 *
 * Use of this source code is governed by MIT license that can be
 * found in the LICENSE.txt file.
 */

  .globl pango_get_mirror_char
  .p2align 4
  .type pango_get_mirror_char, %function
#ifndef IMPLIB_EXPORT_SHIMS
  .hidden pango_get_mirror_char
#endif
pango_get_mirror_char:
  .cfi_startproc

1:
  // Load address
  // TODO: can we do this faster on newer ARMs?
  ldr ip, 3f
2:
  add ip, pc, ip
  ldr ip, [ip]

  cmp ip, #0

  // Fast path
  bxne ip

  // Slow path
  ldr ip, =241
  push {ip}
  .cfi_adjust_cfa_offset 4
  PUSH_REG(lr)
  bl _libpango_1_0_so_save_regs_and_resolve
  POP_REG(lr)
  add sp, #4
  .cfi_adjust_cfa_offset -4
  bx ip

  // Force constant pool for ldr above
  .ltorg

  .cfi_endproc

3:
  .word _libpango_1_0_so_tramp_table - (2b + 8) + 964

/*
 * Copyright 2018-2025 Yury Gribov
 *
 * The MIT License (MIT)
 *
 * Use of this source code is governed by MIT license that can be
 * found in the LICENSE.txt file.
 */

  .globl pango_get_sysconf_subdirectory
  .p2align 4
  .type pango_get_sysconf_subdirectory, %function
#ifndef IMPLIB_EXPORT_SHIMS
  .hidden pango_get_sysconf_subdirectory
#endif
pango_get_sysconf_subdirectory:
  .cfi_startproc

1:
  // Load address
  // TODO: can we do this faster on newer ARMs?
  ldr ip, 3f
2:
  add ip, pc, ip
  ldr ip, [ip]

  cmp ip, #0

  // Fast path
  bxne ip

  // Slow path
  ldr ip, =242
  push {ip}
  .cfi_adjust_cfa_offset 4
  PUSH_REG(lr)
  bl _libpango_1_0_so_save_regs_and_resolve
  POP_REG(lr)
  add sp, #4
  .cfi_adjust_cfa_offset -4
  bx ip

  // Force constant pool for ldr above
  .ltorg

  .cfi_endproc

3:
  .word _libpango_1_0_so_tramp_table - (2b + 8) + 968

/*
 * Copyright 2018-2025 Yury Gribov
 *
 * The MIT License (MIT)
 *
 * Use of this source code is governed by MIT license that can be
 * found in the LICENSE.txt file.
 */

  .globl pango_glyph_item_apply_attrs
  .p2align 4
  .type pango_glyph_item_apply_attrs, %function
#ifndef IMPLIB_EXPORT_SHIMS
  .hidden pango_glyph_item_apply_attrs
#endif
pango_glyph_item_apply_attrs:
  .cfi_startproc

1:
  // Load address
  // TODO: can we do this faster on newer ARMs?
  ldr ip, 3f
2:
  add ip, pc, ip
  ldr ip, [ip]

  cmp ip, #0

  // Fast path
  bxne ip

  // Slow path
  ldr ip, =243
  push {ip}
  .cfi_adjust_cfa_offset 4
  PUSH_REG(lr)
  bl _libpango_1_0_so_save_regs_and_resolve
  POP_REG(lr)
  add sp, #4
  .cfi_adjust_cfa_offset -4
  bx ip

  // Force constant pool for ldr above
  .ltorg

  .cfi_endproc

3:
  .word _libpango_1_0_so_tramp_table - (2b + 8) + 972

/*
 * Copyright 2018-2025 Yury Gribov
 *
 * The MIT License (MIT)
 *
 * Use of this source code is governed by MIT license that can be
 * found in the LICENSE.txt file.
 */

  .globl pango_glyph_item_copy
  .p2align 4
  .type pango_glyph_item_copy, %function
#ifndef IMPLIB_EXPORT_SHIMS
  .hidden pango_glyph_item_copy
#endif
pango_glyph_item_copy:
  .cfi_startproc

1:
  // Load address
  // TODO: can we do this faster on newer ARMs?
  ldr ip, 3f
2:
  add ip, pc, ip
  ldr ip, [ip]

  cmp ip, #0

  // Fast path
  bxne ip

  // Slow path
  ldr ip, =244
  push {ip}
  .cfi_adjust_cfa_offset 4
  PUSH_REG(lr)
  bl _libpango_1_0_so_save_regs_and_resolve
  POP_REG(lr)
  add sp, #4
  .cfi_adjust_cfa_offset -4
  bx ip

  // Force constant pool for ldr above
  .ltorg

  .cfi_endproc

3:
  .word _libpango_1_0_so_tramp_table - (2b + 8) + 976

/*
 * Copyright 2018-2025 Yury Gribov
 *
 * The MIT License (MIT)
 *
 * Use of this source code is governed by MIT license that can be
 * found in the LICENSE.txt file.
 */

  .globl pango_glyph_item_free
  .p2align 4
  .type pango_glyph_item_free, %function
#ifndef IMPLIB_EXPORT_SHIMS
  .hidden pango_glyph_item_free
#endif
pango_glyph_item_free:
  .cfi_startproc

1:
  // Load address
  // TODO: can we do this faster on newer ARMs?
  ldr ip, 3f
2:
  add ip, pc, ip
  ldr ip, [ip]

  cmp ip, #0

  // Fast path
  bxne ip

  // Slow path
  ldr ip, =245
  push {ip}
  .cfi_adjust_cfa_offset 4
  PUSH_REG(lr)
  bl _libpango_1_0_so_save_regs_and_resolve
  POP_REG(lr)
  add sp, #4
  .cfi_adjust_cfa_offset -4
  bx ip

  // Force constant pool for ldr above
  .ltorg

  .cfi_endproc

3:
  .word _libpango_1_0_so_tramp_table - (2b + 8) + 980

/*
 * Copyright 2018-2025 Yury Gribov
 *
 * The MIT License (MIT)
 *
 * Use of this source code is governed by MIT license that can be
 * found in the LICENSE.txt file.
 */

  .globl pango_glyph_item_get_logical_widths
  .p2align 4
  .type pango_glyph_item_get_logical_widths, %function
#ifndef IMPLIB_EXPORT_SHIMS
  .hidden pango_glyph_item_get_logical_widths
#endif
pango_glyph_item_get_logical_widths:
  .cfi_startproc

1:
  // Load address
  // TODO: can we do this faster on newer ARMs?
  ldr ip, 3f
2:
  add ip, pc, ip
  ldr ip, [ip]

  cmp ip, #0

  // Fast path
  bxne ip

  // Slow path
  ldr ip, =246
  push {ip}
  .cfi_adjust_cfa_offset 4
  PUSH_REG(lr)
  bl _libpango_1_0_so_save_regs_and_resolve
  POP_REG(lr)
  add sp, #4
  .cfi_adjust_cfa_offset -4
  bx ip

  // Force constant pool for ldr above
  .ltorg

  .cfi_endproc

3:
  .word _libpango_1_0_so_tramp_table - (2b + 8) + 984

/*
 * Copyright 2018-2025 Yury Gribov
 *
 * The MIT License (MIT)
 *
 * Use of this source code is governed by MIT license that can be
 * found in the LICENSE.txt file.
 */

  .globl pango_glyph_item_get_type
  .p2align 4
  .type pango_glyph_item_get_type, %function
#ifndef IMPLIB_EXPORT_SHIMS
  .hidden pango_glyph_item_get_type
#endif
pango_glyph_item_get_type:
  .cfi_startproc

1:
  // Load address
  // TODO: can we do this faster on newer ARMs?
  ldr ip, 3f
2:
  add ip, pc, ip
  ldr ip, [ip]

  cmp ip, #0

  // Fast path
  bxne ip

  // Slow path
  ldr ip, =247
  push {ip}
  .cfi_adjust_cfa_offset 4
  PUSH_REG(lr)
  bl _libpango_1_0_so_save_regs_and_resolve
  POP_REG(lr)
  add sp, #4
  .cfi_adjust_cfa_offset -4
  bx ip

  // Force constant pool for ldr above
  .ltorg

  .cfi_endproc

3:
  .word _libpango_1_0_so_tramp_table - (2b + 8) + 988

/*
 * Copyright 2018-2025 Yury Gribov
 *
 * The MIT License (MIT)
 *
 * Use of this source code is governed by MIT license that can be
 * found in the LICENSE.txt file.
 */

  .globl pango_glyph_item_iter_copy
  .p2align 4
  .type pango_glyph_item_iter_copy, %function
#ifndef IMPLIB_EXPORT_SHIMS
  .hidden pango_glyph_item_iter_copy
#endif
pango_glyph_item_iter_copy:
  .cfi_startproc

1:
  // Load address
  // TODO: can we do this faster on newer ARMs?
  ldr ip, 3f
2:
  add ip, pc, ip
  ldr ip, [ip]

  cmp ip, #0

  // Fast path
  bxne ip

  // Slow path
  ldr ip, =248
  push {ip}
  .cfi_adjust_cfa_offset 4
  PUSH_REG(lr)
  bl _libpango_1_0_so_save_regs_and_resolve
  POP_REG(lr)
  add sp, #4
  .cfi_adjust_cfa_offset -4
  bx ip

  // Force constant pool for ldr above
  .ltorg

  .cfi_endproc

3:
  .word _libpango_1_0_so_tramp_table - (2b + 8) + 992

/*
 * Copyright 2018-2025 Yury Gribov
 *
 * The MIT License (MIT)
 *
 * Use of this source code is governed by MIT license that can be
 * found in the LICENSE.txt file.
 */

  .globl pango_glyph_item_iter_free
  .p2align 4
  .type pango_glyph_item_iter_free, %function
#ifndef IMPLIB_EXPORT_SHIMS
  .hidden pango_glyph_item_iter_free
#endif
pango_glyph_item_iter_free:
  .cfi_startproc

1:
  // Load address
  // TODO: can we do this faster on newer ARMs?
  ldr ip, 3f
2:
  add ip, pc, ip
  ldr ip, [ip]

  cmp ip, #0

  // Fast path
  bxne ip

  // Slow path
  ldr ip, =249
  push {ip}
  .cfi_adjust_cfa_offset 4
  PUSH_REG(lr)
  bl _libpango_1_0_so_save_regs_and_resolve
  POP_REG(lr)
  add sp, #4
  .cfi_adjust_cfa_offset -4
  bx ip

  // Force constant pool for ldr above
  .ltorg

  .cfi_endproc

3:
  .word _libpango_1_0_so_tramp_table - (2b + 8) + 996

/*
 * Copyright 2018-2025 Yury Gribov
 *
 * The MIT License (MIT)
 *
 * Use of this source code is governed by MIT license that can be
 * found in the LICENSE.txt file.
 */

  .globl pango_glyph_item_iter_get_type
  .p2align 4
  .type pango_glyph_item_iter_get_type, %function
#ifndef IMPLIB_EXPORT_SHIMS
  .hidden pango_glyph_item_iter_get_type
#endif
pango_glyph_item_iter_get_type:
  .cfi_startproc

1:
  // Load address
  // TODO: can we do this faster on newer ARMs?
  ldr ip, 3f
2:
  add ip, pc, ip
  ldr ip, [ip]

  cmp ip, #0

  // Fast path
  bxne ip

  // Slow path
  ldr ip, =250
  push {ip}
  .cfi_adjust_cfa_offset 4
  PUSH_REG(lr)
  bl _libpango_1_0_so_save_regs_and_resolve
  POP_REG(lr)
  add sp, #4
  .cfi_adjust_cfa_offset -4
  bx ip

  // Force constant pool for ldr above
  .ltorg

  .cfi_endproc

3:
  .word _libpango_1_0_so_tramp_table - (2b + 8) + 1000

/*
 * Copyright 2018-2025 Yury Gribov
 *
 * The MIT License (MIT)
 *
 * Use of this source code is governed by MIT license that can be
 * found in the LICENSE.txt file.
 */

  .globl pango_glyph_item_iter_init_end
  .p2align 4
  .type pango_glyph_item_iter_init_end, %function
#ifndef IMPLIB_EXPORT_SHIMS
  .hidden pango_glyph_item_iter_init_end
#endif
pango_glyph_item_iter_init_end:
  .cfi_startproc

1:
  // Load address
  // TODO: can we do this faster on newer ARMs?
  ldr ip, 3f
2:
  add ip, pc, ip
  ldr ip, [ip]

  cmp ip, #0

  // Fast path
  bxne ip

  // Slow path
  ldr ip, =251
  push {ip}
  .cfi_adjust_cfa_offset 4
  PUSH_REG(lr)
  bl _libpango_1_0_so_save_regs_and_resolve
  POP_REG(lr)
  add sp, #4
  .cfi_adjust_cfa_offset -4
  bx ip

  // Force constant pool for ldr above
  .ltorg

  .cfi_endproc

3:
  .word _libpango_1_0_so_tramp_table - (2b + 8) + 1004

/*
 * Copyright 2018-2025 Yury Gribov
 *
 * The MIT License (MIT)
 *
 * Use of this source code is governed by MIT license that can be
 * found in the LICENSE.txt file.
 */

  .globl pango_glyph_item_iter_init_start
  .p2align 4
  .type pango_glyph_item_iter_init_start, %function
#ifndef IMPLIB_EXPORT_SHIMS
  .hidden pango_glyph_item_iter_init_start
#endif
pango_glyph_item_iter_init_start:
  .cfi_startproc

1:
  // Load address
  // TODO: can we do this faster on newer ARMs?
  ldr ip, 3f
2:
  add ip, pc, ip
  ldr ip, [ip]

  cmp ip, #0

  // Fast path
  bxne ip

  // Slow path
  ldr ip, =252
  push {ip}
  .cfi_adjust_cfa_offset 4
  PUSH_REG(lr)
  bl _libpango_1_0_so_save_regs_and_resolve
  POP_REG(lr)
  add sp, #4
  .cfi_adjust_cfa_offset -4
  bx ip

  // Force constant pool for ldr above
  .ltorg

  .cfi_endproc

3:
  .word _libpango_1_0_so_tramp_table - (2b + 8) + 1008

/*
 * Copyright 2018-2025 Yury Gribov
 *
 * The MIT License (MIT)
 *
 * Use of this source code is governed by MIT license that can be
 * found in the LICENSE.txt file.
 */

  .globl pango_glyph_item_iter_next_cluster
  .p2align 4
  .type pango_glyph_item_iter_next_cluster, %function
#ifndef IMPLIB_EXPORT_SHIMS
  .hidden pango_glyph_item_iter_next_cluster
#endif
pango_glyph_item_iter_next_cluster:
  .cfi_startproc

1:
  // Load address
  // TODO: can we do this faster on newer ARMs?
  ldr ip, 3f
2:
  add ip, pc, ip
  ldr ip, [ip]

  cmp ip, #0

  // Fast path
  bxne ip

  // Slow path
  ldr ip, =253
  push {ip}
  .cfi_adjust_cfa_offset 4
  PUSH_REG(lr)
  bl _libpango_1_0_so_save_regs_and_resolve
  POP_REG(lr)
  add sp, #4
  .cfi_adjust_cfa_offset -4
  bx ip

  // Force constant pool for ldr above
  .ltorg

  .cfi_endproc

3:
  .word _libpango_1_0_so_tramp_table - (2b + 8) + 1012

/*
 * Copyright 2018-2025 Yury Gribov
 *
 * The MIT License (MIT)
 *
 * Use of this source code is governed by MIT license that can be
 * found in the LICENSE.txt file.
 */

  .globl pango_glyph_item_iter_prev_cluster
  .p2align 4
  .type pango_glyph_item_iter_prev_cluster, %function
#ifndef IMPLIB_EXPORT_SHIMS
  .hidden pango_glyph_item_iter_prev_cluster
#endif
pango_glyph_item_iter_prev_cluster:
  .cfi_startproc

1:
  // Load address
  // TODO: can we do this faster on newer ARMs?
  ldr ip, 3f
2:
  add ip, pc, ip
  ldr ip, [ip]

  cmp ip, #0

  // Fast path
  bxne ip

  // Slow path
  ldr ip, =254
  push {ip}
  .cfi_adjust_cfa_offset 4
  PUSH_REG(lr)
  bl _libpango_1_0_so_save_regs_and_resolve
  POP_REG(lr)
  add sp, #4
  .cfi_adjust_cfa_offset -4
  bx ip

  // Force constant pool for ldr above
  .ltorg

  .cfi_endproc

3:
  .word _libpango_1_0_so_tramp_table - (2b + 8) + 1016

/*
 * Copyright 2018-2025 Yury Gribov
 *
 * The MIT License (MIT)
 *
 * Use of this source code is governed by MIT license that can be
 * found in the LICENSE.txt file.
 */

  .globl pango_glyph_item_letter_space
  .p2align 4
  .type pango_glyph_item_letter_space, %function
#ifndef IMPLIB_EXPORT_SHIMS
  .hidden pango_glyph_item_letter_space
#endif
pango_glyph_item_letter_space:
  .cfi_startproc

1:
  // Load address
  // TODO: can we do this faster on newer ARMs?
  ldr ip, 3f
2:
  add ip, pc, ip
  ldr ip, [ip]

  cmp ip, #0

  // Fast path
  bxne ip

  // Slow path
  ldr ip, =255
  push {ip}
  .cfi_adjust_cfa_offset 4
  PUSH_REG(lr)
  bl _libpango_1_0_so_save_regs_and_resolve
  POP_REG(lr)
  add sp, #4
  .cfi_adjust_cfa_offset -4
  bx ip

  // Force constant pool for ldr above
  .ltorg

  .cfi_endproc

3:
  .word _libpango_1_0_so_tramp_table - (2b + 8) + 1020

/*
 * Copyright 2018-2025 Yury Gribov
 *
 * The MIT License (MIT)
 *
 * Use of this source code is governed by MIT license that can be
 * found in the LICENSE.txt file.
 */

  .globl pango_glyph_item_split
  .p2align 4
  .type pango_glyph_item_split, %function
#ifndef IMPLIB_EXPORT_SHIMS
  .hidden pango_glyph_item_split
#endif
pango_glyph_item_split:
  .cfi_startproc

1:
  // Load address
  // TODO: can we do this faster on newer ARMs?
  ldr ip, 3f
2:
  add ip, pc, ip
  ldr ip, [ip]

  cmp ip, #0

  // Fast path
  bxne ip

  // Slow path
  ldr ip, =256
  push {ip}
  .cfi_adjust_cfa_offset 4
  PUSH_REG(lr)
  bl _libpango_1_0_so_save_regs_and_resolve
  POP_REG(lr)
  add sp, #4
  .cfi_adjust_cfa_offset -4
  bx ip

  // Force constant pool for ldr above
  .ltorg

  .cfi_endproc

3:
  .word _libpango_1_0_so_tramp_table - (2b + 8) + 1024

/*
 * Copyright 2018-2025 Yury Gribov
 *
 * The MIT License (MIT)
 *
 * Use of this source code is governed by MIT license that can be
 * found in the LICENSE.txt file.
 */

  .globl pango_glyph_string_copy
  .p2align 4
  .type pango_glyph_string_copy, %function
#ifndef IMPLIB_EXPORT_SHIMS
  .hidden pango_glyph_string_copy
#endif
pango_glyph_string_copy:
  .cfi_startproc

1:
  // Load address
  // TODO: can we do this faster on newer ARMs?
  ldr ip, 3f
2:
  add ip, pc, ip
  ldr ip, [ip]

  cmp ip, #0

  // Fast path
  bxne ip

  // Slow path
  ldr ip, =257
  push {ip}
  .cfi_adjust_cfa_offset 4
  PUSH_REG(lr)
  bl _libpango_1_0_so_save_regs_and_resolve
  POP_REG(lr)
  add sp, #4
  .cfi_adjust_cfa_offset -4
  bx ip

  // Force constant pool for ldr above
  .ltorg

  .cfi_endproc

3:
  .word _libpango_1_0_so_tramp_table - (2b + 8) + 1028

/*
 * Copyright 2018-2025 Yury Gribov
 *
 * The MIT License (MIT)
 *
 * Use of this source code is governed by MIT license that can be
 * found in the LICENSE.txt file.
 */

  .globl pango_glyph_string_extents
  .p2align 4
  .type pango_glyph_string_extents, %function
#ifndef IMPLIB_EXPORT_SHIMS
  .hidden pango_glyph_string_extents
#endif
pango_glyph_string_extents:
  .cfi_startproc

1:
  // Load address
  // TODO: can we do this faster on newer ARMs?
  ldr ip, 3f
2:
  add ip, pc, ip
  ldr ip, [ip]

  cmp ip, #0

  // Fast path
  bxne ip

  // Slow path
  ldr ip, =258
  push {ip}
  .cfi_adjust_cfa_offset 4
  PUSH_REG(lr)
  bl _libpango_1_0_so_save_regs_and_resolve
  POP_REG(lr)
  add sp, #4
  .cfi_adjust_cfa_offset -4
  bx ip

  // Force constant pool for ldr above
  .ltorg

  .cfi_endproc

3:
  .word _libpango_1_0_so_tramp_table - (2b + 8) + 1032

/*
 * Copyright 2018-2025 Yury Gribov
 *
 * The MIT License (MIT)
 *
 * Use of this source code is governed by MIT license that can be
 * found in the LICENSE.txt file.
 */

  .globl pango_glyph_string_extents_range
  .p2align 4
  .type pango_glyph_string_extents_range, %function
#ifndef IMPLIB_EXPORT_SHIMS
  .hidden pango_glyph_string_extents_range
#endif
pango_glyph_string_extents_range:
  .cfi_startproc

1:
  // Load address
  // TODO: can we do this faster on newer ARMs?
  ldr ip, 3f
2:
  add ip, pc, ip
  ldr ip, [ip]

  cmp ip, #0

  // Fast path
  bxne ip

  // Slow path
  ldr ip, =259
  push {ip}
  .cfi_adjust_cfa_offset 4
  PUSH_REG(lr)
  bl _libpango_1_0_so_save_regs_and_resolve
  POP_REG(lr)
  add sp, #4
  .cfi_adjust_cfa_offset -4
  bx ip

  // Force constant pool for ldr above
  .ltorg

  .cfi_endproc

3:
  .word _libpango_1_0_so_tramp_table - (2b + 8) + 1036

/*
 * Copyright 2018-2025 Yury Gribov
 *
 * The MIT License (MIT)
 *
 * Use of this source code is governed by MIT license that can be
 * found in the LICENSE.txt file.
 */

  .globl pango_glyph_string_free
  .p2align 4
  .type pango_glyph_string_free, %function
#ifndef IMPLIB_EXPORT_SHIMS
  .hidden pango_glyph_string_free
#endif
pango_glyph_string_free:
  .cfi_startproc

1:
  // Load address
  // TODO: can we do this faster on newer ARMs?
  ldr ip, 3f
2:
  add ip, pc, ip
  ldr ip, [ip]

  cmp ip, #0

  // Fast path
  bxne ip

  // Slow path
  ldr ip, =260
  push {ip}
  .cfi_adjust_cfa_offset 4
  PUSH_REG(lr)
  bl _libpango_1_0_so_save_regs_and_resolve
  POP_REG(lr)
  add sp, #4
  .cfi_adjust_cfa_offset -4
  bx ip

  // Force constant pool for ldr above
  .ltorg

  .cfi_endproc

3:
  .word _libpango_1_0_so_tramp_table - (2b + 8) + 1040

/*
 * Copyright 2018-2025 Yury Gribov
 *
 * The MIT License (MIT)
 *
 * Use of this source code is governed by MIT license that can be
 * found in the LICENSE.txt file.
 */

  .globl pango_glyph_string_get_logical_widths
  .p2align 4
  .type pango_glyph_string_get_logical_widths, %function
#ifndef IMPLIB_EXPORT_SHIMS
  .hidden pango_glyph_string_get_logical_widths
#endif
pango_glyph_string_get_logical_widths:
  .cfi_startproc

1:
  // Load address
  // TODO: can we do this faster on newer ARMs?
  ldr ip, 3f
2:
  add ip, pc, ip
  ldr ip, [ip]

  cmp ip, #0

  // Fast path
  bxne ip

  // Slow path
  ldr ip, =261
  push {ip}
  .cfi_adjust_cfa_offset 4
  PUSH_REG(lr)
  bl _libpango_1_0_so_save_regs_and_resolve
  POP_REG(lr)
  add sp, #4
  .cfi_adjust_cfa_offset -4
  bx ip

  // Force constant pool for ldr above
  .ltorg

  .cfi_endproc

3:
  .word _libpango_1_0_so_tramp_table - (2b + 8) + 1044

/*
 * Copyright 2018-2025 Yury Gribov
 *
 * The MIT License (MIT)
 *
 * Use of this source code is governed by MIT license that can be
 * found in the LICENSE.txt file.
 */

  .globl pango_glyph_string_get_type
  .p2align 4
  .type pango_glyph_string_get_type, %function
#ifndef IMPLIB_EXPORT_SHIMS
  .hidden pango_glyph_string_get_type
#endif
pango_glyph_string_get_type:
  .cfi_startproc

1:
  // Load address
  // TODO: can we do this faster on newer ARMs?
  ldr ip, 3f
2:
  add ip, pc, ip
  ldr ip, [ip]

  cmp ip, #0

  // Fast path
  bxne ip

  // Slow path
  ldr ip, =262
  push {ip}
  .cfi_adjust_cfa_offset 4
  PUSH_REG(lr)
  bl _libpango_1_0_so_save_regs_and_resolve
  POP_REG(lr)
  add sp, #4
  .cfi_adjust_cfa_offset -4
  bx ip

  // Force constant pool for ldr above
  .ltorg

  .cfi_endproc

3:
  .word _libpango_1_0_so_tramp_table - (2b + 8) + 1048

/*
 * Copyright 2018-2025 Yury Gribov
 *
 * The MIT License (MIT)
 *
 * Use of this source code is governed by MIT license that can be
 * found in the LICENSE.txt file.
 */

  .globl pango_glyph_string_get_width
  .p2align 4
  .type pango_glyph_string_get_width, %function
#ifndef IMPLIB_EXPORT_SHIMS
  .hidden pango_glyph_string_get_width
#endif
pango_glyph_string_get_width:
  .cfi_startproc

1:
  // Load address
  // TODO: can we do this faster on newer ARMs?
  ldr ip, 3f
2:
  add ip, pc, ip
  ldr ip, [ip]

  cmp ip, #0

  // Fast path
  bxne ip

  // Slow path
  ldr ip, =263
  push {ip}
  .cfi_adjust_cfa_offset 4
  PUSH_REG(lr)
  bl _libpango_1_0_so_save_regs_and_resolve
  POP_REG(lr)
  add sp, #4
  .cfi_adjust_cfa_offset -4
  bx ip

  // Force constant pool for ldr above
  .ltorg

  .cfi_endproc

3:
  .word _libpango_1_0_so_tramp_table - (2b + 8) + 1052

/*
 * Copyright 2018-2025 Yury Gribov
 *
 * The MIT License (MIT)
 *
 * Use of this source code is governed by MIT license that can be
 * found in the LICENSE.txt file.
 */

  .globl pango_glyph_string_index_to_x
  .p2align 4
  .type pango_glyph_string_index_to_x, %function
#ifndef IMPLIB_EXPORT_SHIMS
  .hidden pango_glyph_string_index_to_x
#endif
pango_glyph_string_index_to_x:
  .cfi_startproc

1:
  // Load address
  // TODO: can we do this faster on newer ARMs?
  ldr ip, 3f
2:
  add ip, pc, ip
  ldr ip, [ip]

  cmp ip, #0

  // Fast path
  bxne ip

  // Slow path
  ldr ip, =264
  push {ip}
  .cfi_adjust_cfa_offset 4
  PUSH_REG(lr)
  bl _libpango_1_0_so_save_regs_and_resolve
  POP_REG(lr)
  add sp, #4
  .cfi_adjust_cfa_offset -4
  bx ip

  // Force constant pool for ldr above
  .ltorg

  .cfi_endproc

3:
  .word _libpango_1_0_so_tramp_table - (2b + 8) + 1056

/*
 * Copyright 2018-2025 Yury Gribov
 *
 * The MIT License (MIT)
 *
 * Use of this source code is governed by MIT license that can be
 * found in the LICENSE.txt file.
 */

  .globl pango_glyph_string_index_to_x_full
  .p2align 4
  .type pango_glyph_string_index_to_x_full, %function
#ifndef IMPLIB_EXPORT_SHIMS
  .hidden pango_glyph_string_index_to_x_full
#endif
pango_glyph_string_index_to_x_full:
  .cfi_startproc

1:
  // Load address
  // TODO: can we do this faster on newer ARMs?
  ldr ip, 3f
2:
  add ip, pc, ip
  ldr ip, [ip]

  cmp ip, #0

  // Fast path
  bxne ip

  // Slow path
  ldr ip, =265
  push {ip}
  .cfi_adjust_cfa_offset 4
  PUSH_REG(lr)
  bl _libpango_1_0_so_save_regs_and_resolve
  POP_REG(lr)
  add sp, #4
  .cfi_adjust_cfa_offset -4
  bx ip

  // Force constant pool for ldr above
  .ltorg

  .cfi_endproc

3:
  .word _libpango_1_0_so_tramp_table - (2b + 8) + 1060

/*
 * Copyright 2018-2025 Yury Gribov
 *
 * The MIT License (MIT)
 *
 * Use of this source code is governed by MIT license that can be
 * found in the LICENSE.txt file.
 */

  .globl pango_glyph_string_new
  .p2align 4
  .type pango_glyph_string_new, %function
#ifndef IMPLIB_EXPORT_SHIMS
  .hidden pango_glyph_string_new
#endif
pango_glyph_string_new:
  .cfi_startproc

1:
  // Load address
  // TODO: can we do this faster on newer ARMs?
  ldr ip, 3f
2:
  add ip, pc, ip
  ldr ip, [ip]

  cmp ip, #0

  // Fast path
  bxne ip

  // Slow path
  ldr ip, =266
  push {ip}
  .cfi_adjust_cfa_offset 4
  PUSH_REG(lr)
  bl _libpango_1_0_so_save_regs_and_resolve
  POP_REG(lr)
  add sp, #4
  .cfi_adjust_cfa_offset -4
  bx ip

  // Force constant pool for ldr above
  .ltorg

  .cfi_endproc

3:
  .word _libpango_1_0_so_tramp_table - (2b + 8) + 1064

/*
 * Copyright 2018-2025 Yury Gribov
 *
 * The MIT License (MIT)
 *
 * Use of this source code is governed by MIT license that can be
 * found in the LICENSE.txt file.
 */

  .globl pango_glyph_string_set_size
  .p2align 4
  .type pango_glyph_string_set_size, %function
#ifndef IMPLIB_EXPORT_SHIMS
  .hidden pango_glyph_string_set_size
#endif
pango_glyph_string_set_size:
  .cfi_startproc

1:
  // Load address
  // TODO: can we do this faster on newer ARMs?
  ldr ip, 3f
2:
  add ip, pc, ip
  ldr ip, [ip]

  cmp ip, #0

  // Fast path
  bxne ip

  // Slow path
  ldr ip, =267
  push {ip}
  .cfi_adjust_cfa_offset 4
  PUSH_REG(lr)
  bl _libpango_1_0_so_save_regs_and_resolve
  POP_REG(lr)
  add sp, #4
  .cfi_adjust_cfa_offset -4
  bx ip

  // Force constant pool for ldr above
  .ltorg

  .cfi_endproc

3:
  .word _libpango_1_0_so_tramp_table - (2b + 8) + 1068

/*
 * Copyright 2018-2025 Yury Gribov
 *
 * The MIT License (MIT)
 *
 * Use of this source code is governed by MIT license that can be
 * found in the LICENSE.txt file.
 */

  .globl pango_glyph_string_x_to_index
  .p2align 4
  .type pango_glyph_string_x_to_index, %function
#ifndef IMPLIB_EXPORT_SHIMS
  .hidden pango_glyph_string_x_to_index
#endif
pango_glyph_string_x_to_index:
  .cfi_startproc

1:
  // Load address
  // TODO: can we do this faster on newer ARMs?
  ldr ip, 3f
2:
  add ip, pc, ip
  ldr ip, [ip]

  cmp ip, #0

  // Fast path
  bxne ip

  // Slow path
  ldr ip, =268
  push {ip}
  .cfi_adjust_cfa_offset 4
  PUSH_REG(lr)
  bl _libpango_1_0_so_save_regs_and_resolve
  POP_REG(lr)
  add sp, #4
  .cfi_adjust_cfa_offset -4
  bx ip

  // Force constant pool for ldr above
  .ltorg

  .cfi_endproc

3:
  .word _libpango_1_0_so_tramp_table - (2b + 8) + 1072

/*
 * Copyright 2018-2025 Yury Gribov
 *
 * The MIT License (MIT)
 *
 * Use of this source code is governed by MIT license that can be
 * found in the LICENSE.txt file.
 */

  .globl pango_gravity_get_for_matrix
  .p2align 4
  .type pango_gravity_get_for_matrix, %function
#ifndef IMPLIB_EXPORT_SHIMS
  .hidden pango_gravity_get_for_matrix
#endif
pango_gravity_get_for_matrix:
  .cfi_startproc

1:
  // Load address
  // TODO: can we do this faster on newer ARMs?
  ldr ip, 3f
2:
  add ip, pc, ip
  ldr ip, [ip]

  cmp ip, #0

  // Fast path
  bxne ip

  // Slow path
  ldr ip, =269
  push {ip}
  .cfi_adjust_cfa_offset 4
  PUSH_REG(lr)
  bl _libpango_1_0_so_save_regs_and_resolve
  POP_REG(lr)
  add sp, #4
  .cfi_adjust_cfa_offset -4
  bx ip

  // Force constant pool for ldr above
  .ltorg

  .cfi_endproc

3:
  .word _libpango_1_0_so_tramp_table - (2b + 8) + 1076

/*
 * Copyright 2018-2025 Yury Gribov
 *
 * The MIT License (MIT)
 *
 * Use of this source code is governed by MIT license that can be
 * found in the LICENSE.txt file.
 */

  .globl pango_gravity_get_for_script
  .p2align 4
  .type pango_gravity_get_for_script, %function
#ifndef IMPLIB_EXPORT_SHIMS
  .hidden pango_gravity_get_for_script
#endif
pango_gravity_get_for_script:
  .cfi_startproc

1:
  // Load address
  // TODO: can we do this faster on newer ARMs?
  ldr ip, 3f
2:
  add ip, pc, ip
  ldr ip, [ip]

  cmp ip, #0

  // Fast path
  bxne ip

  // Slow path
  ldr ip, =270
  push {ip}
  .cfi_adjust_cfa_offset 4
  PUSH_REG(lr)
  bl _libpango_1_0_so_save_regs_and_resolve
  POP_REG(lr)
  add sp, #4
  .cfi_adjust_cfa_offset -4
  bx ip

  // Force constant pool for ldr above
  .ltorg

  .cfi_endproc

3:
  .word _libpango_1_0_so_tramp_table - (2b + 8) + 1080

/*
 * Copyright 2018-2025 Yury Gribov
 *
 * The MIT License (MIT)
 *
 * Use of this source code is governed by MIT license that can be
 * found in the LICENSE.txt file.
 */

  .globl pango_gravity_get_for_script_and_width
  .p2align 4
  .type pango_gravity_get_for_script_and_width, %function
#ifndef IMPLIB_EXPORT_SHIMS
  .hidden pango_gravity_get_for_script_and_width
#endif
pango_gravity_get_for_script_and_width:
  .cfi_startproc

1:
  // Load address
  // TODO: can we do this faster on newer ARMs?
  ldr ip, 3f
2:
  add ip, pc, ip
  ldr ip, [ip]

  cmp ip, #0

  // Fast path
  bxne ip

  // Slow path
  ldr ip, =271
  push {ip}
  .cfi_adjust_cfa_offset 4
  PUSH_REG(lr)
  bl _libpango_1_0_so_save_regs_and_resolve
  POP_REG(lr)
  add sp, #4
  .cfi_adjust_cfa_offset -4
  bx ip

  // Force constant pool for ldr above
  .ltorg

  .cfi_endproc

3:
  .word _libpango_1_0_so_tramp_table - (2b + 8) + 1084

/*
 * Copyright 2018-2025 Yury Gribov
 *
 * The MIT License (MIT)
 *
 * Use of this source code is governed by MIT license that can be
 * found in the LICENSE.txt file.
 */

  .globl pango_gravity_get_type
  .p2align 4
  .type pango_gravity_get_type, %function
#ifndef IMPLIB_EXPORT_SHIMS
  .hidden pango_gravity_get_type
#endif
pango_gravity_get_type:
  .cfi_startproc

1:
  // Load address
  // TODO: can we do this faster on newer ARMs?
  ldr ip, 3f
2:
  add ip, pc, ip
  ldr ip, [ip]

  cmp ip, #0

  // Fast path
  bxne ip

  // Slow path
  ldr ip, =272
  push {ip}
  .cfi_adjust_cfa_offset 4
  PUSH_REG(lr)
  bl _libpango_1_0_so_save_regs_and_resolve
  POP_REG(lr)
  add sp, #4
  .cfi_adjust_cfa_offset -4
  bx ip

  // Force constant pool for ldr above
  .ltorg

  .cfi_endproc

3:
  .word _libpango_1_0_so_tramp_table - (2b + 8) + 1088

/*
 * Copyright 2018-2025 Yury Gribov
 *
 * The MIT License (MIT)
 *
 * Use of this source code is governed by MIT license that can be
 * found in the LICENSE.txt file.
 */

  .globl pango_gravity_hint_get_type
  .p2align 4
  .type pango_gravity_hint_get_type, %function
#ifndef IMPLIB_EXPORT_SHIMS
  .hidden pango_gravity_hint_get_type
#endif
pango_gravity_hint_get_type:
  .cfi_startproc

1:
  // Load address
  // TODO: can we do this faster on newer ARMs?
  ldr ip, 3f
2:
  add ip, pc, ip
  ldr ip, [ip]

  cmp ip, #0

  // Fast path
  bxne ip

  // Slow path
  ldr ip, =273
  push {ip}
  .cfi_adjust_cfa_offset 4
  PUSH_REG(lr)
  bl _libpango_1_0_so_save_regs_and_resolve
  POP_REG(lr)
  add sp, #4
  .cfi_adjust_cfa_offset -4
  bx ip

  // Force constant pool for ldr above
  .ltorg

  .cfi_endproc

3:
  .word _libpango_1_0_so_tramp_table - (2b + 8) + 1092

/*
 * Copyright 2018-2025 Yury Gribov
 *
 * The MIT License (MIT)
 *
 * Use of this source code is governed by MIT license that can be
 * found in the LICENSE.txt file.
 */

  .globl pango_gravity_to_rotation
  .p2align 4
  .type pango_gravity_to_rotation, %function
#ifndef IMPLIB_EXPORT_SHIMS
  .hidden pango_gravity_to_rotation
#endif
pango_gravity_to_rotation:
  .cfi_startproc

1:
  // Load address
  // TODO: can we do this faster on newer ARMs?
  ldr ip, 3f
2:
  add ip, pc, ip
  ldr ip, [ip]

  cmp ip, #0

  // Fast path
  bxne ip

  // Slow path
  ldr ip, =274
  push {ip}
  .cfi_adjust_cfa_offset 4
  PUSH_REG(lr)
  bl _libpango_1_0_so_save_regs_and_resolve
  POP_REG(lr)
  add sp, #4
  .cfi_adjust_cfa_offset -4
  bx ip

  // Force constant pool for ldr above
  .ltorg

  .cfi_endproc

3:
  .word _libpango_1_0_so_tramp_table - (2b + 8) + 1096

/*
 * Copyright 2018-2025 Yury Gribov
 *
 * The MIT License (MIT)
 *
 * Use of this source code is governed by MIT license that can be
 * found in the LICENSE.txt file.
 */

  .globl pango_is_zero_width
  .p2align 4
  .type pango_is_zero_width, %function
#ifndef IMPLIB_EXPORT_SHIMS
  .hidden pango_is_zero_width
#endif
pango_is_zero_width:
  .cfi_startproc

1:
  // Load address
  // TODO: can we do this faster on newer ARMs?
  ldr ip, 3f
2:
  add ip, pc, ip
  ldr ip, [ip]

  cmp ip, #0

  // Fast path
  bxne ip

  // Slow path
  ldr ip, =275
  push {ip}
  .cfi_adjust_cfa_offset 4
  PUSH_REG(lr)
  bl _libpango_1_0_so_save_regs_and_resolve
  POP_REG(lr)
  add sp, #4
  .cfi_adjust_cfa_offset -4
  bx ip

  // Force constant pool for ldr above
  .ltorg

  .cfi_endproc

3:
  .word _libpango_1_0_so_tramp_table - (2b + 8) + 1100

/*
 * Copyright 2018-2025 Yury Gribov
 *
 * The MIT License (MIT)
 *
 * Use of this source code is governed by MIT license that can be
 * found in the LICENSE.txt file.
 */

  .globl pango_item_apply_attrs
  .p2align 4
  .type pango_item_apply_attrs, %function
#ifndef IMPLIB_EXPORT_SHIMS
  .hidden pango_item_apply_attrs
#endif
pango_item_apply_attrs:
  .cfi_startproc

1:
  // Load address
  // TODO: can we do this faster on newer ARMs?
  ldr ip, 3f
2:
  add ip, pc, ip
  ldr ip, [ip]

  cmp ip, #0

  // Fast path
  bxne ip

  // Slow path
  ldr ip, =276
  push {ip}
  .cfi_adjust_cfa_offset 4
  PUSH_REG(lr)
  bl _libpango_1_0_so_save_regs_and_resolve
  POP_REG(lr)
  add sp, #4
  .cfi_adjust_cfa_offset -4
  bx ip

  // Force constant pool for ldr above
  .ltorg

  .cfi_endproc

3:
  .word _libpango_1_0_so_tramp_table - (2b + 8) + 1104

/*
 * Copyright 2018-2025 Yury Gribov
 *
 * The MIT License (MIT)
 *
 * Use of this source code is governed by MIT license that can be
 * found in the LICENSE.txt file.
 */

  .globl pango_item_copy
  .p2align 4
  .type pango_item_copy, %function
#ifndef IMPLIB_EXPORT_SHIMS
  .hidden pango_item_copy
#endif
pango_item_copy:
  .cfi_startproc

1:
  // Load address
  // TODO: can we do this faster on newer ARMs?
  ldr ip, 3f
2:
  add ip, pc, ip
  ldr ip, [ip]

  cmp ip, #0

  // Fast path
  bxne ip

  // Slow path
  ldr ip, =277
  push {ip}
  .cfi_adjust_cfa_offset 4
  PUSH_REG(lr)
  bl _libpango_1_0_so_save_regs_and_resolve
  POP_REG(lr)
  add sp, #4
  .cfi_adjust_cfa_offset -4
  bx ip

  // Force constant pool for ldr above
  .ltorg

  .cfi_endproc

3:
  .word _libpango_1_0_so_tramp_table - (2b + 8) + 1108

/*
 * Copyright 2018-2025 Yury Gribov
 *
 * The MIT License (MIT)
 *
 * Use of this source code is governed by MIT license that can be
 * found in the LICENSE.txt file.
 */

  .globl pango_item_free
  .p2align 4
  .type pango_item_free, %function
#ifndef IMPLIB_EXPORT_SHIMS
  .hidden pango_item_free
#endif
pango_item_free:
  .cfi_startproc

1:
  // Load address
  // TODO: can we do this faster on newer ARMs?
  ldr ip, 3f
2:
  add ip, pc, ip
  ldr ip, [ip]

  cmp ip, #0

  // Fast path
  bxne ip

  // Slow path
  ldr ip, =278
  push {ip}
  .cfi_adjust_cfa_offset 4
  PUSH_REG(lr)
  bl _libpango_1_0_so_save_regs_and_resolve
  POP_REG(lr)
  add sp, #4
  .cfi_adjust_cfa_offset -4
  bx ip

  // Force constant pool for ldr above
  .ltorg

  .cfi_endproc

3:
  .word _libpango_1_0_so_tramp_table - (2b + 8) + 1112

/*
 * Copyright 2018-2025 Yury Gribov
 *
 * The MIT License (MIT)
 *
 * Use of this source code is governed by MIT license that can be
 * found in the LICENSE.txt file.
 */

  .globl pango_item_get_char_offset
  .p2align 4
  .type pango_item_get_char_offset, %function
#ifndef IMPLIB_EXPORT_SHIMS
  .hidden pango_item_get_char_offset
#endif
pango_item_get_char_offset:
  .cfi_startproc

1:
  // Load address
  // TODO: can we do this faster on newer ARMs?
  ldr ip, 3f
2:
  add ip, pc, ip
  ldr ip, [ip]

  cmp ip, #0

  // Fast path
  bxne ip

  // Slow path
  ldr ip, =279
  push {ip}
  .cfi_adjust_cfa_offset 4
  PUSH_REG(lr)
  bl _libpango_1_0_so_save_regs_and_resolve
  POP_REG(lr)
  add sp, #4
  .cfi_adjust_cfa_offset -4
  bx ip

  // Force constant pool for ldr above
  .ltorg

  .cfi_endproc

3:
  .word _libpango_1_0_so_tramp_table - (2b + 8) + 1116

/*
 * Copyright 2018-2025 Yury Gribov
 *
 * The MIT License (MIT)
 *
 * Use of this source code is governed by MIT license that can be
 * found in the LICENSE.txt file.
 */

  .globl pango_item_get_type
  .p2align 4
  .type pango_item_get_type, %function
#ifndef IMPLIB_EXPORT_SHIMS
  .hidden pango_item_get_type
#endif
pango_item_get_type:
  .cfi_startproc

1:
  // Load address
  // TODO: can we do this faster on newer ARMs?
  ldr ip, 3f
2:
  add ip, pc, ip
  ldr ip, [ip]

  cmp ip, #0

  // Fast path
  bxne ip

  // Slow path
  ldr ip, =280
  push {ip}
  .cfi_adjust_cfa_offset 4
  PUSH_REG(lr)
  bl _libpango_1_0_so_save_regs_and_resolve
  POP_REG(lr)
  add sp, #4
  .cfi_adjust_cfa_offset -4
  bx ip

  // Force constant pool for ldr above
  .ltorg

  .cfi_endproc

3:
  .word _libpango_1_0_so_tramp_table - (2b + 8) + 1120

/*
 * Copyright 2018-2025 Yury Gribov
 *
 * The MIT License (MIT)
 *
 * Use of this source code is governed by MIT license that can be
 * found in the LICENSE.txt file.
 */

  .globl pango_item_new
  .p2align 4
  .type pango_item_new, %function
#ifndef IMPLIB_EXPORT_SHIMS
  .hidden pango_item_new
#endif
pango_item_new:
  .cfi_startproc

1:
  // Load address
  // TODO: can we do this faster on newer ARMs?
  ldr ip, 3f
2:
  add ip, pc, ip
  ldr ip, [ip]

  cmp ip, #0

  // Fast path
  bxne ip

  // Slow path
  ldr ip, =281
  push {ip}
  .cfi_adjust_cfa_offset 4
  PUSH_REG(lr)
  bl _libpango_1_0_so_save_regs_and_resolve
  POP_REG(lr)
  add sp, #4
  .cfi_adjust_cfa_offset -4
  bx ip

  // Force constant pool for ldr above
  .ltorg

  .cfi_endproc

3:
  .word _libpango_1_0_so_tramp_table - (2b + 8) + 1124

/*
 * Copyright 2018-2025 Yury Gribov
 *
 * The MIT License (MIT)
 *
 * Use of this source code is governed by MIT license that can be
 * found in the LICENSE.txt file.
 */

  .globl pango_item_split
  .p2align 4
  .type pango_item_split, %function
#ifndef IMPLIB_EXPORT_SHIMS
  .hidden pango_item_split
#endif
pango_item_split:
  .cfi_startproc

1:
  // Load address
  // TODO: can we do this faster on newer ARMs?
  ldr ip, 3f
2:
  add ip, pc, ip
  ldr ip, [ip]

  cmp ip, #0

  // Fast path
  bxne ip

  // Slow path
  ldr ip, =282
  push {ip}
  .cfi_adjust_cfa_offset 4
  PUSH_REG(lr)
  bl _libpango_1_0_so_save_regs_and_resolve
  POP_REG(lr)
  add sp, #4
  .cfi_adjust_cfa_offset -4
  bx ip

  // Force constant pool for ldr above
  .ltorg

  .cfi_endproc

3:
  .word _libpango_1_0_so_tramp_table - (2b + 8) + 1128

/*
 * Copyright 2018-2025 Yury Gribov
 *
 * The MIT License (MIT)
 *
 * Use of this source code is governed by MIT license that can be
 * found in the LICENSE.txt file.
 */

  .globl pango_itemize
  .p2align 4
  .type pango_itemize, %function
#ifndef IMPLIB_EXPORT_SHIMS
  .hidden pango_itemize
#endif
pango_itemize:
  .cfi_startproc

1:
  // Load address
  // TODO: can we do this faster on newer ARMs?
  ldr ip, 3f
2:
  add ip, pc, ip
  ldr ip, [ip]

  cmp ip, #0

  // Fast path
  bxne ip

  // Slow path
  ldr ip, =283
  push {ip}
  .cfi_adjust_cfa_offset 4
  PUSH_REG(lr)
  bl _libpango_1_0_so_save_regs_and_resolve
  POP_REG(lr)
  add sp, #4
  .cfi_adjust_cfa_offset -4
  bx ip

  // Force constant pool for ldr above
  .ltorg

  .cfi_endproc

3:
  .word _libpango_1_0_so_tramp_table - (2b + 8) + 1132

/*
 * Copyright 2018-2025 Yury Gribov
 *
 * The MIT License (MIT)
 *
 * Use of this source code is governed by MIT license that can be
 * found in the LICENSE.txt file.
 */

  .globl pango_itemize_with_base_dir
  .p2align 4
  .type pango_itemize_with_base_dir, %function
#ifndef IMPLIB_EXPORT_SHIMS
  .hidden pango_itemize_with_base_dir
#endif
pango_itemize_with_base_dir:
  .cfi_startproc

1:
  // Load address
  // TODO: can we do this faster on newer ARMs?
  ldr ip, 3f
2:
  add ip, pc, ip
  ldr ip, [ip]

  cmp ip, #0

  // Fast path
  bxne ip

  // Slow path
  ldr ip, =284
  push {ip}
  .cfi_adjust_cfa_offset 4
  PUSH_REG(lr)
  bl _libpango_1_0_so_save_regs_and_resolve
  POP_REG(lr)
  add sp, #4
  .cfi_adjust_cfa_offset -4
  bx ip

  // Force constant pool for ldr above
  .ltorg

  .cfi_endproc

3:
  .word _libpango_1_0_so_tramp_table - (2b + 8) + 1136

/*
 * Copyright 2018-2025 Yury Gribov
 *
 * The MIT License (MIT)
 *
 * Use of this source code is governed by MIT license that can be
 * found in the LICENSE.txt file.
 */

  .globl pango_language_from_string
  .p2align 4
  .type pango_language_from_string, %function
#ifndef IMPLIB_EXPORT_SHIMS
  .hidden pango_language_from_string
#endif
pango_language_from_string:
  .cfi_startproc

1:
  // Load address
  // TODO: can we do this faster on newer ARMs?
  ldr ip, 3f
2:
  add ip, pc, ip
  ldr ip, [ip]

  cmp ip, #0

  // Fast path
  bxne ip

  // Slow path
  ldr ip, =285
  push {ip}
  .cfi_adjust_cfa_offset 4
  PUSH_REG(lr)
  bl _libpango_1_0_so_save_regs_and_resolve
  POP_REG(lr)
  add sp, #4
  .cfi_adjust_cfa_offset -4
  bx ip

  // Force constant pool for ldr above
  .ltorg

  .cfi_endproc

3:
  .word _libpango_1_0_so_tramp_table - (2b + 8) + 1140

/*
 * Copyright 2018-2025 Yury Gribov
 *
 * The MIT License (MIT)
 *
 * Use of this source code is governed by MIT license that can be
 * found in the LICENSE.txt file.
 */

  .globl pango_language_get_default
  .p2align 4
  .type pango_language_get_default, %function
#ifndef IMPLIB_EXPORT_SHIMS
  .hidden pango_language_get_default
#endif
pango_language_get_default:
  .cfi_startproc

1:
  // Load address
  // TODO: can we do this faster on newer ARMs?
  ldr ip, 3f
2:
  add ip, pc, ip
  ldr ip, [ip]

  cmp ip, #0

  // Fast path
  bxne ip

  // Slow path
  ldr ip, =286
  push {ip}
  .cfi_adjust_cfa_offset 4
  PUSH_REG(lr)
  bl _libpango_1_0_so_save_regs_and_resolve
  POP_REG(lr)
  add sp, #4
  .cfi_adjust_cfa_offset -4
  bx ip

  // Force constant pool for ldr above
  .ltorg

  .cfi_endproc

3:
  .word _libpango_1_0_so_tramp_table - (2b + 8) + 1144

/*
 * Copyright 2018-2025 Yury Gribov
 *
 * The MIT License (MIT)
 *
 * Use of this source code is governed by MIT license that can be
 * found in the LICENSE.txt file.
 */

  .globl pango_language_get_preferred
  .p2align 4
  .type pango_language_get_preferred, %function
