/*
 * Copyright 2018-2025 Yury Gribov
 *
 * The MIT License (MIT)
 *
 * Use of this source code is governed by MIT license that can be
 * found in the LICENSE.txt file.
 */

#define lr x30
#define ip0 x16

  .section .note.GNU-stack,"",@progbits

  .data

  .globl _libcairo_so_tramp_table
  .hidden _libcairo_so_tramp_table
  .align 8
_libcairo_so_tramp_table:
  .zero 3368

  .text

  .globl _libcairo_so_tramp_resolve
  .hidden _libcairo_so_tramp_resolve

  .globl _libcairo_so_save_regs_and_resolve
  .hidden _libcairo_so_save_regs_and_resolve
  .type _libcairo_so_save_regs_and_resolve, %function
_libcairo_so_save_regs_and_resolve:
  .cfi_startproc

  // Slow path which calls dlsym, taken only on first call.
  // Registers are saved according to "Procedure Call Standard for the Arm® 64-bit Architecture".
  // For DWARF directives, read https://www.imperialviolet.org/2017/01/18/cfi.html.

  // Stack is aligned at 16 bytes

#define PUSH_PAIR(reg1, reg2) stp reg1, reg2, [sp, #-16]!; .cfi_adjust_cfa_offset 16; .cfi_rel_offset reg1, 0; .cfi_rel_offset reg2, 8
#define POP_PAIR(reg1, reg2) ldp reg1, reg2, [sp], #16; .cfi_adjust_cfa_offset -16; .cfi_restore reg2; .cfi_restore reg1

#define PUSH_WIDE_PAIR(reg1, reg2) stp reg1, reg2, [sp, #-32]!; .cfi_adjust_cfa_offset 32; .cfi_rel_offset reg1, 0; .cfi_rel_offset reg2, 16
#define POP_WIDE_PAIR(reg1, reg2) ldp reg1, reg2, [sp], #32; .cfi_adjust_cfa_offset -32; .cfi_restore reg2; .cfi_restore reg1

  // Save only arguments (and lr)
  PUSH_PAIR(x0, x1)
  PUSH_PAIR(x2, x3)
  PUSH_PAIR(x4, x5)
  PUSH_PAIR(x6, x7)
  PUSH_PAIR(x8, lr)

  ldr x0, [sp, #80]  // 16*5

  PUSH_WIDE_PAIR(q0, q1)
  PUSH_WIDE_PAIR(q2, q3)
  PUSH_WIDE_PAIR(q4, q5)
  PUSH_WIDE_PAIR(q6, q7)

  // Stack is aligned at 16 bytes

  bl _libcairo_so_tramp_resolve
  mov ip0, x0

  // TODO: pop pc?

  POP_WIDE_PAIR(q6, q7)
  POP_WIDE_PAIR(q4, q5)
  POP_WIDE_PAIR(q2, q3)
  POP_WIDE_PAIR(q0, q1)

  POP_PAIR(x8, lr)
  POP_PAIR(x6, x7)
  POP_PAIR(x4, x5)
  POP_PAIR(x2, x3)
  POP_PAIR(x0, x1)

  br lr

  .cfi_endproc

/*
 * Copyright 2018-2025 Yury Gribov
 *
 * The MIT License (MIT)
 *
 * Use of this source code is governed by MIT license that can be
 * found in the LICENSE.txt file.
 */

  .globl cairo_append_path
  .p2align 4
  .type cairo_append_path, %function
#ifndef IMPLIB_EXPORT_SHIMS
  .hidden cairo_append_path
#endif
cairo_append_path:
  .cfi_startproc

1:
  // Load address
  // TODO: can we do this faster on newer ARMs?
  adrp ip0, _libcairo_so_tramp_table+0
  ldr ip0, [ip0, #:lo12:_libcairo_so_tramp_table+0]
 
  cbz ip0, 2f

  // Fast path
  br ip0

2:
  // Slow path
  mov ip0, 0 & 0xffff
#if 0 > 0xffff
  movk ip0, 0 >> 16, lsl #16
#endif
  stp ip0, lr, [sp, #-16]!; .cfi_adjust_cfa_offset 16; .cfi_rel_offset lr, 8
  bl _libcairo_so_save_regs_and_resolve
  ldp xzr, lr, [sp], #16; .cfi_adjust_cfa_offset -16; .cfi_restore lr
  br ip0
  .cfi_endproc

/*
 * Copyright 2018-2025 Yury Gribov
 *
 * The MIT License (MIT)
 *
 * Use of this source code is governed by MIT license that can be
 * found in the LICENSE.txt file.
 */

  .globl cairo_arc
  .p2align 4
  .type cairo_arc, %function
#ifndef IMPLIB_EXPORT_SHIMS
  .hidden cairo_arc
#endif
cairo_arc:
  .cfi_startproc

1:
  // Load address
  // TODO: can we do this faster on newer ARMs?
  adrp ip0, _libcairo_so_tramp_table+8
  ldr ip0, [ip0, #:lo12:_libcairo_so_tramp_table+8]
 
  cbz ip0, 2f

  // Fast path
  br ip0

2:
  // Slow path
  mov ip0, 1 & 0xffff
#if 1 > 0xffff
  movk ip0, 1 >> 16, lsl #16
#endif
  stp ip0, lr, [sp, #-16]!; .cfi_adjust_cfa_offset 16; .cfi_rel_offset lr, 8
  bl _libcairo_so_save_regs_and_resolve
  ldp xzr, lr, [sp], #16; .cfi_adjust_cfa_offset -16; .cfi_restore lr
  br ip0
  .cfi_endproc

/*
 * Copyright 2018-2025 Yury Gribov
 *
 * The MIT License (MIT)
 *
 * Use of this source code is governed by MIT license that can be
 * found in the LICENSE.txt file.
 */

  .globl cairo_arc_negative
  .p2align 4
  .type cairo_arc_negative, %function
#ifndef IMPLIB_EXPORT_SHIMS
  .hidden cairo_arc_negative
#endif
cairo_arc_negative:
  .cfi_startproc

1:
  // Load address
  // TODO: can we do this faster on newer ARMs?
  adrp ip0, _libcairo_so_tramp_table+16
  ldr ip0, [ip0, #:lo12:_libcairo_so_tramp_table+16]
 
  cbz ip0, 2f

  // Fast path
  br ip0

2:
  // Slow path
  mov ip0, 2 & 0xffff
#if 2 > 0xffff
  movk ip0, 2 >> 16, lsl #16
#endif
  stp ip0, lr, [sp, #-16]!; .cfi_adjust_cfa_offset 16; .cfi_rel_offset lr, 8
  bl _libcairo_so_save_regs_and_resolve
  ldp xzr, lr, [sp], #16; .cfi_adjust_cfa_offset -16; .cfi_restore lr
  br ip0
  .cfi_endproc

/*
 * Copyright 2018-2025 Yury Gribov
 *
 * The MIT License (MIT)
 *
 * Use of this source code is governed by MIT license that can be
 * found in the LICENSE.txt file.
 */

  .globl cairo_clip
  .p2align 4
  .type cairo_clip, %function
#ifndef IMPLIB_EXPORT_SHIMS
  .hidden cairo_clip
#endif
cairo_clip:
  .cfi_startproc

1:
  // Load address
  // TODO: can we do this faster on newer ARMs?
  adrp ip0, _libcairo_so_tramp_table+24
  ldr ip0, [ip0, #:lo12:_libcairo_so_tramp_table+24]
 
  cbz ip0, 2f

  // Fast path
  br ip0

2:
  // Slow path
  mov ip0, 3 & 0xffff
#if 3 > 0xffff
  movk ip0, 3 >> 16, lsl #16
#endif
  stp ip0, lr, [sp, #-16]!; .cfi_adjust_cfa_offset 16; .cfi_rel_offset lr, 8
  bl _libcairo_so_save_regs_and_resolve
  ldp xzr, lr, [sp], #16; .cfi_adjust_cfa_offset -16; .cfi_restore lr
  br ip0
  .cfi_endproc

/*
 * Copyright 2018-2025 Yury Gribov
 *
 * The MIT License (MIT)
 *
 * Use of this source code is governed by MIT license that can be
 * found in the LICENSE.txt file.
 */

  .globl cairo_clip_extents
  .p2align 4
  .type cairo_clip_extents, %function
#ifndef IMPLIB_EXPORT_SHIMS
  .hidden cairo_clip_extents
#endif
cairo_clip_extents:
  .cfi_startproc

1:
  // Load address
  // TODO: can we do this faster on newer ARMs?
  adrp ip0, _libcairo_so_tramp_table+32
  ldr ip0, [ip0, #:lo12:_libcairo_so_tramp_table+32]
 
  cbz ip0, 2f

  // Fast path
  br ip0

2:
  // Slow path
  mov ip0, 4 & 0xffff
#if 4 > 0xffff
  movk ip0, 4 >> 16, lsl #16
#endif
  stp ip0, lr, [sp, #-16]!; .cfi_adjust_cfa_offset 16; .cfi_rel_offset lr, 8
  bl _libcairo_so_save_regs_and_resolve
  ldp xzr, lr, [sp], #16; .cfi_adjust_cfa_offset -16; .cfi_restore lr
  br ip0
  .cfi_endproc

/*
 * Copyright 2018-2025 Yury Gribov
 *
 * The MIT License (MIT)
 *
 * Use of this source code is governed by MIT license that can be
 * found in the LICENSE.txt file.
 */

  .globl cairo_clip_preserve
  .p2align 4
  .type cairo_clip_preserve, %function
#ifndef IMPLIB_EXPORT_SHIMS
  .hidden cairo_clip_preserve
#endif
cairo_clip_preserve:
  .cfi_startproc

1:
  // Load address
  // TODO: can we do this faster on newer ARMs?
  adrp ip0, _libcairo_so_tramp_table+40
  ldr ip0, [ip0, #:lo12:_libcairo_so_tramp_table+40]
 
  cbz ip0, 2f

  // Fast path
  br ip0

2:
  // Slow path
  mov ip0, 5 & 0xffff
#if 5 > 0xffff
  movk ip0, 5 >> 16, lsl #16
#endif
  stp ip0, lr, [sp, #-16]!; .cfi_adjust_cfa_offset 16; .cfi_rel_offset lr, 8
  bl _libcairo_so_save_regs_and_resolve
  ldp xzr, lr, [sp], #16; .cfi_adjust_cfa_offset -16; .cfi_restore lr
  br ip0
  .cfi_endproc

/*
 * Copyright 2018-2025 Yury Gribov
 *
 * The MIT License (MIT)
 *
 * Use of this source code is governed by MIT license that can be
 * found in the LICENSE.txt file.
 */

  .globl cairo_close_path
  .p2align 4
  .type cairo_close_path, %function
#ifndef IMPLIB_EXPORT_SHIMS
  .hidden cairo_close_path
#endif
cairo_close_path:
  .cfi_startproc

1:
  // Load address
  // TODO: can we do this faster on newer ARMs?
  adrp ip0, _libcairo_so_tramp_table+48
  ldr ip0, [ip0, #:lo12:_libcairo_so_tramp_table+48]
 
  cbz ip0, 2f

  // Fast path
  br ip0

2:
  // Slow path
  mov ip0, 6 & 0xffff
#if 6 > 0xffff
  movk ip0, 6 >> 16, lsl #16
#endif
  stp ip0, lr, [sp, #-16]!; .cfi_adjust_cfa_offset 16; .cfi_rel_offset lr, 8
  bl _libcairo_so_save_regs_and_resolve
  ldp xzr, lr, [sp], #16; .cfi_adjust_cfa_offset -16; .cfi_restore lr
  br ip0
  .cfi_endproc

/*
 * Copyright 2018-2025 Yury Gribov
 *
 * The MIT License (MIT)
 *
 * Use of this source code is governed by MIT license that can be
 * found in the LICENSE.txt file.
 */

  .globl cairo_copy_clip_rectangle_list
  .p2align 4
  .type cairo_copy_clip_rectangle_list, %function
#ifndef IMPLIB_EXPORT_SHIMS
  .hidden cairo_copy_clip_rectangle_list
#endif
cairo_copy_clip_rectangle_list:
  .cfi_startproc

1:
  // Load address
  // TODO: can we do this faster on newer ARMs?
  adrp ip0, _libcairo_so_tramp_table+56
  ldr ip0, [ip0, #:lo12:_libcairo_so_tramp_table+56]
 
  cbz ip0, 2f

  // Fast path
  br ip0

2:
  // Slow path
  mov ip0, 7 & 0xffff
#if 7 > 0xffff
  movk ip0, 7 >> 16, lsl #16
#endif
  stp ip0, lr, [sp, #-16]!; .cfi_adjust_cfa_offset 16; .cfi_rel_offset lr, 8
  bl _libcairo_so_save_regs_and_resolve
  ldp xzr, lr, [sp], #16; .cfi_adjust_cfa_offset -16; .cfi_restore lr
  br ip0
  .cfi_endproc

/*
 * Copyright 2018-2025 Yury Gribov
 *
 * The MIT License (MIT)
 *
 * Use of this source code is governed by MIT license that can be
 * found in the LICENSE.txt file.
 */

  .globl cairo_copy_page
  .p2align 4
  .type cairo_copy_page, %function
#ifndef IMPLIB_EXPORT_SHIMS
  .hidden cairo_copy_page
#endif
cairo_copy_page:
  .cfi_startproc

1:
  // Load address
  // TODO: can we do this faster on newer ARMs?
  adrp ip0, _libcairo_so_tramp_table+64
  ldr ip0, [ip0, #:lo12:_libcairo_so_tramp_table+64]
 
  cbz ip0, 2f

  // Fast path
  br ip0

2:
  // Slow path
  mov ip0, 8 & 0xffff
#if 8 > 0xffff
  movk ip0, 8 >> 16, lsl #16
#endif
  stp ip0, lr, [sp, #-16]!; .cfi_adjust_cfa_offset 16; .cfi_rel_offset lr, 8
  bl _libcairo_so_save_regs_and_resolve
  ldp xzr, lr, [sp], #16; .cfi_adjust_cfa_offset -16; .cfi_restore lr
  br ip0
  .cfi_endproc

/*
 * Copyright 2018-2025 Yury Gribov
 *
 * The MIT License (MIT)
 *
 * Use of this source code is governed by MIT license that can be
 * found in the LICENSE.txt file.
 */

  .globl cairo_copy_path
  .p2align 4
  .type cairo_copy_path, %function
#ifndef IMPLIB_EXPORT_SHIMS
  .hidden cairo_copy_path
#endif
cairo_copy_path:
  .cfi_startproc

1:
  // Load address
  // TODO: can we do this faster on newer ARMs?
  adrp ip0, _libcairo_so_tramp_table+72
  ldr ip0, [ip0, #:lo12:_libcairo_so_tramp_table+72]
 
  cbz ip0, 2f

  // Fast path
  br ip0

2:
  // Slow path
  mov ip0, 9 & 0xffff
#if 9 > 0xffff
  movk ip0, 9 >> 16, lsl #16
#endif
  stp ip0, lr, [sp, #-16]!; .cfi_adjust_cfa_offset 16; .cfi_rel_offset lr, 8
  bl _libcairo_so_save_regs_and_resolve
  ldp xzr, lr, [sp], #16; .cfi_adjust_cfa_offset -16; .cfi_restore lr
  br ip0
  .cfi_endproc

/*
 * Copyright 2018-2025 Yury Gribov
 *
 * The MIT License (MIT)
 *
 * Use of this source code is governed by MIT license that can be
 * found in the LICENSE.txt file.
 */

  .globl cairo_copy_path_flat
  .p2align 4
  .type cairo_copy_path_flat, %function
#ifndef IMPLIB_EXPORT_SHIMS
  .hidden cairo_copy_path_flat
#endif
cairo_copy_path_flat:
  .cfi_startproc

1:
  // Load address
  // TODO: can we do this faster on newer ARMs?
  adrp ip0, _libcairo_so_tramp_table+80
  ldr ip0, [ip0, #:lo12:_libcairo_so_tramp_table+80]
 
  cbz ip0, 2f

  // Fast path
  br ip0

2:
  // Slow path
  mov ip0, 10 & 0xffff
#if 10 > 0xffff
  movk ip0, 10 >> 16, lsl #16
#endif
  stp ip0, lr, [sp, #-16]!; .cfi_adjust_cfa_offset 16; .cfi_rel_offset lr, 8
  bl _libcairo_so_save_regs_and_resolve
  ldp xzr, lr, [sp], #16; .cfi_adjust_cfa_offset -16; .cfi_restore lr
  br ip0
  .cfi_endproc

/*
 * Copyright 2018-2025 Yury Gribov
 *
 * The MIT License (MIT)
 *
 * Use of this source code is governed by MIT license that can be
 * found in the LICENSE.txt file.
 */

  .globl cairo_create
  .p2align 4
  .type cairo_create, %function
#ifndef IMPLIB_EXPORT_SHIMS
  .hidden cairo_create
#endif
cairo_create:
  .cfi_startproc

1:
  // Load address
  // TODO: can we do this faster on newer ARMs?
  adrp ip0, _libcairo_so_tramp_table+88
  ldr ip0, [ip0, #:lo12:_libcairo_so_tramp_table+88]
 
  cbz ip0, 2f

  // Fast path
  br ip0

2:
  // Slow path
  mov ip0, 11 & 0xffff
#if 11 > 0xffff
  movk ip0, 11 >> 16, lsl #16
#endif
  stp ip0, lr, [sp, #-16]!; .cfi_adjust_cfa_offset 16; .cfi_rel_offset lr, 8
  bl _libcairo_so_save_regs_and_resolve
  ldp xzr, lr, [sp], #16; .cfi_adjust_cfa_offset -16; .cfi_restore lr
  br ip0
  .cfi_endproc

/*
 * Copyright 2018-2025 Yury Gribov
 *
 * The MIT License (MIT)
 *
 * Use of this source code is governed by MIT license that can be
 * found in the LICENSE.txt file.
 */

  .globl cairo_curve_to
  .p2align 4
  .type cairo_curve_to, %function
#ifndef IMPLIB_EXPORT_SHIMS
  .hidden cairo_curve_to
#endif
cairo_curve_to:
  .cfi_startproc

1:
  // Load address
  // TODO: can we do this faster on newer ARMs?
  adrp ip0, _libcairo_so_tramp_table+96
  ldr ip0, [ip0, #:lo12:_libcairo_so_tramp_table+96]
 
  cbz ip0, 2f

  // Fast path
  br ip0

2:
  // Slow path
  mov ip0, 12 & 0xffff
#if 12 > 0xffff
  movk ip0, 12 >> 16, lsl #16
#endif
  stp ip0, lr, [sp, #-16]!; .cfi_adjust_cfa_offset 16; .cfi_rel_offset lr, 8
  bl _libcairo_so_save_regs_and_resolve
  ldp xzr, lr, [sp], #16; .cfi_adjust_cfa_offset -16; .cfi_restore lr
  br ip0
  .cfi_endproc

/*
 * Copyright 2018-2025 Yury Gribov
 *
 * The MIT License (MIT)
 *
 * Use of this source code is governed by MIT license that can be
 * found in the LICENSE.txt file.
 */

  .globl cairo_debug_reset_static_data
  .p2align 4
  .type cairo_debug_reset_static_data, %function
#ifndef IMPLIB_EXPORT_SHIMS
  .hidden cairo_debug_reset_static_data
#endif
cairo_debug_reset_static_data:
  .cfi_startproc

1:
  // Load address
  // TODO: can we do this faster on newer ARMs?
  adrp ip0, _libcairo_so_tramp_table+104
  ldr ip0, [ip0, #:lo12:_libcairo_so_tramp_table+104]
 
  cbz ip0, 2f

  // Fast path
  br ip0

2:
  // Slow path
  mov ip0, 13 & 0xffff
#if 13 > 0xffff
  movk ip0, 13 >> 16, lsl #16
#endif
  stp ip0, lr, [sp, #-16]!; .cfi_adjust_cfa_offset 16; .cfi_rel_offset lr, 8
  bl _libcairo_so_save_regs_and_resolve
  ldp xzr, lr, [sp], #16; .cfi_adjust_cfa_offset -16; .cfi_restore lr
  br ip0
  .cfi_endproc

/*
 * Copyright 2018-2025 Yury Gribov
 *
 * The MIT License (MIT)
 *
 * Use of this source code is governed by MIT license that can be
 * found in the LICENSE.txt file.
 */

  .globl cairo_destroy
  .p2align 4
  .type cairo_destroy, %function
#ifndef IMPLIB_EXPORT_SHIMS
  .hidden cairo_destroy
#endif
cairo_destroy:
  .cfi_startproc

1:
  // Load address
  // TODO: can we do this faster on newer ARMs?
  adrp ip0, _libcairo_so_tramp_table+112
  ldr ip0, [ip0, #:lo12:_libcairo_so_tramp_table+112]
 
  cbz ip0, 2f

  // Fast path
  br ip0

2:
  // Slow path
  mov ip0, 14 & 0xffff
#if 14 > 0xffff
  movk ip0, 14 >> 16, lsl #16
#endif
  stp ip0, lr, [sp, #-16]!; .cfi_adjust_cfa_offset 16; .cfi_rel_offset lr, 8
  bl _libcairo_so_save_regs_and_resolve
  ldp xzr, lr, [sp], #16; .cfi_adjust_cfa_offset -16; .cfi_restore lr
  br ip0
  .cfi_endproc

/*
 * Copyright 2018-2025 Yury Gribov
 *
 * The MIT License (MIT)
 *
 * Use of this source code is governed by MIT license that can be
 * found in the LICENSE.txt file.
 */

  .globl cairo_device_acquire
  .p2align 4
  .type cairo_device_acquire, %function
#ifndef IMPLIB_EXPORT_SHIMS
  .hidden cairo_device_acquire
#endif
cairo_device_acquire:
  .cfi_startproc

1:
  // Load address
  // TODO: can we do this faster on newer ARMs?
  adrp ip0, _libcairo_so_tramp_table+120
  ldr ip0, [ip0, #:lo12:_libcairo_so_tramp_table+120]
 
  cbz ip0, 2f

  // Fast path
  br ip0

2:
  // Slow path
  mov ip0, 15 & 0xffff
#if 15 > 0xffff
  movk ip0, 15 >> 16, lsl #16
#endif
  stp ip0, lr, [sp, #-16]!; .cfi_adjust_cfa_offset 16; .cfi_rel_offset lr, 8
  bl _libcairo_so_save_regs_and_resolve
  ldp xzr, lr, [sp], #16; .cfi_adjust_cfa_offset -16; .cfi_restore lr
  br ip0
  .cfi_endproc

/*
 * Copyright 2018-2025 Yury Gribov
 *
 * The MIT License (MIT)
 *
 * Use of this source code is governed by MIT license that can be
 * found in the LICENSE.txt file.
 */

  .globl cairo_device_destroy
  .p2align 4
  .type cairo_device_destroy, %function
#ifndef IMPLIB_EXPORT_SHIMS
  .hidden cairo_device_destroy
#endif
cairo_device_destroy:
  .cfi_startproc

1:
  // Load address
  // TODO: can we do this faster on newer ARMs?
  adrp ip0, _libcairo_so_tramp_table+128
  ldr ip0, [ip0, #:lo12:_libcairo_so_tramp_table+128]
 
  cbz ip0, 2f

  // Fast path
  br ip0

2:
  // Slow path
  mov ip0, 16 & 0xffff
#if 16 > 0xffff
  movk ip0, 16 >> 16, lsl #16
#endif
  stp ip0, lr, [sp, #-16]!; .cfi_adjust_cfa_offset 16; .cfi_rel_offset lr, 8
  bl _libcairo_so_save_regs_and_resolve
  ldp xzr, lr, [sp], #16; .cfi_adjust_cfa_offset -16; .cfi_restore lr
  br ip0
  .cfi_endproc

/*
 * Copyright 2018-2025 Yury Gribov
 *
 * The MIT License (MIT)
 *
 * Use of this source code is governed by MIT license that can be
 * found in the LICENSE.txt file.
 */

  .globl cairo_device_finish
  .p2align 4
  .type cairo_device_finish, %function
#ifndef IMPLIB_EXPORT_SHIMS
  .hidden cairo_device_finish
#endif
cairo_device_finish:
  .cfi_startproc

1:
  // Load address
  // TODO: can we do this faster on newer ARMs?
  adrp ip0, _libcairo_so_tramp_table+136
  ldr ip0, [ip0, #:lo12:_libcairo_so_tramp_table+136]
 
  cbz ip0, 2f

  // Fast path
  br ip0

2:
  // Slow path
  mov ip0, 17 & 0xffff
#if 17 > 0xffff
  movk ip0, 17 >> 16, lsl #16
#endif
  stp ip0, lr, [sp, #-16]!; .cfi_adjust_cfa_offset 16; .cfi_rel_offset lr, 8
  bl _libcairo_so_save_regs_and_resolve
  ldp xzr, lr, [sp], #16; .cfi_adjust_cfa_offset -16; .cfi_restore lr
  br ip0
  .cfi_endproc

/*
 * Copyright 2018-2025 Yury Gribov
 *
 * The MIT License (MIT)
 *
 * Use of this source code is governed by MIT license that can be
 * found in the LICENSE.txt file.
 */

  .globl cairo_device_flush
  .p2align 4
  .type cairo_device_flush, %function
#ifndef IMPLIB_EXPORT_SHIMS
  .hidden cairo_device_flush
#endif
cairo_device_flush:
  .cfi_startproc

1:
  // Load address
  // TODO: can we do this faster on newer ARMs?
  adrp ip0, _libcairo_so_tramp_table+144
  ldr ip0, [ip0, #:lo12:_libcairo_so_tramp_table+144]
 
  cbz ip0, 2f

  // Fast path
  br ip0

2:
  // Slow path
  mov ip0, 18 & 0xffff
#if 18 > 0xffff
  movk ip0, 18 >> 16, lsl #16
#endif
  stp ip0, lr, [sp, #-16]!; .cfi_adjust_cfa_offset 16; .cfi_rel_offset lr, 8
  bl _libcairo_so_save_regs_and_resolve
  ldp xzr, lr, [sp], #16; .cfi_adjust_cfa_offset -16; .cfi_restore lr
  br ip0
  .cfi_endproc

/*
 * Copyright 2018-2025 Yury Gribov
 *
 * The MIT License (MIT)
 *
 * Use of this source code is governed by MIT license that can be
 * found in the LICENSE.txt file.
 */

  .globl cairo_device_get_reference_count
  .p2align 4
  .type cairo_device_get_reference_count, %function
#ifndef IMPLIB_EXPORT_SHIMS
  .hidden cairo_device_get_reference_count
#endif
cairo_device_get_reference_count:
  .cfi_startproc

1:
  // Load address
  // TODO: can we do this faster on newer ARMs?
  adrp ip0, _libcairo_so_tramp_table+152
  ldr ip0, [ip0, #:lo12:_libcairo_so_tramp_table+152]
 
  cbz ip0, 2f

  // Fast path
  br ip0

2:
  // Slow path
  mov ip0, 19 & 0xffff
#if 19 > 0xffff
  movk ip0, 19 >> 16, lsl #16
#endif
  stp ip0, lr, [sp, #-16]!; .cfi_adjust_cfa_offset 16; .cfi_rel_offset lr, 8
  bl _libcairo_so_save_regs_and_resolve
  ldp xzr, lr, [sp], #16; .cfi_adjust_cfa_offset -16; .cfi_restore lr
  br ip0
  .cfi_endproc

/*
 * Copyright 2018-2025 Yury Gribov
 *
 * The MIT License (MIT)
 *
 * Use of this source code is governed by MIT license that can be
 * found in the LICENSE.txt file.
 */

  .globl cairo_device_get_type
  .p2align 4
  .type cairo_device_get_type, %function
#ifndef IMPLIB_EXPORT_SHIMS
  .hidden cairo_device_get_type
#endif
cairo_device_get_type:
  .cfi_startproc

1:
  // Load address
  // TODO: can we do this faster on newer ARMs?
  adrp ip0, _libcairo_so_tramp_table+160
  ldr ip0, [ip0, #:lo12:_libcairo_so_tramp_table+160]
 
  cbz ip0, 2f

  // Fast path
  br ip0

2:
  // Slow path
  mov ip0, 20 & 0xffff
#if 20 > 0xffff
  movk ip0, 20 >> 16, lsl #16
#endif
  stp ip0, lr, [sp, #-16]!; .cfi_adjust_cfa_offset 16; .cfi_rel_offset lr, 8
  bl _libcairo_so_save_regs_and_resolve
  ldp xzr, lr, [sp], #16; .cfi_adjust_cfa_offset -16; .cfi_restore lr
  br ip0
  .cfi_endproc

/*
 * Copyright 2018-2025 Yury Gribov
 *
 * The MIT License (MIT)
 *
 * Use of this source code is governed by MIT license that can be
 * found in the LICENSE.txt file.
 */

  .globl cairo_device_get_user_data
  .p2align 4
  .type cairo_device_get_user_data, %function
#ifndef IMPLIB_EXPORT_SHIMS
  .hidden cairo_device_get_user_data
#endif
cairo_device_get_user_data:
  .cfi_startproc

1:
  // Load address
  // TODO: can we do this faster on newer ARMs?
  adrp ip0, _libcairo_so_tramp_table+168
  ldr ip0, [ip0, #:lo12:_libcairo_so_tramp_table+168]
 
  cbz ip0, 2f

  // Fast path
  br ip0

2:
  // Slow path
  mov ip0, 21 & 0xffff
#if 21 > 0xffff
  movk ip0, 21 >> 16, lsl #16
#endif
  stp ip0, lr, [sp, #-16]!; .cfi_adjust_cfa_offset 16; .cfi_rel_offset lr, 8
  bl _libcairo_so_save_regs_and_resolve
  ldp xzr, lr, [sp], #16; .cfi_adjust_cfa_offset -16; .cfi_restore lr
  br ip0
  .cfi_endproc

/*
 * Copyright 2018-2025 Yury Gribov
 *
 * The MIT License (MIT)
 *
 * Use of this source code is governed by MIT license that can be
 * found in the LICENSE.txt file.
 */

  .globl cairo_device_observer_elapsed
  .p2align 4
  .type cairo_device_observer_elapsed, %function
#ifndef IMPLIB_EXPORT_SHIMS
  .hidden cairo_device_observer_elapsed
#endif
cairo_device_observer_elapsed:
  .cfi_startproc

1:
  // Load address
  // TODO: can we do this faster on newer ARMs?
  adrp ip0, _libcairo_so_tramp_table+176
  ldr ip0, [ip0, #:lo12:_libcairo_so_tramp_table+176]
 
  cbz ip0, 2f

  // Fast path
  br ip0

2:
  // Slow path
  mov ip0, 22 & 0xffff
#if 22 > 0xffff
  movk ip0, 22 >> 16, lsl #16
#endif
  stp ip0, lr, [sp, #-16]!; .cfi_adjust_cfa_offset 16; .cfi_rel_offset lr, 8
  bl _libcairo_so_save_regs_and_resolve
  ldp xzr, lr, [sp], #16; .cfi_adjust_cfa_offset -16; .cfi_restore lr
  br ip0
  .cfi_endproc

/*
 * Copyright 2018-2025 Yury Gribov
 *
 * The MIT License (MIT)
 *
 * Use of this source code is governed by MIT license that can be
 * found in the LICENSE.txt file.
 */

  .globl cairo_device_observer_fill_elapsed
  .p2align 4
  .type cairo_device_observer_fill_elapsed, %function
#ifndef IMPLIB_EXPORT_SHIMS
  .hidden cairo_device_observer_fill_elapsed
#endif
cairo_device_observer_fill_elapsed:
  .cfi_startproc

1:
  // Load address
  // TODO: can we do this faster on newer ARMs?
  adrp ip0, _libcairo_so_tramp_table+184
  ldr ip0, [ip0, #:lo12:_libcairo_so_tramp_table+184]
 
  cbz ip0, 2f

  // Fast path
  br ip0

2:
  // Slow path
  mov ip0, 23 & 0xffff
#if 23 > 0xffff
  movk ip0, 23 >> 16, lsl #16
#endif
  stp ip0, lr, [sp, #-16]!; .cfi_adjust_cfa_offset 16; .cfi_rel_offset lr, 8
  bl _libcairo_so_save_regs_and_resolve
  ldp xzr, lr, [sp], #16; .cfi_adjust_cfa_offset -16; .cfi_restore lr
  br ip0
  .cfi_endproc

/*
 * Copyright 2018-2025 Yury Gribov
 *
 * The MIT License (MIT)
 *
 * Use of this source code is governed by MIT license that can be
 * found in the LICENSE.txt file.
 */

  .globl cairo_device_observer_glyphs_elapsed
  .p2align 4
  .type cairo_device_observer_glyphs_elapsed, %function
#ifndef IMPLIB_EXPORT_SHIMS
  .hidden cairo_device_observer_glyphs_elapsed
#endif
cairo_device_observer_glyphs_elapsed:
  .cfi_startproc

1:
  // Load address
  // TODO: can we do this faster on newer ARMs?
  adrp ip0, _libcairo_so_tramp_table+192
  ldr ip0, [ip0, #:lo12:_libcairo_so_tramp_table+192]
 
  cbz ip0, 2f

  // Fast path
  br ip0

2:
  // Slow path
  mov ip0, 24 & 0xffff
#if 24 > 0xffff
  movk ip0, 24 >> 16, lsl #16
#endif
  stp ip0, lr, [sp, #-16]!; .cfi_adjust_cfa_offset 16; .cfi_rel_offset lr, 8
  bl _libcairo_so_save_regs_and_resolve
  ldp xzr, lr, [sp], #16; .cfi_adjust_cfa_offset -16; .cfi_restore lr
  br ip0
  .cfi_endproc

/*
 * Copyright 2018-2025 Yury Gribov
 *
 * The MIT License (MIT)
 *
 * Use of this source code is governed by MIT license that can be
 * found in the LICENSE.txt file.
 */

  .globl cairo_device_observer_mask_elapsed
  .p2align 4
  .type cairo_device_observer_mask_elapsed, %function
#ifndef IMPLIB_EXPORT_SHIMS
  .hidden cairo_device_observer_mask_elapsed
#endif
cairo_device_observer_mask_elapsed:
  .cfi_startproc

1:
  // Load address
  // TODO: can we do this faster on newer ARMs?
  adrp ip0, _libcairo_so_tramp_table+200
  ldr ip0, [ip0, #:lo12:_libcairo_so_tramp_table+200]
 
  cbz ip0, 2f

  // Fast path
  br ip0

2:
  // Slow path
  mov ip0, 25 & 0xffff
#if 25 > 0xffff
  movk ip0, 25 >> 16, lsl #16
#endif
  stp ip0, lr, [sp, #-16]!; .cfi_adjust_cfa_offset 16; .cfi_rel_offset lr, 8
  bl _libcairo_so_save_regs_and_resolve
  ldp xzr, lr, [sp], #16; .cfi_adjust_cfa_offset -16; .cfi_restore lr
  br ip0
  .cfi_endproc

/*
 * Copyright 2018-2025 Yury Gribov
 *
 * The MIT License (MIT)
 *
 * Use of this source code is governed by MIT license that can be
 * found in the LICENSE.txt file.
 */

  .globl cairo_device_observer_paint_elapsed
  .p2align 4
  .type cairo_device_observer_paint_elapsed, %function
#ifndef IMPLIB_EXPORT_SHIMS
  .hidden cairo_device_observer_paint_elapsed
#endif
cairo_device_observer_paint_elapsed:
  .cfi_startproc

1:
  // Load address
  // TODO: can we do this faster on newer ARMs?
  adrp ip0, _libcairo_so_tramp_table+208
  ldr ip0, [ip0, #:lo12:_libcairo_so_tramp_table+208]
 
  cbz ip0, 2f

  // Fast path
  br ip0

2:
  // Slow path
  mov ip0, 26 & 0xffff
#if 26 > 0xffff
  movk ip0, 26 >> 16, lsl #16
#endif
  stp ip0, lr, [sp, #-16]!; .cfi_adjust_cfa_offset 16; .cfi_rel_offset lr, 8
  bl _libcairo_so_save_regs_and_resolve
  ldp xzr, lr, [sp], #16; .cfi_adjust_cfa_offset -16; .cfi_restore lr
  br ip0
  .cfi_endproc

/*
 * Copyright 2018-2025 Yury Gribov
 *
 * The MIT License (MIT)
 *
 * Use of this source code is governed by MIT license that can be
 * found in the LICENSE.txt file.
 */

  .globl cairo_device_observer_print
  .p2align 4
  .type cairo_device_observer_print, %function
#ifndef IMPLIB_EXPORT_SHIMS
  .hidden cairo_device_observer_print
#endif
cairo_device_observer_print:
  .cfi_startproc

1:
  // Load address
  // TODO: can we do this faster on newer ARMs?
  adrp ip0, _libcairo_so_tramp_table+216
  ldr ip0, [ip0, #:lo12:_libcairo_so_tramp_table+216]
 
  cbz ip0, 2f

  // Fast path
  br ip0

2:
  // Slow path
  mov ip0, 27 & 0xffff
#if 27 > 0xffff
  movk ip0, 27 >> 16, lsl #16
#endif
  stp ip0, lr, [sp, #-16]!; .cfi_adjust_cfa_offset 16; .cfi_rel_offset lr, 8
  bl _libcairo_so_save_regs_and_resolve
  ldp xzr, lr, [sp], #16; .cfi_adjust_cfa_offset -16; .cfi_restore lr
  br ip0
  .cfi_endproc

/*
 * Copyright 2018-2025 Yury Gribov
 *
 * The MIT License (MIT)
 *
 * Use of this source code is governed by MIT license that can be
 * found in the LICENSE.txt file.
 */

  .globl cairo_device_observer_stroke_elapsed
  .p2align 4
  .type cairo_device_observer_stroke_elapsed, %function
#ifndef IMPLIB_EXPORT_SHIMS
  .hidden cairo_device_observer_stroke_elapsed
#endif
cairo_device_observer_stroke_elapsed:
  .cfi_startproc

1:
  // Load address
  // TODO: can we do this faster on newer ARMs?
  adrp ip0, _libcairo_so_tramp_table+224
  ldr ip0, [ip0, #:lo12:_libcairo_so_tramp_table+224]
 
  cbz ip0, 2f

  // Fast path
  br ip0

2:
  // Slow path
  mov ip0, 28 & 0xffff
#if 28 > 0xffff
  movk ip0, 28 >> 16, lsl #16
#endif
  stp ip0, lr, [sp, #-16]!; .cfi_adjust_cfa_offset 16; .cfi_rel_offset lr, 8
  bl _libcairo_so_save_regs_and_resolve
  ldp xzr, lr, [sp], #16; .cfi_adjust_cfa_offset -16; .cfi_restore lr
  br ip0
  .cfi_endproc

/*
 * Copyright 2018-2025 Yury Gribov
 *
 * The MIT License (MIT)
 *
 * Use of this source code is governed by MIT license that can be
 * found in the LICENSE.txt file.
 */

  .globl cairo_device_reference
  .p2align 4
  .type cairo_device_reference, %function
#ifndef IMPLIB_EXPORT_SHIMS
  .hidden cairo_device_reference
#endif
cairo_device_reference:
  .cfi_startproc

1:
  // Load address
  // TODO: can we do this faster on newer ARMs?
  adrp ip0, _libcairo_so_tramp_table+232
  ldr ip0, [ip0, #:lo12:_libcairo_so_tramp_table+232]
 
  cbz ip0, 2f

  // Fast path
  br ip0

2:
  // Slow path
  mov ip0, 29 & 0xffff
#if 29 > 0xffff
  movk ip0, 29 >> 16, lsl #16
#endif
  stp ip0, lr, [sp, #-16]!; .cfi_adjust_cfa_offset 16; .cfi_rel_offset lr, 8
  bl _libcairo_so_save_regs_and_resolve
  ldp xzr, lr, [sp], #16; .cfi_adjust_cfa_offset -16; .cfi_restore lr
  br ip0
  .cfi_endproc

/*
 * Copyright 2018-2025 Yury Gribov
 *
 * The MIT License (MIT)
 *
 * Use of this source code is governed by MIT license that can be
 * found in the LICENSE.txt file.
 */

  .globl cairo_device_release
  .p2align 4
  .type cairo_device_release, %function
#ifndef IMPLIB_EXPORT_SHIMS
  .hidden cairo_device_release
#endif
cairo_device_release:
  .cfi_startproc

1:
  // Load address
  // TODO: can we do this faster on newer ARMs?
  adrp ip0, _libcairo_so_tramp_table+240
  ldr ip0, [ip0, #:lo12:_libcairo_so_tramp_table+240]
 
  cbz ip0, 2f

  // Fast path
  br ip0

2:
  // Slow path
  mov ip0, 30 & 0xffff
#if 30 > 0xffff
  movk ip0, 30 >> 16, lsl #16
#endif
  stp ip0, lr, [sp, #-16]!; .cfi_adjust_cfa_offset 16; .cfi_rel_offset lr, 8
  bl _libcairo_so_save_regs_and_resolve
  ldp xzr, lr, [sp], #16; .cfi_adjust_cfa_offset -16; .cfi_restore lr
  br ip0
  .cfi_endproc

/*
 * Copyright 2018-2025 Yury Gribov
 *
 * The MIT License (MIT)
 *
 * Use of this source code is governed by MIT license that can be
 * found in the LICENSE.txt file.
 */

  .globl cairo_device_set_user_data
  .p2align 4
  .type cairo_device_set_user_data, %function
#ifndef IMPLIB_EXPORT_SHIMS
  .hidden cairo_device_set_user_data
#endif
cairo_device_set_user_data:
  .cfi_startproc

1:
  // Load address
  // TODO: can we do this faster on newer ARMs?
  adrp ip0, _libcairo_so_tramp_table+248
  ldr ip0, [ip0, #:lo12:_libcairo_so_tramp_table+248]
 
  cbz ip0, 2f

  // Fast path
  br ip0

2:
  // Slow path
  mov ip0, 31 & 0xffff
#if 31 > 0xffff
  movk ip0, 31 >> 16, lsl #16
#endif
  stp ip0, lr, [sp, #-16]!; .cfi_adjust_cfa_offset 16; .cfi_rel_offset lr, 8
  bl _libcairo_so_save_regs_and_resolve
  ldp xzr, lr, [sp], #16; .cfi_adjust_cfa_offset -16; .cfi_restore lr
  br ip0
  .cfi_endproc

/*
 * Copyright 2018-2025 Yury Gribov
 *
 * The MIT License (MIT)
 *
 * Use of this source code is governed by MIT license that can be
 * found in the LICENSE.txt file.
 */

  .globl cairo_device_status
  .p2align 4
  .type cairo_device_status, %function
#ifndef IMPLIB_EXPORT_SHIMS
  .hidden cairo_device_status
#endif
cairo_device_status:
  .cfi_startproc

1:
  // Load address
  // TODO: can we do this faster on newer ARMs?
  adrp ip0, _libcairo_so_tramp_table+256
  ldr ip0, [ip0, #:lo12:_libcairo_so_tramp_table+256]
 
  cbz ip0, 2f

  // Fast path
  br ip0

2:
  // Slow path
  mov ip0, 32 & 0xffff
#if 32 > 0xffff
  movk ip0, 32 >> 16, lsl #16
#endif
  stp ip0, lr, [sp, #-16]!; .cfi_adjust_cfa_offset 16; .cfi_rel_offset lr, 8
  bl _libcairo_so_save_regs_and_resolve
  ldp xzr, lr, [sp], #16; .cfi_adjust_cfa_offset -16; .cfi_restore lr
  br ip0
  .cfi_endproc

/*
 * Copyright 2018-2025 Yury Gribov
 *
 * The MIT License (MIT)
 *
 * Use of this source code is governed by MIT license that can be
 * found in the LICENSE.txt file.
 */

  .globl cairo_device_to_user
  .p2align 4
  .type cairo_device_to_user, %function
#ifndef IMPLIB_EXPORT_SHIMS
  .hidden cairo_device_to_user
#endif
cairo_device_to_user:
  .cfi_startproc

1:
  // Load address
  // TODO: can we do this faster on newer ARMs?
  adrp ip0, _libcairo_so_tramp_table+264
  ldr ip0, [ip0, #:lo12:_libcairo_so_tramp_table+264]
 
  cbz ip0, 2f

  // Fast path
  br ip0

2:
  // Slow path
  mov ip0, 33 & 0xffff
#if 33 > 0xffff
  movk ip0, 33 >> 16, lsl #16
#endif
  stp ip0, lr, [sp, #-16]!; .cfi_adjust_cfa_offset 16; .cfi_rel_offset lr, 8
  bl _libcairo_so_save_regs_and_resolve
  ldp xzr, lr, [sp], #16; .cfi_adjust_cfa_offset -16; .cfi_restore lr
  br ip0
  .cfi_endproc

/*
 * Copyright 2018-2025 Yury Gribov
 *
 * The MIT License (MIT)
 *
 * Use of this source code is governed by MIT license that can be
 * found in the LICENSE.txt file.
 */

  .globl cairo_device_to_user_distance
  .p2align 4
  .type cairo_device_to_user_distance, %function
#ifndef IMPLIB_EXPORT_SHIMS
  .hidden cairo_device_to_user_distance
#endif
cairo_device_to_user_distance:
  .cfi_startproc

1:
  // Load address
  // TODO: can we do this faster on newer ARMs?
  adrp ip0, _libcairo_so_tramp_table+272
  ldr ip0, [ip0, #:lo12:_libcairo_so_tramp_table+272]
 
  cbz ip0, 2f

  // Fast path
  br ip0

2:
  // Slow path
  mov ip0, 34 & 0xffff
#if 34 > 0xffff
  movk ip0, 34 >> 16, lsl #16
#endif
  stp ip0, lr, [sp, #-16]!; .cfi_adjust_cfa_offset 16; .cfi_rel_offset lr, 8
  bl _libcairo_so_save_regs_and_resolve
  ldp xzr, lr, [sp], #16; .cfi_adjust_cfa_offset -16; .cfi_restore lr
  br ip0
  .cfi_endproc

/*
 * Copyright 2018-2025 Yury Gribov
 *
 * The MIT License (MIT)
 *
 * Use of this source code is governed by MIT license that can be
 * found in the LICENSE.txt file.
 */

  .globl cairo_fill
  .p2align 4
  .type cairo_fill, %function
#ifndef IMPLIB_EXPORT_SHIMS
  .hidden cairo_fill
#endif
cairo_fill:
  .cfi_startproc

1:
  // Load address
  // TODO: can we do this faster on newer ARMs?
  adrp ip0, _libcairo_so_tramp_table+280
  ldr ip0, [ip0, #:lo12:_libcairo_so_tramp_table+280]
 
  cbz ip0, 2f

  // Fast path
  br ip0

2:
  // Slow path
  mov ip0, 35 & 0xffff
#if 35 > 0xffff
  movk ip0, 35 >> 16, lsl #16
#endif
  stp ip0, lr, [sp, #-16]!; .cfi_adjust_cfa_offset 16; .cfi_rel_offset lr, 8
  bl _libcairo_so_save_regs_and_resolve
  ldp xzr, lr, [sp], #16; .cfi_adjust_cfa_offset -16; .cfi_restore lr
  br ip0
  .cfi_endproc

/*
 * Copyright 2018-2025 Yury Gribov
 *
 * The MIT License (MIT)
 *
 * Use of this source code is governed by MIT license that can be
 * found in the LICENSE.txt file.
 */

  .globl cairo_fill_extents
  .p2align 4
  .type cairo_fill_extents, %function
#ifndef IMPLIB_EXPORT_SHIMS
  .hidden cairo_fill_extents
#endif
cairo_fill_extents:
  .cfi_startproc

1:
  // Load address
  // TODO: can we do this faster on newer ARMs?
  adrp ip0, _libcairo_so_tramp_table+288
  ldr ip0, [ip0, #:lo12:_libcairo_so_tramp_table+288]
 
  cbz ip0, 2f

  // Fast path
  br ip0

2:
  // Slow path
  mov ip0, 36 & 0xffff
#if 36 > 0xffff
  movk ip0, 36 >> 16, lsl #16
#endif
  stp ip0, lr, [sp, #-16]!; .cfi_adjust_cfa_offset 16; .cfi_rel_offset lr, 8
  bl _libcairo_so_save_regs_and_resolve
  ldp xzr, lr, [sp], #16; .cfi_adjust_cfa_offset -16; .cfi_restore lr
  br ip0
  .cfi_endproc

/*
 * Copyright 2018-2025 Yury Gribov
 *
 * The MIT License (MIT)
 *
 * Use of this source code is governed by MIT license that can be
 * found in the LICENSE.txt file.
 */

  .globl cairo_fill_preserve
  .p2align 4
  .type cairo_fill_preserve, %function
#ifndef IMPLIB_EXPORT_SHIMS
  .hidden cairo_fill_preserve
#endif
cairo_fill_preserve:
  .cfi_startproc

1:
  // Load address
  // TODO: can we do this faster on newer ARMs?
  adrp ip0, _libcairo_so_tramp_table+296
  ldr ip0, [ip0, #:lo12:_libcairo_so_tramp_table+296]
 
  cbz ip0, 2f

  // Fast path
  br ip0

2:
  // Slow path
  mov ip0, 37 & 0xffff
#if 37 > 0xffff
  movk ip0, 37 >> 16, lsl #16
#endif
  stp ip0, lr, [sp, #-16]!; .cfi_adjust_cfa_offset 16; .cfi_rel_offset lr, 8
  bl _libcairo_so_save_regs_and_resolve
  ldp xzr, lr, [sp], #16; .cfi_adjust_cfa_offset -16; .cfi_restore lr
  br ip0
  .cfi_endproc

/*
 * Copyright 2018-2025 Yury Gribov
 *
 * The MIT License (MIT)
 *
 * Use of this source code is governed by MIT license that can be
 * found in the LICENSE.txt file.
 */

  .globl cairo_font_extents
  .p2align 4
  .type cairo_font_extents, %function
#ifndef IMPLIB_EXPORT_SHIMS
  .hidden cairo_font_extents
#endif
cairo_font_extents:
  .cfi_startproc

1:
  // Load address
  // TODO: can we do this faster on newer ARMs?
  adrp ip0, _libcairo_so_tramp_table+304
  ldr ip0, [ip0, #:lo12:_libcairo_so_tramp_table+304]
 
  cbz ip0, 2f

  // Fast path
  br ip0

2:
  // Slow path
  mov ip0, 38 & 0xffff
#if 38 > 0xffff
  movk ip0, 38 >> 16, lsl #16
#endif
  stp ip0, lr, [sp, #-16]!; .cfi_adjust_cfa_offset 16; .cfi_rel_offset lr, 8
  bl _libcairo_so_save_regs_and_resolve
  ldp xzr, lr, [sp], #16; .cfi_adjust_cfa_offset -16; .cfi_restore lr
  br ip0
  .cfi_endproc

/*
 * Copyright 2018-2025 Yury Gribov
 *
 * The MIT License (MIT)
 *
 * Use of this source code is governed by MIT license that can be
 * found in the LICENSE.txt file.
 */

  .globl cairo_font_face_destroy
  .p2align 4
  .type cairo_font_face_destroy, %function
#ifndef IMPLIB_EXPORT_SHIMS
  .hidden cairo_font_face_destroy
#endif
cairo_font_face_destroy:
  .cfi_startproc

1:
  // Load address
  // TODO: can we do this faster on newer ARMs?
  adrp ip0, _libcairo_so_tramp_table+312
  ldr ip0, [ip0, #:lo12:_libcairo_so_tramp_table+312]
 
  cbz ip0, 2f

  // Fast path
  br ip0

2:
  // Slow path
  mov ip0, 39 & 0xffff
#if 39 > 0xffff
  movk ip0, 39 >> 16, lsl #16
#endif
  stp ip0, lr, [sp, #-16]!; .cfi_adjust_cfa_offset 16; .cfi_rel_offset lr, 8
  bl _libcairo_so_save_regs_and_resolve
  ldp xzr, lr, [sp], #16; .cfi_adjust_cfa_offset -16; .cfi_restore lr
  br ip0
  .cfi_endproc

/*
 * Copyright 2018-2025 Yury Gribov
 *
 * The MIT License (MIT)
 *
 * Use of this source code is governed by MIT license that can be
 * found in the LICENSE.txt file.
 */

  .globl cairo_font_face_get_reference_count
  .p2align 4
  .type cairo_font_face_get_reference_count, %function
#ifndef IMPLIB_EXPORT_SHIMS
  .hidden cairo_font_face_get_reference_count
#endif
cairo_font_face_get_reference_count:
  .cfi_startproc

1:
  // Load address
  // TODO: can we do this faster on newer ARMs?
  adrp ip0, _libcairo_so_tramp_table+320
  ldr ip0, [ip0, #:lo12:_libcairo_so_tramp_table+320]
 
  cbz ip0, 2f

  // Fast path
  br ip0

2:
  // Slow path
  mov ip0, 40 & 0xffff
#if 40 > 0xffff
  movk ip0, 40 >> 16, lsl #16
#endif
  stp ip0, lr, [sp, #-16]!; .cfi_adjust_cfa_offset 16; .cfi_rel_offset lr, 8
  bl _libcairo_so_save_regs_and_resolve
  ldp xzr, lr, [sp], #16; .cfi_adjust_cfa_offset -16; .cfi_restore lr
  br ip0
  .cfi_endproc

/*
 * Copyright 2018-2025 Yury Gribov
 *
 * The MIT License (MIT)
 *
 * Use of this source code is governed by MIT license that can be
 * found in the LICENSE.txt file.
 */

  .globl cairo_font_face_get_type
  .p2align 4
  .type cairo_font_face_get_type, %function
#ifndef IMPLIB_EXPORT_SHIMS
  .hidden cairo_font_face_get_type
#endif
cairo_font_face_get_type:
  .cfi_startproc

1:
  // Load address
  // TODO: can we do this faster on newer ARMs?
  adrp ip0, _libcairo_so_tramp_table+328
  ldr ip0, [ip0, #:lo12:_libcairo_so_tramp_table+328]
 
  cbz ip0, 2f

  // Fast path
  br ip0

2:
  // Slow path
  mov ip0, 41 & 0xffff
#if 41 > 0xffff
  movk ip0, 41 >> 16, lsl #16
#endif
  stp ip0, lr, [sp, #-16]!; .cfi_adjust_cfa_offset 16; .cfi_rel_offset lr, 8
  bl _libcairo_so_save_regs_and_resolve
  ldp xzr, lr, [sp], #16; .cfi_adjust_cfa_offset -16; .cfi_restore lr
  br ip0
  .cfi_endproc

/*
 * Copyright 2018-2025 Yury Gribov
 *
 * The MIT License (MIT)
 *
 * Use of this source code is governed by MIT license that can be
 * found in the LICENSE.txt file.
 */

  .globl cairo_font_face_get_user_data
  .p2align 4
  .type cairo_font_face_get_user_data, %function
#ifndef IMPLIB_EXPORT_SHIMS
  .hidden cairo_font_face_get_user_data
#endif
cairo_font_face_get_user_data:
  .cfi_startproc

1:
  // Load address
  // TODO: can we do this faster on newer ARMs?
  adrp ip0, _libcairo_so_tramp_table+336
  ldr ip0, [ip0, #:lo12:_libcairo_so_tramp_table+336]
 
  cbz ip0, 2f

  // Fast path
  br ip0

2:
  // Slow path
  mov ip0, 42 & 0xffff
#if 42 > 0xffff
  movk ip0, 42 >> 16, lsl #16
#endif
  stp ip0, lr, [sp, #-16]!; .cfi_adjust_cfa_offset 16; .cfi_rel_offset lr, 8
  bl _libcairo_so_save_regs_and_resolve
  ldp xzr, lr, [sp], #16; .cfi_adjust_cfa_offset -16; .cfi_restore lr
  br ip0
  .cfi_endproc

/*
 * Copyright 2018-2025 Yury Gribov
 *
 * The MIT License (MIT)
 *
 * Use of this source code is governed by MIT license that can be
 * found in the LICENSE.txt file.
 */

  .globl cairo_font_face_reference
  .p2align 4
  .type cairo_font_face_reference, %function
#ifndef IMPLIB_EXPORT_SHIMS
  .hidden cairo_font_face_reference
#endif
cairo_font_face_reference:
  .cfi_startproc

1:
  // Load address
  // TODO: can we do this faster on newer ARMs?
  adrp ip0, _libcairo_so_tramp_table+344
  ldr ip0, [ip0, #:lo12:_libcairo_so_tramp_table+344]
 
  cbz ip0, 2f

  // Fast path
  br ip0

2:
  // Slow path
  mov ip0, 43 & 0xffff
#if 43 > 0xffff
  movk ip0, 43 >> 16, lsl #16
#endif
  stp ip0, lr, [sp, #-16]!; .cfi_adjust_cfa_offset 16; .cfi_rel_offset lr, 8
  bl _libcairo_so_save_regs_and_resolve
  ldp xzr, lr, [sp], #16; .cfi_adjust_cfa_offset -16; .cfi_restore lr
  br ip0
  .cfi_endproc

/*
 * Copyright 2018-2025 Yury Gribov
 *
 * The MIT License (MIT)
 *
 * Use of this source code is governed by MIT license that can be
 * found in the LICENSE.txt file.
 */

  .globl cairo_font_face_set_user_data
  .p2align 4
  .type cairo_font_face_set_user_data, %function
#ifndef IMPLIB_EXPORT_SHIMS
  .hidden cairo_font_face_set_user_data
#endif
cairo_font_face_set_user_data:
  .cfi_startproc

1:
  // Load address
  // TODO: can we do this faster on newer ARMs?
  adrp ip0, _libcairo_so_tramp_table+352
  ldr ip0, [ip0, #:lo12:_libcairo_so_tramp_table+352]
 
  cbz ip0, 2f

  // Fast path
  br ip0

2:
  // Slow path
  mov ip0, 44 & 0xffff
#if 44 > 0xffff
  movk ip0, 44 >> 16, lsl #16
#endif
  stp ip0, lr, [sp, #-16]!; .cfi_adjust_cfa_offset 16; .cfi_rel_offset lr, 8
  bl _libcairo_so_save_regs_and_resolve
  ldp xzr, lr, [sp], #16; .cfi_adjust_cfa_offset -16; .cfi_restore lr
  br ip0
  .cfi_endproc

/*
 * Copyright 2018-2025 Yury Gribov
 *
 * The MIT License (MIT)
 *
 * Use of this source code is governed by MIT license that can be
 * found in the LICENSE.txt file.
 */

  .globl cairo_font_face_status
  .p2align 4
  .type cairo_font_face_status, %function
#ifndef IMPLIB_EXPORT_SHIMS
  .hidden cairo_font_face_status
#endif
cairo_font_face_status:
  .cfi_startproc

1:
  // Load address
  // TODO: can we do this faster on newer ARMs?
  adrp ip0, _libcairo_so_tramp_table+360
  ldr ip0, [ip0, #:lo12:_libcairo_so_tramp_table+360]
 
  cbz ip0, 2f

  // Fast path
  br ip0

2:
  // Slow path
  mov ip0, 45 & 0xffff
#if 45 > 0xffff
  movk ip0, 45 >> 16, lsl #16
#endif
  stp ip0, lr, [sp, #-16]!; .cfi_adjust_cfa_offset 16; .cfi_rel_offset lr, 8
  bl _libcairo_so_save_regs_and_resolve
  ldp xzr, lr, [sp], #16; .cfi_adjust_cfa_offset -16; .cfi_restore lr
  br ip0
  .cfi_endproc

/*
 * Copyright 2018-2025 Yury Gribov
 *
 * The MIT License (MIT)
 *
 * Use of this source code is governed by MIT license that can be
 * found in the LICENSE.txt file.
 */

  .globl cairo_font_options_copy
  .p2align 4
  .type cairo_font_options_copy, %function
#ifndef IMPLIB_EXPORT_SHIMS
  .hidden cairo_font_options_copy
#endif
cairo_font_options_copy:
  .cfi_startproc

1:
  // Load address
  // TODO: can we do this faster on newer ARMs?
  adrp ip0, _libcairo_so_tramp_table+368
  ldr ip0, [ip0, #:lo12:_libcairo_so_tramp_table+368]
 
  cbz ip0, 2f

  // Fast path
  br ip0

2:
  // Slow path
  mov ip0, 46 & 0xffff
#if 46 > 0xffff
  movk ip0, 46 >> 16, lsl #16
#endif
  stp ip0, lr, [sp, #-16]!; .cfi_adjust_cfa_offset 16; .cfi_rel_offset lr, 8
  bl _libcairo_so_save_regs_and_resolve
  ldp xzr, lr, [sp], #16; .cfi_adjust_cfa_offset -16; .cfi_restore lr
  br ip0
  .cfi_endproc

/*
 * Copyright 2018-2025 Yury Gribov
 *
 * The MIT License (MIT)
 *
 * Use of this source code is governed by MIT license that can be
 * found in the LICENSE.txt file.
 */

  .globl cairo_font_options_create
  .p2align 4
  .type cairo_font_options_create, %function
#ifndef IMPLIB_EXPORT_SHIMS
  .hidden cairo_font_options_create
#endif
cairo_font_options_create:
  .cfi_startproc

1:
  // Load address
  // TODO: can we do this faster on newer ARMs?
  adrp ip0, _libcairo_so_tramp_table+376
  ldr ip0, [ip0, #:lo12:_libcairo_so_tramp_table+376]
 
  cbz ip0, 2f

  // Fast path
  br ip0

2:
  // Slow path
  mov ip0, 47 & 0xffff
#if 47 > 0xffff
  movk ip0, 47 >> 16, lsl #16
#endif
  stp ip0, lr, [sp, #-16]!; .cfi_adjust_cfa_offset 16; .cfi_rel_offset lr, 8
  bl _libcairo_so_save_regs_and_resolve
  ldp xzr, lr, [sp], #16; .cfi_adjust_cfa_offset -16; .cfi_restore lr
  br ip0
  .cfi_endproc

/*
 * Copyright 2018-2025 Yury Gribov
 *
 * The MIT License (MIT)
 *
 * Use of this source code is governed by MIT license that can be
 * found in the LICENSE.txt file.
 */

  .globl cairo_font_options_destroy
  .p2align 4
  .type cairo_font_options_destroy, %function
#ifndef IMPLIB_EXPORT_SHIMS
  .hidden cairo_font_options_destroy
#endif
cairo_font_options_destroy:
  .cfi_startproc

1:
  // Load address
  // TODO: can we do this faster on newer ARMs?
  adrp ip0, _libcairo_so_tramp_table+384
  ldr ip0, [ip0, #:lo12:_libcairo_so_tramp_table+384]
 
  cbz ip0, 2f

  // Fast path
  br ip0

2:
  // Slow path
  mov ip0, 48 & 0xffff
#if 48 > 0xffff
  movk ip0, 48 >> 16, lsl #16
#endif
  stp ip0, lr, [sp, #-16]!; .cfi_adjust_cfa_offset 16; .cfi_rel_offset lr, 8
  bl _libcairo_so_save_regs_and_resolve
  ldp xzr, lr, [sp], #16; .cfi_adjust_cfa_offset -16; .cfi_restore lr
  br ip0
  .cfi_endproc

/*
 * Copyright 2018-2025 Yury Gribov
 *
 * The MIT License (MIT)
 *
 * Use of this source code is governed by MIT license that can be
 * found in the LICENSE.txt file.
 */

  .globl cairo_font_options_equal
  .p2align 4
  .type cairo_font_options_equal, %function
#ifndef IMPLIB_EXPORT_SHIMS
  .hidden cairo_font_options_equal
#endif
cairo_font_options_equal:
  .cfi_startproc

1:
  // Load address
  // TODO: can we do this faster on newer ARMs?
  adrp ip0, _libcairo_so_tramp_table+392
  ldr ip0, [ip0, #:lo12:_libcairo_so_tramp_table+392]
 
  cbz ip0, 2f

  // Fast path
  br ip0

2:
  // Slow path
  mov ip0, 49 & 0xffff
#if 49 > 0xffff
  movk ip0, 49 >> 16, lsl #16
#endif
  stp ip0, lr, [sp, #-16]!; .cfi_adjust_cfa_offset 16; .cfi_rel_offset lr, 8
  bl _libcairo_so_save_regs_and_resolve
  ldp xzr, lr, [sp], #16; .cfi_adjust_cfa_offset -16; .cfi_restore lr
  br ip0
  .cfi_endproc

/*
 * Copyright 2018-2025 Yury Gribov
 *
 * The MIT License (MIT)
 *
 * Use of this source code is governed by MIT license that can be
 * found in the LICENSE.txt file.
 */

  .globl cairo_font_options_get_antialias
  .p2align 4
  .type cairo_font_options_get_antialias, %function
#ifndef IMPLIB_EXPORT_SHIMS
  .hidden cairo_font_options_get_antialias
#endif
cairo_font_options_get_antialias:
  .cfi_startproc

1:
  // Load address
  // TODO: can we do this faster on newer ARMs?
  adrp ip0, _libcairo_so_tramp_table+400
  ldr ip0, [ip0, #:lo12:_libcairo_so_tramp_table+400]
 
  cbz ip0, 2f

  // Fast path
  br ip0

2:
  // Slow path
  mov ip0, 50 & 0xffff
#if 50 > 0xffff
  movk ip0, 50 >> 16, lsl #16
#endif
  stp ip0, lr, [sp, #-16]!; .cfi_adjust_cfa_offset 16; .cfi_rel_offset lr, 8
  bl _libcairo_so_save_regs_and_resolve
  ldp xzr, lr, [sp], #16; .cfi_adjust_cfa_offset -16; .cfi_restore lr
  br ip0
  .cfi_endproc

/*
 * Copyright 2018-2025 Yury Gribov
 *
 * The MIT License (MIT)
 *
 * Use of this source code is governed by MIT license that can be
 * found in the LICENSE.txt file.
 */

  .globl cairo_font_options_get_color_mode
  .p2align 4
  .type cairo_font_options_get_color_mode, %function
#ifndef IMPLIB_EXPORT_SHIMS
  .hidden cairo_font_options_get_color_mode
#endif
cairo_font_options_get_color_mode:
  .cfi_startproc

1:
  // Load address
  // TODO: can we do this faster on newer ARMs?
  adrp ip0, _libcairo_so_tramp_table+408
  ldr ip0, [ip0, #:lo12:_libcairo_so_tramp_table+408]
 
  cbz ip0, 2f

  // Fast path
  br ip0

2:
  // Slow path
  mov ip0, 51 & 0xffff
#if 51 > 0xffff
  movk ip0, 51 >> 16, lsl #16
#endif
  stp ip0, lr, [sp, #-16]!; .cfi_adjust_cfa_offset 16; .cfi_rel_offset lr, 8
  bl _libcairo_so_save_regs_and_resolve
  ldp xzr, lr, [sp], #16; .cfi_adjust_cfa_offset -16; .cfi_restore lr
  br ip0
  .cfi_endproc

/*
 * Copyright 2018-2025 Yury Gribov
 *
 * The MIT License (MIT)
 *
 * Use of this source code is governed by MIT license that can be
 * found in the LICENSE.txt file.
 */

  .globl cairo_font_options_get_color_palette
  .p2align 4
  .type cairo_font_options_get_color_palette, %function
#ifndef IMPLIB_EXPORT_SHIMS
  .hidden cairo_font_options_get_color_palette
#endif
cairo_font_options_get_color_palette:
  .cfi_startproc

1:
  // Load address
  // TODO: can we do this faster on newer ARMs?
  adrp ip0, _libcairo_so_tramp_table+416
  ldr ip0, [ip0, #:lo12:_libcairo_so_tramp_table+416]
 
  cbz ip0, 2f

  // Fast path
  br ip0

2:
  // Slow path
  mov ip0, 52 & 0xffff
#if 52 > 0xffff
  movk ip0, 52 >> 16, lsl #16
#endif
  stp ip0, lr, [sp, #-16]!; .cfi_adjust_cfa_offset 16; .cfi_rel_offset lr, 8
  bl _libcairo_so_save_regs_and_resolve
  ldp xzr, lr, [sp], #16; .cfi_adjust_cfa_offset -16; .cfi_restore lr
  br ip0
  .cfi_endproc

/*
 * Copyright 2018-2025 Yury Gribov
 *
 * The MIT License (MIT)
 *
 * Use of this source code is governed by MIT license that can be
 * found in the LICENSE.txt file.
 */

  .globl cairo_font_options_get_custom_palette_color
  .p2align 4
  .type cairo_font_options_get_custom_palette_color, %function
#ifndef IMPLIB_EXPORT_SHIMS
  .hidden cairo_font_options_get_custom_palette_color
#endif
cairo_font_options_get_custom_palette_color:
  .cfi_startproc

1:
  // Load address
  // TODO: can we do this faster on newer ARMs?
  adrp ip0, _libcairo_so_tramp_table+424
  ldr ip0, [ip0, #:lo12:_libcairo_so_tramp_table+424]
 
  cbz ip0, 2f

  // Fast path
  br ip0

2:
  // Slow path
  mov ip0, 53 & 0xffff
#if 53 > 0xffff
  movk ip0, 53 >> 16, lsl #16
#endif
  stp ip0, lr, [sp, #-16]!; .cfi_adjust_cfa_offset 16; .cfi_rel_offset lr, 8
  bl _libcairo_so_save_regs_and_resolve
  ldp xzr, lr, [sp], #16; .cfi_adjust_cfa_offset -16; .cfi_restore lr
  br ip0
  .cfi_endproc

/*
 * Copyright 2018-2025 Yury Gribov
 *
 * The MIT License (MIT)
 *
 * Use of this source code is governed by MIT license that can be
 * found in the LICENSE.txt file.
 */

  .globl cairo_font_options_get_hint_metrics
  .p2align 4
  .type cairo_font_options_get_hint_metrics, %function
#ifndef IMPLIB_EXPORT_SHIMS
  .hidden cairo_font_options_get_hint_metrics
#endif
cairo_font_options_get_hint_metrics:
  .cfi_startproc

1:
  // Load address
  // TODO: can we do this faster on newer ARMs?
  adrp ip0, _libcairo_so_tramp_table+432
  ldr ip0, [ip0, #:lo12:_libcairo_so_tramp_table+432]
 
  cbz ip0, 2f

  // Fast path
  br ip0

2:
  // Slow path
  mov ip0, 54 & 0xffff
#if 54 > 0xffff
  movk ip0, 54 >> 16, lsl #16
#endif
  stp ip0, lr, [sp, #-16]!; .cfi_adjust_cfa_offset 16; .cfi_rel_offset lr, 8
  bl _libcairo_so_save_regs_and_resolve
  ldp xzr, lr, [sp], #16; .cfi_adjust_cfa_offset -16; .cfi_restore lr
  br ip0
  .cfi_endproc

/*
 * Copyright 2018-2025 Yury Gribov
 *
 * The MIT License (MIT)
 *
 * Use of this source code is governed by MIT license that can be
 * found in the LICENSE.txt file.
 */

  .globl cairo_font_options_get_hint_style
  .p2align 4
  .type cairo_font_options_get_hint_style, %function
#ifndef IMPLIB_EXPORT_SHIMS
  .hidden cairo_font_options_get_hint_style
#endif
cairo_font_options_get_hint_style:
  .cfi_startproc

1:
  // Load address
  // TODO: can we do this faster on newer ARMs?
  adrp ip0, _libcairo_so_tramp_table+440
  ldr ip0, [ip0, #:lo12:_libcairo_so_tramp_table+440]
 
  cbz ip0, 2f

  // Fast path
  br ip0

2:
  // Slow path
  mov ip0, 55 & 0xffff
#if 55 > 0xffff
  movk ip0, 55 >> 16, lsl #16
#endif
  stp ip0, lr, [sp, #-16]!; .cfi_adjust_cfa_offset 16; .cfi_rel_offset lr, 8
  bl _libcairo_so_save_regs_and_resolve
  ldp xzr, lr, [sp], #16; .cfi_adjust_cfa_offset -16; .cfi_restore lr
  br ip0
  .cfi_endproc

/*
 * Copyright 2018-2025 Yury Gribov
 *
 * The MIT License (MIT)
 *
 * Use of this source code is governed by MIT license that can be
 * found in the LICENSE.txt file.
 */

  .globl cairo_font_options_get_subpixel_order
  .p2align 4
  .type cairo_font_options_get_subpixel_order, %function
#ifndef IMPLIB_EXPORT_SHIMS
  .hidden cairo_font_options_get_subpixel_order
#endif
cairo_font_options_get_subpixel_order:
  .cfi_startproc

1:
  // Load address
  // TODO: can we do this faster on newer ARMs?
  adrp ip0, _libcairo_so_tramp_table+448
  ldr ip0, [ip0, #:lo12:_libcairo_so_tramp_table+448]
 
  cbz ip0, 2f

  // Fast path
  br ip0

2:
  // Slow path
  mov ip0, 56 & 0xffff
#if 56 > 0xffff
  movk ip0, 56 >> 16, lsl #16
#endif
  stp ip0, lr, [sp, #-16]!; .cfi_adjust_cfa_offset 16; .cfi_rel_offset lr, 8
  bl _libcairo_so_save_regs_and_resolve
  ldp xzr, lr, [sp], #16; .cfi_adjust_cfa_offset -16; .cfi_restore lr
  br ip0
  .cfi_endproc

/*
 * Copyright 2018-2025 Yury Gribov
 *
 * The MIT License (MIT)
 *
 * Use of this source code is governed by MIT license that can be
 * found in the LICENSE.txt file.
 */

  .globl cairo_font_options_get_variations
  .p2align 4
  .type cairo_font_options_get_variations, %function
#ifndef IMPLIB_EXPORT_SHIMS
  .hidden cairo_font_options_get_variations
#endif
cairo_font_options_get_variations:
  .cfi_startproc

1:
  // Load address
  // TODO: can we do this faster on newer ARMs?
  adrp ip0, _libcairo_so_tramp_table+456
  ldr ip0, [ip0, #:lo12:_libcairo_so_tramp_table+456]
 
  cbz ip0, 2f

  // Fast path
  br ip0

2:
  // Slow path
  mov ip0, 57 & 0xffff
#if 57 > 0xffff
  movk ip0, 57 >> 16, lsl #16
#endif
  stp ip0, lr, [sp, #-16]!; .cfi_adjust_cfa_offset 16; .cfi_rel_offset lr, 8
  bl _libcairo_so_save_regs_and_resolve
  ldp xzr, lr, [sp], #16; .cfi_adjust_cfa_offset -16; .cfi_restore lr
  br ip0
  .cfi_endproc

/*
 * Copyright 2018-2025 Yury Gribov
 *
 * The MIT License (MIT)
 *
 * Use of this source code is governed by MIT license that can be
 * found in the LICENSE.txt file.
 */

  .globl cairo_font_options_hash
  .p2align 4
  .type cairo_font_options_hash, %function
#ifndef IMPLIB_EXPORT_SHIMS
  .hidden cairo_font_options_hash
#endif
cairo_font_options_hash:
  .cfi_startproc

1:
  // Load address
  // TODO: can we do this faster on newer ARMs?
  adrp ip0, _libcairo_so_tramp_table+464
  ldr ip0, [ip0, #:lo12:_libcairo_so_tramp_table+464]
 
  cbz ip0, 2f

  // Fast path
  br ip0

2:
  // Slow path
  mov ip0, 58 & 0xffff
#if 58 > 0xffff
  movk ip0, 58 >> 16, lsl #16
#endif
  stp ip0, lr, [sp, #-16]!; .cfi_adjust_cfa_offset 16; .cfi_rel_offset lr, 8
  bl _libcairo_so_save_regs_and_resolve
  ldp xzr, lr, [sp], #16; .cfi_adjust_cfa_offset -16; .cfi_restore lr
  br ip0
  .cfi_endproc

/*
 * Copyright 2018-2025 Yury Gribov
 *
 * The MIT License (MIT)
 *
 * Use of this source code is governed by MIT license that can be
 * found in the LICENSE.txt file.
 */

  .globl cairo_font_options_merge
  .p2align 4
  .type cairo_font_options_merge, %function
#ifndef IMPLIB_EXPORT_SHIMS
  .hidden cairo_font_options_merge
#endif
cairo_font_options_merge:
  .cfi_startproc

1:
  // Load address
  // TODO: can we do this faster on newer ARMs?
  adrp ip0, _libcairo_so_tramp_table+472
  ldr ip0, [ip0, #:lo12:_libcairo_so_tramp_table+472]
 
  cbz ip0, 2f

  // Fast path
  br ip0

2:
  // Slow path
  mov ip0, 59 & 0xffff
#if 59 > 0xffff
  movk ip0, 59 >> 16, lsl #16
#endif
  stp ip0, lr, [sp, #-16]!; .cfi_adjust_cfa_offset 16; .cfi_rel_offset lr, 8
  bl _libcairo_so_save_regs_and_resolve
  ldp xzr, lr, [sp], #16; .cfi_adjust_cfa_offset -16; .cfi_restore lr
  br ip0
  .cfi_endproc

/*
 * Copyright 2018-2025 Yury Gribov
 *
 * The MIT License (MIT)
 *
 * Use of this source code is governed by MIT license that can be
 * found in the LICENSE.txt file.
 */

  .globl cairo_font_options_set_antialias
  .p2align 4
  .type cairo_font_options_set_antialias, %function
#ifndef IMPLIB_EXPORT_SHIMS
  .hidden cairo_font_options_set_antialias
#endif
cairo_font_options_set_antialias:
  .cfi_startproc

1:
  // Load address
  // TODO: can we do this faster on newer ARMs?
  adrp ip0, _libcairo_so_tramp_table+480
  ldr ip0, [ip0, #:lo12:_libcairo_so_tramp_table+480]
 
  cbz ip0, 2f

  // Fast path
  br ip0

2:
  // Slow path
  mov ip0, 60 & 0xffff
#if 60 > 0xffff
  movk ip0, 60 >> 16, lsl #16
#endif
  stp ip0, lr, [sp, #-16]!; .cfi_adjust_cfa_offset 16; .cfi_rel_offset lr, 8
  bl _libcairo_so_save_regs_and_resolve
  ldp xzr, lr, [sp], #16; .cfi_adjust_cfa_offset -16; .cfi_restore lr
  br ip0
  .cfi_endproc

/*
 * Copyright 2018-2025 Yury Gribov
 *
 * The MIT License (MIT)
 *
 * Use of this source code is governed by MIT license that can be
 * found in the LICENSE.txt file.
 */

  .globl cairo_font_options_set_color_mode
  .p2align 4
  .type cairo_font_options_set_color_mode, %function
#ifndef IMPLIB_EXPORT_SHIMS
  .hidden cairo_font_options_set_color_mode
#endif
cairo_font_options_set_color_mode:
  .cfi_startproc

1:
  // Load address
  // TODO: can we do this faster on newer ARMs?
  adrp ip0, _libcairo_so_tramp_table+488
  ldr ip0, [ip0, #:lo12:_libcairo_so_tramp_table+488]
 
  cbz ip0, 2f

  // Fast path
  br ip0

2:
  // Slow path
  mov ip0, 61 & 0xffff
#if 61 > 0xffff
  movk ip0, 61 >> 16, lsl #16
#endif
  stp ip0, lr, [sp, #-16]!; .cfi_adjust_cfa_offset 16; .cfi_rel_offset lr, 8
  bl _libcairo_so_save_regs_and_resolve
  ldp xzr, lr, [sp], #16; .cfi_adjust_cfa_offset -16; .cfi_restore lr
  br ip0
  .cfi_endproc

/*
 * Copyright 2018-2025 Yury Gribov
 *
 * The MIT License (MIT)
 *
 * Use of this source code is governed by MIT license that can be
 * found in the LICENSE.txt file.
 */

  .globl cairo_font_options_set_color_palette
  .p2align 4
  .type cairo_font_options_set_color_palette, %function
#ifndef IMPLIB_EXPORT_SHIMS
  .hidden cairo_font_options_set_color_palette
#endif
cairo_font_options_set_color_palette:
  .cfi_startproc

1:
  // Load address
  // TODO: can we do this faster on newer ARMs?
  adrp ip0, _libcairo_so_tramp_table+496
  ldr ip0, [ip0, #:lo12:_libcairo_so_tramp_table+496]
 
  cbz ip0, 2f

  // Fast path
  br ip0

2:
  // Slow path
  mov ip0, 62 & 0xffff
#if 62 > 0xffff
  movk ip0, 62 >> 16, lsl #16
#endif
  stp ip0, lr, [sp, #-16]!; .cfi_adjust_cfa_offset 16; .cfi_rel_offset lr, 8
  bl _libcairo_so_save_regs_and_resolve
  ldp xzr, lr, [sp], #16; .cfi_adjust_cfa_offset -16; .cfi_restore lr
  br ip0
  .cfi_endproc

/*
 * Copyright 2018-2025 Yury Gribov
 *
 * The MIT License (MIT)
 *
 * Use of this source code is governed by MIT license that can be
 * found in the LICENSE.txt file.
 */

  .globl cairo_font_options_set_custom_palette_color
  .p2align 4
  .type cairo_font_options_set_custom_palette_color, %function
#ifndef IMPLIB_EXPORT_SHIMS
  .hidden cairo_font_options_set_custom_palette_color
#endif
cairo_font_options_set_custom_palette_color:
  .cfi_startproc

1:
  // Load address
  // TODO: can we do this faster on newer ARMs?
  adrp ip0, _libcairo_so_tramp_table+504
  ldr ip0, [ip0, #:lo12:_libcairo_so_tramp_table+504]
 
  cbz ip0, 2f

  // Fast path
  br ip0

2:
  // Slow path
  mov ip0, 63 & 0xffff
#if 63 > 0xffff
  movk ip0, 63 >> 16, lsl #16
#endif
  stp ip0, lr, [sp, #-16]!; .cfi_adjust_cfa_offset 16; .cfi_rel_offset lr, 8
  bl _libcairo_so_save_regs_and_resolve
  ldp xzr, lr, [sp], #16; .cfi_adjust_cfa_offset -16; .cfi_restore lr
  br ip0
  .cfi_endproc

/*
 * Copyright 2018-2025 Yury Gribov
 *
 * The MIT License (MIT)
 *
 * Use of this source code is governed by MIT license that can be
 * found in the LICENSE.txt file.
 */

  .globl cairo_font_options_set_hint_metrics
  .p2align 4
  .type cairo_font_options_set_hint_metrics, %function
#ifndef IMPLIB_EXPORT_SHIMS
  .hidden cairo_font_options_set_hint_metrics
#endif
cairo_font_options_set_hint_metrics:
  .cfi_startproc

1:
  // Load address
  // TODO: can we do this faster on newer ARMs?
  adrp ip0, _libcairo_so_tramp_table+512
  ldr ip0, [ip0, #:lo12:_libcairo_so_tramp_table+512]
 
  cbz ip0, 2f

  // Fast path
  br ip0

2:
  // Slow path
  mov ip0, 64 & 0xffff
#if 64 > 0xffff
  movk ip0, 64 >> 16, lsl #16
#endif
  stp ip0, lr, [sp, #-16]!; .cfi_adjust_cfa_offset 16; .cfi_rel_offset lr, 8
  bl _libcairo_so_save_regs_and_resolve
  ldp xzr, lr, [sp], #16; .cfi_adjust_cfa_offset -16; .cfi_restore lr
  br ip0
  .cfi_endproc

/*
 * Copyright 2018-2025 Yury Gribov
 *
 * The MIT License (MIT)
 *
 * Use of this source code is governed by MIT license that can be
 * found in the LICENSE.txt file.
 */

  .globl cairo_font_options_set_hint_style
  .p2align 4
  .type cairo_font_options_set_hint_style, %function
#ifndef IMPLIB_EXPORT_SHIMS
  .hidden cairo_font_options_set_hint_style
#endif
cairo_font_options_set_hint_style:
  .cfi_startproc

1:
  // Load address
  // TODO: can we do this faster on newer ARMs?
  adrp ip0, _libcairo_so_tramp_table+520
  ldr ip0, [ip0, #:lo12:_libcairo_so_tramp_table+520]
 
  cbz ip0, 2f

  // Fast path
  br ip0

2:
  // Slow path
  mov ip0, 65 & 0xffff
#if 65 > 0xffff
  movk ip0, 65 >> 16, lsl #16
#endif
  stp ip0, lr, [sp, #-16]!; .cfi_adjust_cfa_offset 16; .cfi_rel_offset lr, 8
  bl _libcairo_so_save_regs_and_resolve
  ldp xzr, lr, [sp], #16; .cfi_adjust_cfa_offset -16; .cfi_restore lr
  br ip0
  .cfi_endproc

/*
 * Copyright 2018-2025 Yury Gribov
 *
 * The MIT License (MIT)
 *
 * Use of this source code is governed by MIT license that can be
 * found in the LICENSE.txt file.
 */

  .globl cairo_font_options_set_subpixel_order
  .p2align 4
  .type cairo_font_options_set_subpixel_order, %function
#ifndef IMPLIB_EXPORT_SHIMS
  .hidden cairo_font_options_set_subpixel_order
#endif
cairo_font_options_set_subpixel_order:
  .cfi_startproc

1:
  // Load address
  // TODO: can we do this faster on newer ARMs?
  adrp ip0, _libcairo_so_tramp_table+528
  ldr ip0, [ip0, #:lo12:_libcairo_so_tramp_table+528]
 
  cbz ip0, 2f

  // Fast path
  br ip0

2:
  // Slow path
  mov ip0, 66 & 0xffff
#if 66 > 0xffff
  movk ip0, 66 >> 16, lsl #16
#endif
  stp ip0, lr, [sp, #-16]!; .cfi_adjust_cfa_offset 16; .cfi_rel_offset lr, 8
  bl _libcairo_so_save_regs_and_resolve
  ldp xzr, lr, [sp], #16; .cfi_adjust_cfa_offset -16; .cfi_restore lr
  br ip0
  .cfi_endproc

/*
 * Copyright 2018-2025 Yury Gribov
 *
 * The MIT License (MIT)
 *
 * Use of this source code is governed by MIT license that can be
 * found in the LICENSE.txt file.
 */

  .globl cairo_font_options_set_variations
  .p2align 4
  .type cairo_font_options_set_variations, %function
#ifndef IMPLIB_EXPORT_SHIMS
  .hidden cairo_font_options_set_variations
#endif
cairo_font_options_set_variations:
  .cfi_startproc

1:
  // Load address
  // TODO: can we do this faster on newer ARMs?
  adrp ip0, _libcairo_so_tramp_table+536
  ldr ip0, [ip0, #:lo12:_libcairo_so_tramp_table+536]
 
  cbz ip0, 2f

  // Fast path
  br ip0

2:
  // Slow path
  mov ip0, 67 & 0xffff
#if 67 > 0xffff
  movk ip0, 67 >> 16, lsl #16
#endif
  stp ip0, lr, [sp, #-16]!; .cfi_adjust_cfa_offset 16; .cfi_rel_offset lr, 8
  bl _libcairo_so_save_regs_and_resolve
  ldp xzr, lr, [sp], #16; .cfi_adjust_cfa_offset -16; .cfi_restore lr
  br ip0
  .cfi_endproc

/*
 * Copyright 2018-2025 Yury Gribov
 *
 * The MIT License (MIT)
 *
 * Use of this source code is governed by MIT license that can be
 * found in the LICENSE.txt file.
 */

  .globl cairo_font_options_status
  .p2align 4
  .type cairo_font_options_status, %function
#ifndef IMPLIB_EXPORT_SHIMS
  .hidden cairo_font_options_status
#endif
cairo_font_options_status:
  .cfi_startproc

1:
  // Load address
  // TODO: can we do this faster on newer ARMs?
  adrp ip0, _libcairo_so_tramp_table+544
  ldr ip0, [ip0, #:lo12:_libcairo_so_tramp_table+544]
 
  cbz ip0, 2f

  // Fast path
  br ip0

2:
  // Slow path
  mov ip0, 68 & 0xffff
#if 68 > 0xffff
  movk ip0, 68 >> 16, lsl #16
#endif
  stp ip0, lr, [sp, #-16]!; .cfi_adjust_cfa_offset 16; .cfi_rel_offset lr, 8
  bl _libcairo_so_save_regs_and_resolve
  ldp xzr, lr, [sp], #16; .cfi_adjust_cfa_offset -16; .cfi_restore lr
  br ip0
  .cfi_endproc

/*
 * Copyright 2018-2025 Yury Gribov
 *
 * The MIT License (MIT)
 *
 * Use of this source code is governed by MIT license that can be
 * found in the LICENSE.txt file.
 */

  .globl cairo_format_stride_for_width
  .p2align 4
  .type cairo_format_stride_for_width, %function
#ifndef IMPLIB_EXPORT_SHIMS
  .hidden cairo_format_stride_for_width
#endif
cairo_format_stride_for_width:
  .cfi_startproc

1:
  // Load address
  // TODO: can we do this faster on newer ARMs?
  adrp ip0, _libcairo_so_tramp_table+552
  ldr ip0, [ip0, #:lo12:_libcairo_so_tramp_table+552]
 
  cbz ip0, 2f

  // Fast path
  br ip0

2:
  // Slow path
  mov ip0, 69 & 0xffff
#if 69 > 0xffff
  movk ip0, 69 >> 16, lsl #16
#endif
  stp ip0, lr, [sp, #-16]!; .cfi_adjust_cfa_offset 16; .cfi_rel_offset lr, 8
  bl _libcairo_so_save_regs_and_resolve
  ldp xzr, lr, [sp], #16; .cfi_adjust_cfa_offset -16; .cfi_restore lr
  br ip0
  .cfi_endproc

/*
 * Copyright 2018-2025 Yury Gribov
 *
 * The MIT License (MIT)
 *
 * Use of this source code is governed by MIT license that can be
 * found in the LICENSE.txt file.
 */

  .globl cairo_ft_font_face_create_for_ft_face
  .p2align 4
  .type cairo_ft_font_face_create_for_ft_face, %function
#ifndef IMPLIB_EXPORT_SHIMS
  .hidden cairo_ft_font_face_create_for_ft_face
#endif
cairo_ft_font_face_create_for_ft_face:
  .cfi_startproc

1:
  // Load address
  // TODO: can we do this faster on newer ARMs?
  adrp ip0, _libcairo_so_tramp_table+560
  ldr ip0, [ip0, #:lo12:_libcairo_so_tramp_table+560]
 
  cbz ip0, 2f

  // Fast path
  br ip0

2:
  // Slow path
  mov ip0, 70 & 0xffff
#if 70 > 0xffff
  movk ip0, 70 >> 16, lsl #16
#endif
  stp ip0, lr, [sp, #-16]!; .cfi_adjust_cfa_offset 16; .cfi_rel_offset lr, 8
  bl _libcairo_so_save_regs_and_resolve
  ldp xzr, lr, [sp], #16; .cfi_adjust_cfa_offset -16; .cfi_restore lr
  br ip0
  .cfi_endproc

/*
 * Copyright 2018-2025 Yury Gribov
 *
 * The MIT License (MIT)
 *
 * Use of this source code is governed by MIT license that can be
 * found in the LICENSE.txt file.
 */

  .globl cairo_ft_font_face_create_for_pattern
  .p2align 4
  .type cairo_ft_font_face_create_for_pattern, %function
#ifndef IMPLIB_EXPORT_SHIMS
  .hidden cairo_ft_font_face_create_for_pattern
#endif
cairo_ft_font_face_create_for_pattern:
  .cfi_startproc

1:
  // Load address
  // TODO: can we do this faster on newer ARMs?
  adrp ip0, _libcairo_so_tramp_table+568
  ldr ip0, [ip0, #:lo12:_libcairo_so_tramp_table+568]
 
  cbz ip0, 2f

  // Fast path
  br ip0

2:
  // Slow path
  mov ip0, 71 & 0xffff
#if 71 > 0xffff
  movk ip0, 71 >> 16, lsl #16
#endif
  stp ip0, lr, [sp, #-16]!; .cfi_adjust_cfa_offset 16; .cfi_rel_offset lr, 8
  bl _libcairo_so_save_regs_and_resolve
  ldp xzr, lr, [sp], #16; .cfi_adjust_cfa_offset -16; .cfi_restore lr
  br ip0
  .cfi_endproc

/*
 * Copyright 2018-2025 Yury Gribov
 *
 * The MIT License (MIT)
 *
 * Use of this source code is governed by MIT license that can be
 * found in the LICENSE.txt file.
 */

  .globl cairo_ft_font_face_get_synthesize
  .p2align 4
  .type cairo_ft_font_face_get_synthesize, %function
#ifndef IMPLIB_EXPORT_SHIMS
  .hidden cairo_ft_font_face_get_synthesize
#endif
cairo_ft_font_face_get_synthesize:
  .cfi_startproc

1:
  // Load address
  // TODO: can we do this faster on newer ARMs?
  adrp ip0, _libcairo_so_tramp_table+576
  ldr ip0, [ip0, #:lo12:_libcairo_so_tramp_table+576]
 
  cbz ip0, 2f

  // Fast path
  br ip0

2:
  // Slow path
  mov ip0, 72 & 0xffff
#if 72 > 0xffff
  movk ip0, 72 >> 16, lsl #16
#endif
  stp ip0, lr, [sp, #-16]!; .cfi_adjust_cfa_offset 16; .cfi_rel_offset lr, 8
  bl _libcairo_so_save_regs_and_resolve
  ldp xzr, lr, [sp], #16; .cfi_adjust_cfa_offset -16; .cfi_restore lr
  br ip0
  .cfi_endproc

/*
 * Copyright 2018-2025 Yury Gribov
 *
 * The MIT License (MIT)
 *
 * Use of this source code is governed by MIT license that can be
 * found in the LICENSE.txt file.
 */

  .globl cairo_ft_font_face_set_synthesize
  .p2align 4
  .type cairo_ft_font_face_set_synthesize, %function
#ifndef IMPLIB_EXPORT_SHIMS
  .hidden cairo_ft_font_face_set_synthesize
#endif
cairo_ft_font_face_set_synthesize:
  .cfi_startproc

1:
  // Load address
  // TODO: can we do this faster on newer ARMs?
  adrp ip0, _libcairo_so_tramp_table+584
  ldr ip0, [ip0, #:lo12:_libcairo_so_tramp_table+584]
 
  cbz ip0, 2f

  // Fast path
  br ip0

2:
  // Slow path
  mov ip0, 73 & 0xffff
#if 73 > 0xffff
  movk ip0, 73 >> 16, lsl #16
#endif
  stp ip0, lr, [sp, #-16]!; .cfi_adjust_cfa_offset 16; .cfi_rel_offset lr, 8
  bl _libcairo_so_save_regs_and_resolve
  ldp xzr, lr, [sp], #16; .cfi_adjust_cfa_offset -16; .cfi_restore lr
  br ip0
  .cfi_endproc

/*
 * Copyright 2018-2025 Yury Gribov
 *
 * The MIT License (MIT)
 *
 * Use of this source code is governed by MIT license that can be
 * found in the LICENSE.txt file.
 */

  .globl cairo_ft_font_face_unset_synthesize
  .p2align 4
  .type cairo_ft_font_face_unset_synthesize, %function
#ifndef IMPLIB_EXPORT_SHIMS
  .hidden cairo_ft_font_face_unset_synthesize
#endif
cairo_ft_font_face_unset_synthesize:
  .cfi_startproc

1:
  // Load address
  // TODO: can we do this faster on newer ARMs?
  adrp ip0, _libcairo_so_tramp_table+592
  ldr ip0, [ip0, #:lo12:_libcairo_so_tramp_table+592]
 
  cbz ip0, 2f

  // Fast path
  br ip0

2:
  // Slow path
  mov ip0, 74 & 0xffff
#if 74 > 0xffff
  movk ip0, 74 >> 16, lsl #16
#endif
  stp ip0, lr, [sp, #-16]!; .cfi_adjust_cfa_offset 16; .cfi_rel_offset lr, 8
  bl _libcairo_so_save_regs_and_resolve
  ldp xzr, lr, [sp], #16; .cfi_adjust_cfa_offset -16; .cfi_restore lr
  br ip0
  .cfi_endproc

/*
 * Copyright 2018-2025 Yury Gribov
 *
 * The MIT License (MIT)
 *
 * Use of this source code is governed by MIT license that can be
 * found in the LICENSE.txt file.
 */

  .globl cairo_ft_font_options_substitute
  .p2align 4
  .type cairo_ft_font_options_substitute, %function
#ifndef IMPLIB_EXPORT_SHIMS
  .hidden cairo_ft_font_options_substitute
#endif
cairo_ft_font_options_substitute:
  .cfi_startproc

1:
  // Load address
  // TODO: can we do this faster on newer ARMs?
  adrp ip0, _libcairo_so_tramp_table+600
  ldr ip0, [ip0, #:lo12:_libcairo_so_tramp_table+600]
 
  cbz ip0, 2f

  // Fast path
  br ip0

2:
  // Slow path
  mov ip0, 75 & 0xffff
#if 75 > 0xffff
  movk ip0, 75 >> 16, lsl #16
#endif
  stp ip0, lr, [sp, #-16]!; .cfi_adjust_cfa_offset 16; .cfi_rel_offset lr, 8
  bl _libcairo_so_save_regs_and_resolve
  ldp xzr, lr, [sp], #16; .cfi_adjust_cfa_offset -16; .cfi_restore lr
  br ip0
  .cfi_endproc

/*
 * Copyright 2018-2025 Yury Gribov
 *
 * The MIT License (MIT)
 *
 * Use of this source code is governed by MIT license that can be
 * found in the LICENSE.txt file.
 */

  .globl cairo_ft_scaled_font_lock_face
  .p2align 4
  .type cairo_ft_scaled_font_lock_face, %function
#ifndef IMPLIB_EXPORT_SHIMS
  .hidden cairo_ft_scaled_font_lock_face
#endif
cairo_ft_scaled_font_lock_face:
  .cfi_startproc

1:
  // Load address
  // TODO: can we do this faster on newer ARMs?
  adrp ip0, _libcairo_so_tramp_table+608
  ldr ip0, [ip0, #:lo12:_libcairo_so_tramp_table+608]
 
  cbz ip0, 2f

  // Fast path
  br ip0

2:
  // Slow path
  mov ip0, 76 & 0xffff
#if 76 > 0xffff
  movk ip0, 76 >> 16, lsl #16
#endif
  stp ip0, lr, [sp, #-16]!; .cfi_adjust_cfa_offset 16; .cfi_rel_offset lr, 8
  bl _libcairo_so_save_regs_and_resolve
  ldp xzr, lr, [sp], #16; .cfi_adjust_cfa_offset -16; .cfi_restore lr
  br ip0
  .cfi_endproc

/*
 * Copyright 2018-2025 Yury Gribov
 *
 * The MIT License (MIT)
 *
 * Use of this source code is governed by MIT license that can be
 * found in the LICENSE.txt file.
 */

  .globl cairo_ft_scaled_font_unlock_face
  .p2align 4
  .type cairo_ft_scaled_font_unlock_face, %function
#ifndef IMPLIB_EXPORT_SHIMS
  .hidden cairo_ft_scaled_font_unlock_face
#endif
cairo_ft_scaled_font_unlock_face:
  .cfi_startproc

1:
  // Load address
  // TODO: can we do this faster on newer ARMs?
  adrp ip0, _libcairo_so_tramp_table+616
  ldr ip0, [ip0, #:lo12:_libcairo_so_tramp_table+616]
 
  cbz ip0, 2f

  // Fast path
  br ip0

2:
  // Slow path
  mov ip0, 77 & 0xffff
#if 77 > 0xffff
  movk ip0, 77 >> 16, lsl #16
#endif
  stp ip0, lr, [sp, #-16]!; .cfi_adjust_cfa_offset 16; .cfi_rel_offset lr, 8
  bl _libcairo_so_save_regs_and_resolve
  ldp xzr, lr, [sp], #16; .cfi_adjust_cfa_offset -16; .cfi_restore lr
  br ip0
  .cfi_endproc

/*
 * Copyright 2018-2025 Yury Gribov
 *
 * The MIT License (MIT)
 *
 * Use of this source code is governed by MIT license that can be
 * found in the LICENSE.txt file.
 */

  .globl cairo_get_antialias
  .p2align 4
  .type cairo_get_antialias, %function
#ifndef IMPLIB_EXPORT_SHIMS
  .hidden cairo_get_antialias
#endif
cairo_get_antialias:
  .cfi_startproc

1:
  // Load address
  // TODO: can we do this faster on newer ARMs?
  adrp ip0, _libcairo_so_tramp_table+624
  ldr ip0, [ip0, #:lo12:_libcairo_so_tramp_table+624]
 
  cbz ip0, 2f

  // Fast path
  br ip0

2:
  // Slow path
  mov ip0, 78 & 0xffff
#if 78 > 0xffff
  movk ip0, 78 >> 16, lsl #16
#endif
  stp ip0, lr, [sp, #-16]!; .cfi_adjust_cfa_offset 16; .cfi_rel_offset lr, 8
  bl _libcairo_so_save_regs_and_resolve
  ldp xzr, lr, [sp], #16; .cfi_adjust_cfa_offset -16; .cfi_restore lr
  br ip0
  .cfi_endproc

/*
 * Copyright 2018-2025 Yury Gribov
 *
 * The MIT License (MIT)
 *
 * Use of this source code is governed by MIT license that can be
 * found in the LICENSE.txt file.
 */

  .globl cairo_get_current_point
  .p2align 4
  .type cairo_get_current_point, %function
#ifndef IMPLIB_EXPORT_SHIMS
  .hidden cairo_get_current_point
#endif
cairo_get_current_point:
  .cfi_startproc

1:
  // Load address
  // TODO: can we do this faster on newer ARMs?
  adrp ip0, _libcairo_so_tramp_table+632
  ldr ip0, [ip0, #:lo12:_libcairo_so_tramp_table+632]
 
  cbz ip0, 2f

  // Fast path
  br ip0

2:
  // Slow path
  mov ip0, 79 & 0xffff
#if 79 > 0xffff
  movk ip0, 79 >> 16, lsl #16
#endif
  stp ip0, lr, [sp, #-16]!; .cfi_adjust_cfa_offset 16; .cfi_rel_offset lr, 8
  bl _libcairo_so_save_regs_and_resolve
  ldp xzr, lr, [sp], #16; .cfi_adjust_cfa_offset -16; .cfi_restore lr
  br ip0
  .cfi_endproc

/*
 * Copyright 2018-2025 Yury Gribov
 *
 * The MIT License (MIT)
 *
 * Use of this source code is governed by MIT license that can be
 * found in the LICENSE.txt file.
 */

  .globl cairo_get_dash
  .p2align 4
  .type cairo_get_dash, %function
#ifndef IMPLIB_EXPORT_SHIMS
  .hidden cairo_get_dash
#endif
cairo_get_dash:
  .cfi_startproc

1:
  // Load address
  // TODO: can we do this faster on newer ARMs?
  adrp ip0, _libcairo_so_tramp_table+640
  ldr ip0, [ip0, #:lo12:_libcairo_so_tramp_table+640]
 
  cbz ip0, 2f

  // Fast path
  br ip0

2:
  // Slow path
  mov ip0, 80 & 0xffff
#if 80 > 0xffff
  movk ip0, 80 >> 16, lsl #16
#endif
  stp ip0, lr, [sp, #-16]!; .cfi_adjust_cfa_offset 16; .cfi_rel_offset lr, 8
  bl _libcairo_so_save_regs_and_resolve
  ldp xzr, lr, [sp], #16; .cfi_adjust_cfa_offset -16; .cfi_restore lr
  br ip0
  .cfi_endproc

/*
 * Copyright 2018-2025 Yury Gribov
 *
 * The MIT License (MIT)
 *
 * Use of this source code is governed by MIT license that can be
 * found in the LICENSE.txt file.
 */

  .globl cairo_get_dash_count
  .p2align 4
  .type cairo_get_dash_count, %function
#ifndef IMPLIB_EXPORT_SHIMS
  .hidden cairo_get_dash_count
#endif
cairo_get_dash_count:
  .cfi_startproc

1:
  // Load address
  // TODO: can we do this faster on newer ARMs?
  adrp ip0, _libcairo_so_tramp_table+648
  ldr ip0, [ip0, #:lo12:_libcairo_so_tramp_table+648]
 
  cbz ip0, 2f

  // Fast path
  br ip0

2:
  // Slow path
  mov ip0, 81 & 0xffff
#if 81 > 0xffff
  movk ip0, 81 >> 16, lsl #16
#endif
  stp ip0, lr, [sp, #-16]!; .cfi_adjust_cfa_offset 16; .cfi_rel_offset lr, 8
  bl _libcairo_so_save_regs_and_resolve
  ldp xzr, lr, [sp], #16; .cfi_adjust_cfa_offset -16; .cfi_restore lr
  br ip0
  .cfi_endproc

/*
 * Copyright 2018-2025 Yury Gribov
 *
 * The MIT License (MIT)
 *
 * Use of this source code is governed by MIT license that can be
 * found in the LICENSE.txt file.
 */

  .globl cairo_get_fill_rule
  .p2align 4
  .type cairo_get_fill_rule, %function
#ifndef IMPLIB_EXPORT_SHIMS
  .hidden cairo_get_fill_rule
#endif
cairo_get_fill_rule:
  .cfi_startproc

1:
  // Load address
  // TODO: can we do this faster on newer ARMs?
  adrp ip0, _libcairo_so_tramp_table+656
  ldr ip0, [ip0, #:lo12:_libcairo_so_tramp_table+656]
 
  cbz ip0, 2f

  // Fast path
  br ip0

2:
  // Slow path
  mov ip0, 82 & 0xffff
#if 82 > 0xffff
  movk ip0, 82 >> 16, lsl #16
#endif
  stp ip0, lr, [sp, #-16]!; .cfi_adjust_cfa_offset 16; .cfi_rel_offset lr, 8
  bl _libcairo_so_save_regs_and_resolve
  ldp xzr, lr, [sp], #16; .cfi_adjust_cfa_offset -16; .cfi_restore lr
  br ip0
  .cfi_endproc

/*
 * Copyright 2018-2025 Yury Gribov
 *
 * The MIT License (MIT)
 *
 * Use of this source code is governed by MIT license that can be
 * found in the LICENSE.txt file.
 */

  .globl cairo_get_font_face
  .p2align 4
  .type cairo_get_font_face, %function
#ifndef IMPLIB_EXPORT_SHIMS
  .hidden cairo_get_font_face
#endif
cairo_get_font_face:
  .cfi_startproc

1:
  // Load address
  // TODO: can we do this faster on newer ARMs?
  adrp ip0, _libcairo_so_tramp_table+664
  ldr ip0, [ip0, #:lo12:_libcairo_so_tramp_table+664]
 
  cbz ip0, 2f

  // Fast path
  br ip0

2:
  // Slow path
  mov ip0, 83 & 0xffff
#if 83 > 0xffff
  movk ip0, 83 >> 16, lsl #16
#endif
  stp ip0, lr, [sp, #-16]!; .cfi_adjust_cfa_offset 16; .cfi_rel_offset lr, 8
  bl _libcairo_so_save_regs_and_resolve
  ldp xzr, lr, [sp], #16; .cfi_adjust_cfa_offset -16; .cfi_restore lr
  br ip0
  .cfi_endproc

/*
 * Copyright 2018-2025 Yury Gribov
 *
 * The MIT License (MIT)
 *
 * Use of this source code is governed by MIT license that can be
 * found in the LICENSE.txt file.
 */

  .globl cairo_get_font_matrix
  .p2align 4
  .type cairo_get_font_matrix, %function
#ifndef IMPLIB_EXPORT_SHIMS
  .hidden cairo_get_font_matrix
#endif
cairo_get_font_matrix:
  .cfi_startproc

1:
  // Load address
  // TODO: can we do this faster on newer ARMs?
  adrp ip0, _libcairo_so_tramp_table+672
  ldr ip0, [ip0, #:lo12:_libcairo_so_tramp_table+672]
 
  cbz ip0, 2f

  // Fast path
  br ip0

2:
  // Slow path
  mov ip0, 84 & 0xffff
#if 84 > 0xffff
  movk ip0, 84 >> 16, lsl #16
#endif
  stp ip0, lr, [sp, #-16]!; .cfi_adjust_cfa_offset 16; .cfi_rel_offset lr, 8
  bl _libcairo_so_save_regs_and_resolve
  ldp xzr, lr, [sp], #16; .cfi_adjust_cfa_offset -16; .cfi_restore lr
  br ip0
  .cfi_endproc

/*
 * Copyright 2018-2025 Yury Gribov
 *
 * The MIT License (MIT)
 *
 * Use of this source code is governed by MIT license that can be
 * found in the LICENSE.txt file.
 */

  .globl cairo_get_font_options
  .p2align 4
  .type cairo_get_font_options, %function
#ifndef IMPLIB_EXPORT_SHIMS
  .hidden cairo_get_font_options
#endif
cairo_get_font_options:
  .cfi_startproc

1:
  // Load address
  // TODO: can we do this faster on newer ARMs?
  adrp ip0, _libcairo_so_tramp_table+680
  ldr ip0, [ip0, #:lo12:_libcairo_so_tramp_table+680]
 
  cbz ip0, 2f

  // Fast path
  br ip0

2:
  // Slow path
  mov ip0, 85 & 0xffff
#if 85 > 0xffff
  movk ip0, 85 >> 16, lsl #16
#endif
  stp ip0, lr, [sp, #-16]!; .cfi_adjust_cfa_offset 16; .cfi_rel_offset lr, 8
  bl _libcairo_so_save_regs_and_resolve
  ldp xzr, lr, [sp], #16; .cfi_adjust_cfa_offset -16; .cfi_restore lr
  br ip0
  .cfi_endproc

/*
 * Copyright 2018-2025 Yury Gribov
 *
 * The MIT License (MIT)
 *
 * Use of this source code is governed by MIT license that can be
 * found in the LICENSE.txt file.
 */

  .globl cairo_get_group_target
  .p2align 4
  .type cairo_get_group_target, %function
#ifndef IMPLIB_EXPORT_SHIMS
  .hidden cairo_get_group_target
#endif
cairo_get_group_target:
  .cfi_startproc

1:
  // Load address
  // TODO: can we do this faster on newer ARMs?
  adrp ip0, _libcairo_so_tramp_table+688
  ldr ip0, [ip0, #:lo12:_libcairo_so_tramp_table+688]
 
  cbz ip0, 2f

  // Fast path
  br ip0

2:
  // Slow path
  mov ip0, 86 & 0xffff
#if 86 > 0xffff
  movk ip0, 86 >> 16, lsl #16
#endif
  stp ip0, lr, [sp, #-16]!; .cfi_adjust_cfa_offset 16; .cfi_rel_offset lr, 8
  bl _libcairo_so_save_regs_and_resolve
  ldp xzr, lr, [sp], #16; .cfi_adjust_cfa_offset -16; .cfi_restore lr
  br ip0
  .cfi_endproc

/*
 * Copyright 2018-2025 Yury Gribov
 *
 * The MIT License (MIT)
 *
 * Use of this source code is governed by MIT license that can be
 * found in the LICENSE.txt file.
 */

  .globl cairo_get_hairline
  .p2align 4
  .type cairo_get_hairline, %function
#ifndef IMPLIB_EXPORT_SHIMS
  .hidden cairo_get_hairline
#endif
cairo_get_hairline:
  .cfi_startproc

1:
  // Load address
  // TODO: can we do this faster on newer ARMs?
  adrp ip0, _libcairo_so_tramp_table+696
  ldr ip0, [ip0, #:lo12:_libcairo_so_tramp_table+696]
 
  cbz ip0, 2f

  // Fast path
  br ip0

2:
  // Slow path
  mov ip0, 87 & 0xffff
#if 87 > 0xffff
  movk ip0, 87 >> 16, lsl #16
#endif
  stp ip0, lr, [sp, #-16]!; .cfi_adjust_cfa_offset 16; .cfi_rel_offset lr, 8
  bl _libcairo_so_save_regs_and_resolve
  ldp xzr, lr, [sp], #16; .cfi_adjust_cfa_offset -16; .cfi_restore lr
  br ip0
  .cfi_endproc

/*
 * Copyright 2018-2025 Yury Gribov
 *
 * The MIT License (MIT)
 *
 * Use of this source code is governed by MIT license that can be
 * found in the LICENSE.txt file.
 */

  .globl cairo_get_line_cap
  .p2align 4
  .type cairo_get_line_cap, %function
#ifndef IMPLIB_EXPORT_SHIMS
  .hidden cairo_get_line_cap
#endif
cairo_get_line_cap:
  .cfi_startproc

1:
  // Load address
  // TODO: can we do this faster on newer ARMs?
  adrp ip0, _libcairo_so_tramp_table+704
  ldr ip0, [ip0, #:lo12:_libcairo_so_tramp_table+704]
 
  cbz ip0, 2f

  // Fast path
  br ip0

2:
  // Slow path
  mov ip0, 88 & 0xffff
#if 88 > 0xffff
  movk ip0, 88 >> 16, lsl #16
#endif
  stp ip0, lr, [sp, #-16]!; .cfi_adjust_cfa_offset 16; .cfi_rel_offset lr, 8
  bl _libcairo_so_save_regs_and_resolve
  ldp xzr, lr, [sp], #16; .cfi_adjust_cfa_offset -16; .cfi_restore lr
  br ip0
  .cfi_endproc

/*
 * Copyright 2018-2025 Yury Gribov
 *
 * The MIT License (MIT)
 *
 * Use of this source code is governed by MIT license that can be
 * found in the LICENSE.txt file.
 */

  .globl cairo_get_line_join
  .p2align 4
  .type cairo_get_line_join, %function
#ifndef IMPLIB_EXPORT_SHIMS
  .hidden cairo_get_line_join
#endif
cairo_get_line_join:
  .cfi_startproc

1:
  // Load address
  // TODO: can we do this faster on newer ARMs?
  adrp ip0, _libcairo_so_tramp_table+712
  ldr ip0, [ip0, #:lo12:_libcairo_so_tramp_table+712]
 
  cbz ip0, 2f

  // Fast path
  br ip0

2:
  // Slow path
  mov ip0, 89 & 0xffff
#if 89 > 0xffff
  movk ip0, 89 >> 16, lsl #16
#endif
  stp ip0, lr, [sp, #-16]!; .cfi_adjust_cfa_offset 16; .cfi_rel_offset lr, 8
  bl _libcairo_so_save_regs_and_resolve
  ldp xzr, lr, [sp], #16; .cfi_adjust_cfa_offset -16; .cfi_restore lr
  br ip0
  .cfi_endproc

/*
 * Copyright 2018-2025 Yury Gribov
 *
 * The MIT License (MIT)
 *
 * Use of this source code is governed by MIT license that can be
 * found in the LICENSE.txt file.
 */

  .globl cairo_get_line_width
  .p2align 4
  .type cairo_get_line_width, %function
#ifndef IMPLIB_EXPORT_SHIMS
  .hidden cairo_get_line_width
#endif
cairo_get_line_width:
  .cfi_startproc

1:
  // Load address
  // TODO: can we do this faster on newer ARMs?
  adrp ip0, _libcairo_so_tramp_table+720
  ldr ip0, [ip0, #:lo12:_libcairo_so_tramp_table+720]
 
  cbz ip0, 2f

  // Fast path
  br ip0

2:
  // Slow path
  mov ip0, 90 & 0xffff
#if 90 > 0xffff
  movk ip0, 90 >> 16, lsl #16
#endif
  stp ip0, lr, [sp, #-16]!; .cfi_adjust_cfa_offset 16; .cfi_rel_offset lr, 8
  bl _libcairo_so_save_regs_and_resolve
  ldp xzr, lr, [sp], #16; .cfi_adjust_cfa_offset -16; .cfi_restore lr
  br ip0
  .cfi_endproc

/*
 * Copyright 2018-2025 Yury Gribov
 *
 * The MIT License (MIT)
 *
 * Use of this source code is governed by MIT license that can be
 * found in the LICENSE.txt file.
 */

  .globl cairo_get_matrix
  .p2align 4
  .type cairo_get_matrix, %function
#ifndef IMPLIB_EXPORT_SHIMS
  .hidden cairo_get_matrix
#endif
cairo_get_matrix:
  .cfi_startproc

1:
  // Load address
  // TODO: can we do this faster on newer ARMs?
  adrp ip0, _libcairo_so_tramp_table+728
  ldr ip0, [ip0, #:lo12:_libcairo_so_tramp_table+728]
 
  cbz ip0, 2f

  // Fast path
  br ip0

2:
  // Slow path
  mov ip0, 91 & 0xffff
#if 91 > 0xffff
  movk ip0, 91 >> 16, lsl #16
#endif
  stp ip0, lr, [sp, #-16]!; .cfi_adjust_cfa_offset 16; .cfi_rel_offset lr, 8
  bl _libcairo_so_save_regs_and_resolve
  ldp xzr, lr, [sp], #16; .cfi_adjust_cfa_offset -16; .cfi_restore lr
  br ip0
  .cfi_endproc

/*
 * Copyright 2018-2025 Yury Gribov
 *
 * The MIT License (MIT)
 *
 * Use of this source code is governed by MIT license that can be
 * found in the LICENSE.txt file.
 */

  .globl cairo_get_miter_limit
  .p2align 4
  .type cairo_get_miter_limit, %function
#ifndef IMPLIB_EXPORT_SHIMS
  .hidden cairo_get_miter_limit
#endif
cairo_get_miter_limit:
  .cfi_startproc

1:
  // Load address
  // TODO: can we do this faster on newer ARMs?
  adrp ip0, _libcairo_so_tramp_table+736
  ldr ip0, [ip0, #:lo12:_libcairo_so_tramp_table+736]
 
  cbz ip0, 2f

  // Fast path
  br ip0

2:
  // Slow path
  mov ip0, 92 & 0xffff
#if 92 > 0xffff
  movk ip0, 92 >> 16, lsl #16
#endif
  stp ip0, lr, [sp, #-16]!; .cfi_adjust_cfa_offset 16; .cfi_rel_offset lr, 8
  bl _libcairo_so_save_regs_and_resolve
  ldp xzr, lr, [sp], #16; .cfi_adjust_cfa_offset -16; .cfi_restore lr
  br ip0
  .cfi_endproc

/*
 * Copyright 2018-2025 Yury Gribov
 *
 * The MIT License (MIT)
 *
 * Use of this source code is governed by MIT license that can be
 * found in the LICENSE.txt file.
 */

  .globl cairo_get_operator
  .p2align 4
  .type cairo_get_operator, %function
#ifndef IMPLIB_EXPORT_SHIMS
  .hidden cairo_get_operator
#endif
cairo_get_operator:
  .cfi_startproc

1:
  // Load address
  // TODO: can we do this faster on newer ARMs?
  adrp ip0, _libcairo_so_tramp_table+744
  ldr ip0, [ip0, #:lo12:_libcairo_so_tramp_table+744]
 
  cbz ip0, 2f

  // Fast path
  br ip0

2:
  // Slow path
  mov ip0, 93 & 0xffff
#if 93 > 0xffff
  movk ip0, 93 >> 16, lsl #16
#endif
  stp ip0, lr, [sp, #-16]!; .cfi_adjust_cfa_offset 16; .cfi_rel_offset lr, 8
  bl _libcairo_so_save_regs_and_resolve
  ldp xzr, lr, [sp], #16; .cfi_adjust_cfa_offset -16; .cfi_restore lr
  br ip0
  .cfi_endproc

/*
 * Copyright 2018-2025 Yury Gribov
 *
 * The MIT License (MIT)
 *
 * Use of this source code is governed by MIT license that can be
 * found in the LICENSE.txt file.
 */

  .globl cairo_get_reference_count
  .p2align 4
  .type cairo_get_reference_count, %function
#ifndef IMPLIB_EXPORT_SHIMS
  .hidden cairo_get_reference_count
#endif
cairo_get_reference_count:
  .cfi_startproc

1:
  // Load address
  // TODO: can we do this faster on newer ARMs?
  adrp ip0, _libcairo_so_tramp_table+752
  ldr ip0, [ip0, #:lo12:_libcairo_so_tramp_table+752]
 
  cbz ip0, 2f

  // Fast path
  br ip0

2:
  // Slow path
  mov ip0, 94 & 0xffff
#if 94 > 0xffff
  movk ip0, 94 >> 16, lsl #16
#endif
  stp ip0, lr, [sp, #-16]!; .cfi_adjust_cfa_offset 16; .cfi_rel_offset lr, 8
  bl _libcairo_so_save_regs_and_resolve
  ldp xzr, lr, [sp], #16; .cfi_adjust_cfa_offset -16; .cfi_restore lr
  br ip0
  .cfi_endproc

/*
 * Copyright 2018-2025 Yury Gribov
 *
 * The MIT License (MIT)
 *
 * Use of this source code is governed by MIT license that can be
 * found in the LICENSE.txt file.
 */

  .globl cairo_get_scaled_font
  .p2align 4
  .type cairo_get_scaled_font, %function
#ifndef IMPLIB_EXPORT_SHIMS
  .hidden cairo_get_scaled_font
#endif
cairo_get_scaled_font:
  .cfi_startproc

1:
  // Load address
  // TODO: can we do this faster on newer ARMs?
  adrp ip0, _libcairo_so_tramp_table+760
  ldr ip0, [ip0, #:lo12:_libcairo_so_tramp_table+760]
 
  cbz ip0, 2f

  // Fast path
  br ip0

2:
  // Slow path
  mov ip0, 95 & 0xffff
#if 95 > 0xffff
  movk ip0, 95 >> 16, lsl #16
#endif
  stp ip0, lr, [sp, #-16]!; .cfi_adjust_cfa_offset 16; .cfi_rel_offset lr, 8
  bl _libcairo_so_save_regs_and_resolve
  ldp xzr, lr, [sp], #16; .cfi_adjust_cfa_offset -16; .cfi_restore lr
  br ip0
  .cfi_endproc

/*
 * Copyright 2018-2025 Yury Gribov
 *
 * The MIT License (MIT)
 *
 * Use of this source code is governed by MIT license that can be
 * found in the LICENSE.txt file.
 */

  .globl cairo_get_source
  .p2align 4
  .type cairo_get_source, %function
#ifndef IMPLIB_EXPORT_SHIMS
  .hidden cairo_get_source
#endif
cairo_get_source:
  .cfi_startproc

1:
  // Load address
  // TODO: can we do this faster on newer ARMs?
  adrp ip0, _libcairo_so_tramp_table+768
  ldr ip0, [ip0, #:lo12:_libcairo_so_tramp_table+768]
 
  cbz ip0, 2f

  // Fast path
  br ip0

2:
  // Slow path
  mov ip0, 96 & 0xffff
#if 96 > 0xffff
  movk ip0, 96 >> 16, lsl #16
#endif
  stp ip0, lr, [sp, #-16]!; .cfi_adjust_cfa_offset 16; .cfi_rel_offset lr, 8
  bl _libcairo_so_save_regs_and_resolve
  ldp xzr, lr, [sp], #16; .cfi_adjust_cfa_offset -16; .cfi_restore lr
  br ip0
  .cfi_endproc

/*
 * Copyright 2018-2025 Yury Gribov
 *
 * The MIT License (MIT)
 *
 * Use of this source code is governed by MIT license that can be
 * found in the LICENSE.txt file.
 */

  .globl cairo_get_target
  .p2align 4
  .type cairo_get_target, %function
#ifndef IMPLIB_EXPORT_SHIMS
  .hidden cairo_get_target
#endif
cairo_get_target:
  .cfi_startproc

1:
  // Load address
  // TODO: can we do this faster on newer ARMs?
  adrp ip0, _libcairo_so_tramp_table+776
  ldr ip0, [ip0, #:lo12:_libcairo_so_tramp_table+776]
 
  cbz ip0, 2f

  // Fast path
  br ip0

2:
  // Slow path
  mov ip0, 97 & 0xffff
#if 97 > 0xffff
  movk ip0, 97 >> 16, lsl #16
#endif
  stp ip0, lr, [sp, #-16]!; .cfi_adjust_cfa_offset 16; .cfi_rel_offset lr, 8
  bl _libcairo_so_save_regs_and_resolve
  ldp xzr, lr, [sp], #16; .cfi_adjust_cfa_offset -16; .cfi_restore lr
  br ip0
  .cfi_endproc

/*
 * Copyright 2018-2025 Yury Gribov
 *
 * The MIT License (MIT)
 *
 * Use of this source code is governed by MIT license that can be
 * found in the LICENSE.txt file.
 */

  .globl cairo_get_tolerance
  .p2align 4
  .type cairo_get_tolerance, %function
#ifndef IMPLIB_EXPORT_SHIMS
  .hidden cairo_get_tolerance
#endif
cairo_get_tolerance:
  .cfi_startproc

1:
  // Load address
  // TODO: can we do this faster on newer ARMs?
  adrp ip0, _libcairo_so_tramp_table+784
  ldr ip0, [ip0, #:lo12:_libcairo_so_tramp_table+784]
 
  cbz ip0, 2f

  // Fast path
  br ip0

2:
  // Slow path
  mov ip0, 98 & 0xffff
#if 98 > 0xffff
  movk ip0, 98 >> 16, lsl #16
#endif
  stp ip0, lr, [sp, #-16]!; .cfi_adjust_cfa_offset 16; .cfi_rel_offset lr, 8
  bl _libcairo_so_save_regs_and_resolve
  ldp xzr, lr, [sp], #16; .cfi_adjust_cfa_offset -16; .cfi_restore lr
  br ip0
  .cfi_endproc

/*
 * Copyright 2018-2025 Yury Gribov
 *
 * The MIT License (MIT)
 *
 * Use of this source code is governed by MIT license that can be
 * found in the LICENSE.txt file.
 */

  .globl cairo_get_user_data
  .p2align 4
  .type cairo_get_user_data, %function
#ifndef IMPLIB_EXPORT_SHIMS
  .hidden cairo_get_user_data
#endif
cairo_get_user_data:
  .cfi_startproc

1:
  // Load address
  // TODO: can we do this faster on newer ARMs?
  adrp ip0, _libcairo_so_tramp_table+792
  ldr ip0, [ip0, #:lo12:_libcairo_so_tramp_table+792]
 
  cbz ip0, 2f

  // Fast path
  br ip0

2:
  // Slow path
  mov ip0, 99 & 0xffff
#if 99 > 0xffff
  movk ip0, 99 >> 16, lsl #16
#endif
  stp ip0, lr, [sp, #-16]!; .cfi_adjust_cfa_offset 16; .cfi_rel_offset lr, 8
  bl _libcairo_so_save_regs_and_resolve
  ldp xzr, lr, [sp], #16; .cfi_adjust_cfa_offset -16; .cfi_restore lr
  br ip0
  .cfi_endproc

/*
 * Copyright 2018-2025 Yury Gribov
 *
 * The MIT License (MIT)
 *
 * Use of this source code is governed by MIT license that can be
 * found in the LICENSE.txt file.
 */

  .globl cairo_glyph_allocate
  .p2align 4
  .type cairo_glyph_allocate, %function
#ifndef IMPLIB_EXPORT_SHIMS
  .hidden cairo_glyph_allocate
#endif
cairo_glyph_allocate:
  .cfi_startproc

1:
  // Load address
  // TODO: can we do this faster on newer ARMs?
  adrp ip0, _libcairo_so_tramp_table+800
  ldr ip0, [ip0, #:lo12:_libcairo_so_tramp_table+800]
 
  cbz ip0, 2f

  // Fast path
  br ip0

2:
  // Slow path
  mov ip0, 100 & 0xffff
#if 100 > 0xffff
  movk ip0, 100 >> 16, lsl #16
#endif
  stp ip0, lr, [sp, #-16]!; .cfi_adjust_cfa_offset 16; .cfi_rel_offset lr, 8
  bl _libcairo_so_save_regs_and_resolve
  ldp xzr, lr, [sp], #16; .cfi_adjust_cfa_offset -16; .cfi_restore lr
  br ip0
  .cfi_endproc

/*
 * Copyright 2018-2025 Yury Gribov
 *
 * The MIT License (MIT)
 *
 * Use of this source code is governed by MIT license that can be
 * found in the LICENSE.txt file.
 */

  .globl cairo_glyph_extents
  .p2align 4
  .type cairo_glyph_extents, %function
#ifndef IMPLIB_EXPORT_SHIMS
  .hidden cairo_glyph_extents
#endif
cairo_glyph_extents:
  .cfi_startproc

1:
  // Load address
  // TODO: can we do this faster on newer ARMs?
  adrp ip0, _libcairo_so_tramp_table+808
  ldr ip0, [ip0, #:lo12:_libcairo_so_tramp_table+808]
 
  cbz ip0, 2f

  // Fast path
  br ip0

2:
  // Slow path
  mov ip0, 101 & 0xffff
#if 101 > 0xffff
  movk ip0, 101 >> 16, lsl #16
#endif
  stp ip0, lr, [sp, #-16]!; .cfi_adjust_cfa_offset 16; .cfi_rel_offset lr, 8
  bl _libcairo_so_save_regs_and_resolve
  ldp xzr, lr, [sp], #16; .cfi_adjust_cfa_offset -16; .cfi_restore lr
  br ip0
  .cfi_endproc

/*
 * Copyright 2018-2025 Yury Gribov
 *
 * The MIT License (MIT)
 *
 * Use of this source code is governed by MIT license that can be
 * found in the LICENSE.txt file.
 */

  .globl cairo_glyph_free
  .p2align 4
  .type cairo_glyph_free, %function
#ifndef IMPLIB_EXPORT_SHIMS
  .hidden cairo_glyph_free
#endif
cairo_glyph_free:
  .cfi_startproc

1:
  // Load address
  // TODO: can we do this faster on newer ARMs?
  adrp ip0, _libcairo_so_tramp_table+816
  ldr ip0, [ip0, #:lo12:_libcairo_so_tramp_table+816]
 
  cbz ip0, 2f

  // Fast path
  br ip0

2:
  // Slow path
  mov ip0, 102 & 0xffff
#if 102 > 0xffff
  movk ip0, 102 >> 16, lsl #16
#endif
  stp ip0, lr, [sp, #-16]!; .cfi_adjust_cfa_offset 16; .cfi_rel_offset lr, 8
  bl _libcairo_so_save_regs_and_resolve
  ldp xzr, lr, [sp], #16; .cfi_adjust_cfa_offset -16; .cfi_restore lr
  br ip0
  .cfi_endproc

/*
 * Copyright 2018-2025 Yury Gribov
 *
 * The MIT License (MIT)
 *
 * Use of this source code is governed by MIT license that can be
 * found in the LICENSE.txt file.
 */

  .globl cairo_glyph_path
  .p2align 4
  .type cairo_glyph_path, %function
#ifndef IMPLIB_EXPORT_SHIMS
  .hidden cairo_glyph_path
#endif
cairo_glyph_path:
  .cfi_startproc

1:
  // Load address
  // TODO: can we do this faster on newer ARMs?
  adrp ip0, _libcairo_so_tramp_table+824
  ldr ip0, [ip0, #:lo12:_libcairo_so_tramp_table+824]
 
  cbz ip0, 2f

  // Fast path
  br ip0

2:
  // Slow path
  mov ip0, 103 & 0xffff
#if 103 > 0xffff
  movk ip0, 103 >> 16, lsl #16
#endif
  stp ip0, lr, [sp, #-16]!; .cfi_adjust_cfa_offset 16; .cfi_rel_offset lr, 8
  bl _libcairo_so_save_regs_and_resolve
  ldp xzr, lr, [sp], #16; .cfi_adjust_cfa_offset -16; .cfi_restore lr
  br ip0
  .cfi_endproc

/*
 * Copyright 2018-2025 Yury Gribov
 *
 * The MIT License (MIT)
 *
 * Use of this source code is governed by MIT license that can be
 * found in the LICENSE.txt file.
 */

  .globl cairo_has_current_point
  .p2align 4
  .type cairo_has_current_point, %function
#ifndef IMPLIB_EXPORT_SHIMS
  .hidden cairo_has_current_point
#endif
cairo_has_current_point:
  .cfi_startproc

1:
  // Load address
  // TODO: can we do this faster on newer ARMs?
  adrp ip0, _libcairo_so_tramp_table+832
  ldr ip0, [ip0, #:lo12:_libcairo_so_tramp_table+832]
 
  cbz ip0, 2f

  // Fast path
  br ip0

2:
  // Slow path
  mov ip0, 104 & 0xffff
#if 104 > 0xffff
  movk ip0, 104 >> 16, lsl #16
#endif
  stp ip0, lr, [sp, #-16]!; .cfi_adjust_cfa_offset 16; .cfi_rel_offset lr, 8
  bl _libcairo_so_save_regs_and_resolve
  ldp xzr, lr, [sp], #16; .cfi_adjust_cfa_offset -16; .cfi_restore lr
  br ip0
  .cfi_endproc

/*
 * Copyright 2018-2025 Yury Gribov
 *
 * The MIT License (MIT)
 *
 * Use of this source code is governed by MIT license that can be
 * found in the LICENSE.txt file.
 */

  .globl cairo_identity_matrix
  .p2align 4
  .type cairo_identity_matrix, %function
#ifndef IMPLIB_EXPORT_SHIMS
  .hidden cairo_identity_matrix
#endif
cairo_identity_matrix:
  .cfi_startproc

1:
  // Load address
  // TODO: can we do this faster on newer ARMs?
  adrp ip0, _libcairo_so_tramp_table+840
  ldr ip0, [ip0, #:lo12:_libcairo_so_tramp_table+840]
 
  cbz ip0, 2f

  // Fast path
  br ip0

2:
  // Slow path
  mov ip0, 105 & 0xffff
#if 105 > 0xffff
  movk ip0, 105 >> 16, lsl #16
#endif
  stp ip0, lr, [sp, #-16]!; .cfi_adjust_cfa_offset 16; .cfi_rel_offset lr, 8
  bl _libcairo_so_save_regs_and_resolve
  ldp xzr, lr, [sp], #16; .cfi_adjust_cfa_offset -16; .cfi_restore lr
  br ip0
  .cfi_endproc

/*
 * Copyright 2018-2025 Yury Gribov
 *
 * The MIT License (MIT)
 *
 * Use of this source code is governed by MIT license that can be
 * found in the LICENSE.txt file.
 */

  .globl cairo_image_surface_create
  .p2align 4
  .type cairo_image_surface_create, %function
#ifndef IMPLIB_EXPORT_SHIMS
  .hidden cairo_image_surface_create
#endif
cairo_image_surface_create:
  .cfi_startproc

1:
  // Load address
  // TODO: can we do this faster on newer ARMs?
  adrp ip0, _libcairo_so_tramp_table+848
  ldr ip0, [ip0, #:lo12:_libcairo_so_tramp_table+848]
 
  cbz ip0, 2f

  // Fast path
  br ip0

2:
  // Slow path
  mov ip0, 106 & 0xffff
#if 106 > 0xffff
  movk ip0, 106 >> 16, lsl #16
#endif
  stp ip0, lr, [sp, #-16]!; .cfi_adjust_cfa_offset 16; .cfi_rel_offset lr, 8
  bl _libcairo_so_save_regs_and_resolve
  ldp xzr, lr, [sp], #16; .cfi_adjust_cfa_offset -16; .cfi_restore lr
  br ip0
  .cfi_endproc

/*
 * Copyright 2018-2025 Yury Gribov
 *
 * The MIT License (MIT)
 *
 * Use of this source code is governed by MIT license that can be
 * found in the LICENSE.txt file.
 */

  .globl cairo_image_surface_create_for_data
  .p2align 4
  .type cairo_image_surface_create_for_data, %function
#ifndef IMPLIB_EXPORT_SHIMS
  .hidden cairo_image_surface_create_for_data
#endif
cairo_image_surface_create_for_data:
  .cfi_startproc

1:
  // Load address
  // TODO: can we do this faster on newer ARMs?
  adrp ip0, _libcairo_so_tramp_table+856
  ldr ip0, [ip0, #:lo12:_libcairo_so_tramp_table+856]
 
  cbz ip0, 2f

  // Fast path
  br ip0

2:
  // Slow path
  mov ip0, 107 & 0xffff
#if 107 > 0xffff
  movk ip0, 107 >> 16, lsl #16
#endif
  stp ip0, lr, [sp, #-16]!; .cfi_adjust_cfa_offset 16; .cfi_rel_offset lr, 8
  bl _libcairo_so_save_regs_and_resolve
  ldp xzr, lr, [sp], #16; .cfi_adjust_cfa_offset -16; .cfi_restore lr
  br ip0
  .cfi_endproc

/*
 * Copyright 2018-2025 Yury Gribov
 *
 * The MIT License (MIT)
 *
 * Use of this source code is governed by MIT license that can be
 * found in the LICENSE.txt file.
 */

  .globl cairo_image_surface_create_from_png
  .p2align 4
  .type cairo_image_surface_create_from_png, %function
#ifndef IMPLIB_EXPORT_SHIMS
  .hidden cairo_image_surface_create_from_png
#endif
cairo_image_surface_create_from_png:
  .cfi_startproc

1:
  // Load address
  // TODO: can we do this faster on newer ARMs?
  adrp ip0, _libcairo_so_tramp_table+864
  ldr ip0, [ip0, #:lo12:_libcairo_so_tramp_table+864]
 
  cbz ip0, 2f

  // Fast path
  br ip0

2:
  // Slow path
  mov ip0, 108 & 0xffff
#if 108 > 0xffff
  movk ip0, 108 >> 16, lsl #16
#endif
  stp ip0, lr, [sp, #-16]!; .cfi_adjust_cfa_offset 16; .cfi_rel_offset lr, 8
  bl _libcairo_so_save_regs_and_resolve
  ldp xzr, lr, [sp], #16; .cfi_adjust_cfa_offset -16; .cfi_restore lr
  br ip0
  .cfi_endproc

/*
 * Copyright 2018-2025 Yury Gribov
 *
 * The MIT License (MIT)
 *
 * Use of this source code is governed by MIT license that can be
 * found in the LICENSE.txt file.
 */

  .globl cairo_image_surface_create_from_png_stream
  .p2align 4
  .type cairo_image_surface_create_from_png_stream, %function
#ifndef IMPLIB_EXPORT_SHIMS
  .hidden cairo_image_surface_create_from_png_stream
#endif
cairo_image_surface_create_from_png_stream:
  .cfi_startproc

1:
  // Load address
  // TODO: can we do this faster on newer ARMs?
  adrp ip0, _libcairo_so_tramp_table+872
  ldr ip0, [ip0, #:lo12:_libcairo_so_tramp_table+872]
 
  cbz ip0, 2f

  // Fast path
  br ip0

2:
  // Slow path
  mov ip0, 109 & 0xffff
#if 109 > 0xffff
  movk ip0, 109 >> 16, lsl #16
#endif
  stp ip0, lr, [sp, #-16]!; .cfi_adjust_cfa_offset 16; .cfi_rel_offset lr, 8
  bl _libcairo_so_save_regs_and_resolve
  ldp xzr, lr, [sp], #16; .cfi_adjust_cfa_offset -16; .cfi_restore lr
  br ip0
  .cfi_endproc

/*
 * Copyright 2018-2025 Yury Gribov
 *
 * The MIT License (MIT)
 *
 * Use of this source code is governed by MIT license that can be
 * found in the LICENSE.txt file.
 */

  .globl cairo_image_surface_get_data
  .p2align 4
  .type cairo_image_surface_get_data, %function
#ifndef IMPLIB_EXPORT_SHIMS
  .hidden cairo_image_surface_get_data
#endif
cairo_image_surface_get_data:
  .cfi_startproc

1:
  // Load address
  // TODO: can we do this faster on newer ARMs?
  adrp ip0, _libcairo_so_tramp_table+880
  ldr ip0, [ip0, #:lo12:_libcairo_so_tramp_table+880]
 
  cbz ip0, 2f

  // Fast path
  br ip0

2:
  // Slow path
  mov ip0, 110 & 0xffff
#if 110 > 0xffff
  movk ip0, 110 >> 16, lsl #16
#endif
  stp ip0, lr, [sp, #-16]!; .cfi_adjust_cfa_offset 16; .cfi_rel_offset lr, 8
  bl _libcairo_so_save_regs_and_resolve
  ldp xzr, lr, [sp], #16; .cfi_adjust_cfa_offset -16; .cfi_restore lr
  br ip0
  .cfi_endproc

/*
 * Copyright 2018-2025 Yury Gribov
 *
 * The MIT License (MIT)
 *
 * Use of this source code is governed by MIT license that can be
 * found in the LICENSE.txt file.
 */

  .globl cairo_image_surface_get_format
  .p2align 4
  .type cairo_image_surface_get_format, %function
#ifndef IMPLIB_EXPORT_SHIMS
  .hidden cairo_image_surface_get_format
#endif
cairo_image_surface_get_format:
  .cfi_startproc

1:
  // Load address
  // TODO: can we do this faster on newer ARMs?
  adrp ip0, _libcairo_so_tramp_table+888
  ldr ip0, [ip0, #:lo12:_libcairo_so_tramp_table+888]
 
  cbz ip0, 2f

  // Fast path
  br ip0

2:
  // Slow path
  mov ip0, 111 & 0xffff
#if 111 > 0xffff
  movk ip0, 111 >> 16, lsl #16
#endif
  stp ip0, lr, [sp, #-16]!; .cfi_adjust_cfa_offset 16; .cfi_rel_offset lr, 8
  bl _libcairo_so_save_regs_and_resolve
  ldp xzr, lr, [sp], #16; .cfi_adjust_cfa_offset -16; .cfi_restore lr
  br ip0
  .cfi_endproc

/*
 * Copyright 2018-2025 Yury Gribov
 *
 * The MIT License (MIT)
 *
 * Use of this source code is governed by MIT license that can be
 * found in the LICENSE.txt file.
 */

  .globl cairo_image_surface_get_height
  .p2align 4
  .type cairo_image_surface_get_height, %function
#ifndef IMPLIB_EXPORT_SHIMS
  .hidden cairo_image_surface_get_height
#endif
cairo_image_surface_get_height:
  .cfi_startproc

1:
  // Load address
  // TODO: can we do this faster on newer ARMs?
  adrp ip0, _libcairo_so_tramp_table+896
  ldr ip0, [ip0, #:lo12:_libcairo_so_tramp_table+896]
 
  cbz ip0, 2f

  // Fast path
  br ip0

2:
  // Slow path
  mov ip0, 112 & 0xffff
#if 112 > 0xffff
  movk ip0, 112 >> 16, lsl #16
#endif
  stp ip0, lr, [sp, #-16]!; .cfi_adjust_cfa_offset 16; .cfi_rel_offset lr, 8
  bl _libcairo_so_save_regs_and_resolve
  ldp xzr, lr, [sp], #16; .cfi_adjust_cfa_offset -16; .cfi_restore lr
  br ip0
  .cfi_endproc

/*
 * Copyright 2018-2025 Yury Gribov
 *
 * The MIT License (MIT)
 *
 * Use of this source code is governed by MIT license that can be
 * found in the LICENSE.txt file.
 */

  .globl cairo_image_surface_get_stride
  .p2align 4
  .type cairo_image_surface_get_stride, %function
#ifndef IMPLIB_EXPORT_SHIMS
  .hidden cairo_image_surface_get_stride
#endif
cairo_image_surface_get_stride:
  .cfi_startproc

1:
  // Load address
  // TODO: can we do this faster on newer ARMs?
  adrp ip0, _libcairo_so_tramp_table+904
  ldr ip0, [ip0, #:lo12:_libcairo_so_tramp_table+904]
 
  cbz ip0, 2f

  // Fast path
  br ip0

2:
  // Slow path
  mov ip0, 113 & 0xffff
#if 113 > 0xffff
  movk ip0, 113 >> 16, lsl #16
#endif
  stp ip0, lr, [sp, #-16]!; .cfi_adjust_cfa_offset 16; .cfi_rel_offset lr, 8
  bl _libcairo_so_save_regs_and_resolve
  ldp xzr, lr, [sp], #16; .cfi_adjust_cfa_offset -16; .cfi_restore lr
  br ip0
  .cfi_endproc

/*
 * Copyright 2018-2025 Yury Gribov
 *
 * The MIT License (MIT)
 *
 * Use of this source code is governed by MIT license that can be
 * found in the LICENSE.txt file.
 */

  .globl cairo_image_surface_get_width
  .p2align 4
  .type cairo_image_surface_get_width, %function
#ifndef IMPLIB_EXPORT_SHIMS
  .hidden cairo_image_surface_get_width
#endif
cairo_image_surface_get_width:
  .cfi_startproc

1:
  // Load address
  // TODO: can we do this faster on newer ARMs?
  adrp ip0, _libcairo_so_tramp_table+912
  ldr ip0, [ip0, #:lo12:_libcairo_so_tramp_table+912]
 
  cbz ip0, 2f

  // Fast path
  br ip0

2:
  // Slow path
  mov ip0, 114 & 0xffff
#if 114 > 0xffff
  movk ip0, 114 >> 16, lsl #16
#endif
  stp ip0, lr, [sp, #-16]!; .cfi_adjust_cfa_offset 16; .cfi_rel_offset lr, 8
  bl _libcairo_so_save_regs_and_resolve
  ldp xzr, lr, [sp], #16; .cfi_adjust_cfa_offset -16; .cfi_restore lr
  br ip0
  .cfi_endproc

/*
 * Copyright 2018-2025 Yury Gribov
 *
 * The MIT License (MIT)
 *
 * Use of this source code is governed by MIT license that can be
 * found in the LICENSE.txt file.
 */

  .globl cairo_in_clip
  .p2align 4
  .type cairo_in_clip, %function
#ifndef IMPLIB_EXPORT_SHIMS
  .hidden cairo_in_clip
#endif
cairo_in_clip:
  .cfi_startproc

1:
  // Load address
  // TODO: can we do this faster on newer ARMs?
  adrp ip0, _libcairo_so_tramp_table+920
  ldr ip0, [ip0, #:lo12:_libcairo_so_tramp_table+920]
 
  cbz ip0, 2f

  // Fast path
  br ip0

2:
  // Slow path
  mov ip0, 115 & 0xffff
#if 115 > 0xffff
  movk ip0, 115 >> 16, lsl #16
#endif
  stp ip0, lr, [sp, #-16]!; .cfi_adjust_cfa_offset 16; .cfi_rel_offset lr, 8
  bl _libcairo_so_save_regs_and_resolve
  ldp xzr, lr, [sp], #16; .cfi_adjust_cfa_offset -16; .cfi_restore lr
  br ip0
  .cfi_endproc

/*
 * Copyright 2018-2025 Yury Gribov
 *
 * The MIT License (MIT)
 *
 * Use of this source code is governed by MIT license that can be
 * found in the LICENSE.txt file.
 */

  .globl cairo_in_fill
  .p2align 4
  .type cairo_in_fill, %function
#ifndef IMPLIB_EXPORT_SHIMS
  .hidden cairo_in_fill
#endif
cairo_in_fill:
  .cfi_startproc

1:
  // Load address
  // TODO: can we do this faster on newer ARMs?
  adrp ip0, _libcairo_so_tramp_table+928
  ldr ip0, [ip0, #:lo12:_libcairo_so_tramp_table+928]
 
  cbz ip0, 2f

  // Fast path
  br ip0

2:
  // Slow path
  mov ip0, 116 & 0xffff
#if 116 > 0xffff
  movk ip0, 116 >> 16, lsl #16
#endif
  stp ip0, lr, [sp, #-16]!; .cfi_adjust_cfa_offset 16; .cfi_rel_offset lr, 8
  bl _libcairo_so_save_regs_and_resolve
  ldp xzr, lr, [sp], #16; .cfi_adjust_cfa_offset -16; .cfi_restore lr
  br ip0
  .cfi_endproc

/*
 * Copyright 2018-2025 Yury Gribov
 *
 * The MIT License (MIT)
 *
 * Use of this source code is governed by MIT license that can be
 * found in the LICENSE.txt file.
 */

  .globl cairo_in_stroke
  .p2align 4
  .type cairo_in_stroke, %function
#ifndef IMPLIB_EXPORT_SHIMS
  .hidden cairo_in_stroke
#endif
cairo_in_stroke:
  .cfi_startproc

1:
  // Load address
  // TODO: can we do this faster on newer ARMs?
  adrp ip0, _libcairo_so_tramp_table+936
  ldr ip0, [ip0, #:lo12:_libcairo_so_tramp_table+936]
 
  cbz ip0, 2f

  // Fast path
  br ip0

2:
  // Slow path
  mov ip0, 117 & 0xffff
#if 117 > 0xffff
  movk ip0, 117 >> 16, lsl #16
#endif
  stp ip0, lr, [sp, #-16]!; .cfi_adjust_cfa_offset 16; .cfi_rel_offset lr, 8
  bl _libcairo_so_save_regs_and_resolve
  ldp xzr, lr, [sp], #16; .cfi_adjust_cfa_offset -16; .cfi_restore lr
  br ip0
  .cfi_endproc

/*
 * Copyright 2018-2025 Yury Gribov
 *
 * The MIT License (MIT)
 *
 * Use of this source code is governed by MIT license that can be
 * found in the LICENSE.txt file.
 */

  .globl cairo_line_to
  .p2align 4
  .type cairo_line_to, %function
#ifndef IMPLIB_EXPORT_SHIMS
  .hidden cairo_line_to
#endif
cairo_line_to:
  .cfi_startproc

1:
  // Load address
  // TODO: can we do this faster on newer ARMs?
  adrp ip0, _libcairo_so_tramp_table+944
  ldr ip0, [ip0, #:lo12:_libcairo_so_tramp_table+944]
 
  cbz ip0, 2f

  // Fast path
  br ip0

2:
  // Slow path
  mov ip0, 118 & 0xffff
#if 118 > 0xffff
  movk ip0, 118 >> 16, lsl #16
#endif
  stp ip0, lr, [sp, #-16]!; .cfi_adjust_cfa_offset 16; .cfi_rel_offset lr, 8
  bl _libcairo_so_save_regs_and_resolve
  ldp xzr, lr, [sp], #16; .cfi_adjust_cfa_offset -16; .cfi_restore lr
  br ip0
  .cfi_endproc

/*
 * Copyright 2018-2025 Yury Gribov
 *
 * The MIT License (MIT)
 *
 * Use of this source code is governed by MIT license that can be
 * found in the LICENSE.txt file.
 */

  .globl cairo_mask
  .p2align 4
  .type cairo_mask, %function
#ifndef IMPLIB_EXPORT_SHIMS
  .hidden cairo_mask
#endif
cairo_mask:
  .cfi_startproc

1:
  // Load address
  // TODO: can we do this faster on newer ARMs?
  adrp ip0, _libcairo_so_tramp_table+952
  ldr ip0, [ip0, #:lo12:_libcairo_so_tramp_table+952]
 
  cbz ip0, 2f

  // Fast path
  br ip0

2:
  // Slow path
  mov ip0, 119 & 0xffff
#if 119 > 0xffff
  movk ip0, 119 >> 16, lsl #16
#endif
  stp ip0, lr, [sp, #-16]!; .cfi_adjust_cfa_offset 16; .cfi_rel_offset lr, 8
  bl _libcairo_so_save_regs_and_resolve
  ldp xzr, lr, [sp], #16; .cfi_adjust_cfa_offset -16; .cfi_restore lr
  br ip0
  .cfi_endproc

/*
 * Copyright 2018-2025 Yury Gribov
 *
 * The MIT License (MIT)
 *
 * Use of this source code is governed by MIT license that can be
 * found in the LICENSE.txt file.
 */

  .globl cairo_mask_surface
  .p2align 4
  .type cairo_mask_surface, %function
#ifndef IMPLIB_EXPORT_SHIMS
  .hidden cairo_mask_surface
#endif
cairo_mask_surface:
  .cfi_startproc

1:
  // Load address
  // TODO: can we do this faster on newer ARMs?
  adrp ip0, _libcairo_so_tramp_table+960
  ldr ip0, [ip0, #:lo12:_libcairo_so_tramp_table+960]
 
  cbz ip0, 2f

  // Fast path
  br ip0

2:
  // Slow path
  mov ip0, 120 & 0xffff
#if 120 > 0xffff
  movk ip0, 120 >> 16, lsl #16
#endif
  stp ip0, lr, [sp, #-16]!; .cfi_adjust_cfa_offset 16; .cfi_rel_offset lr, 8
  bl _libcairo_so_save_regs_and_resolve
  ldp xzr, lr, [sp], #16; .cfi_adjust_cfa_offset -16; .cfi_restore lr
  br ip0
  .cfi_endproc

/*
 * Copyright 2018-2025 Yury Gribov
 *
 * The MIT License (MIT)
 *
 * Use of this source code is governed by MIT license that can be
 * found in the LICENSE.txt file.
 */

  .globl cairo_matrix_init
  .p2align 4
  .type cairo_matrix_init, %function
#ifndef IMPLIB_EXPORT_SHIMS
  .hidden cairo_matrix_init
#endif
cairo_matrix_init:
  .cfi_startproc

1:
  // Load address
  // TODO: can we do this faster on newer ARMs?
  adrp ip0, _libcairo_so_tramp_table+968
  ldr ip0, [ip0, #:lo12:_libcairo_so_tramp_table+968]
 
  cbz ip0, 2f

  // Fast path
  br ip0

2:
  // Slow path
  mov ip0, 121 & 0xffff
#if 121 > 0xffff
  movk ip0, 121 >> 16, lsl #16
#endif
  stp ip0, lr, [sp, #-16]!; .cfi_adjust_cfa_offset 16; .cfi_rel_offset lr, 8
  bl _libcairo_so_save_regs_and_resolve
  ldp xzr, lr, [sp], #16; .cfi_adjust_cfa_offset -16; .cfi_restore lr
  br ip0
  .cfi_endproc

/*
 * Copyright 2018-2025 Yury Gribov
 *
 * The MIT License (MIT)
 *
 * Use of this source code is governed by MIT license that can be
 * found in the LICENSE.txt file.
 */

  .globl cairo_matrix_init_identity
  .p2align 4
  .type cairo_matrix_init_identity, %function
#ifndef IMPLIB_EXPORT_SHIMS
  .hidden cairo_matrix_init_identity
#endif
cairo_matrix_init_identity:
  .cfi_startproc

1:
  // Load address
  // TODO: can we do this faster on newer ARMs?
  adrp ip0, _libcairo_so_tramp_table+976
  ldr ip0, [ip0, #:lo12:_libcairo_so_tramp_table+976]
 
  cbz ip0, 2f

  // Fast path
  br ip0

2:
  // Slow path
  mov ip0, 122 & 0xffff
#if 122 > 0xffff
  movk ip0, 122 >> 16, lsl #16
#endif
  stp ip0, lr, [sp, #-16]!; .cfi_adjust_cfa_offset 16; .cfi_rel_offset lr, 8
  bl _libcairo_so_save_regs_and_resolve
  ldp xzr, lr, [sp], #16; .cfi_adjust_cfa_offset -16; .cfi_restore lr
  br ip0
  .cfi_endproc

/*
 * Copyright 2018-2025 Yury Gribov
 *
 * The MIT License (MIT)
 *
 * Use of this source code is governed by MIT license that can be
 * found in the LICENSE.txt file.
 */

  .globl cairo_matrix_init_rotate
  .p2align 4
  .type cairo_matrix_init_rotate, %function
#ifndef IMPLIB_EXPORT_SHIMS
  .hidden cairo_matrix_init_rotate
#endif
cairo_matrix_init_rotate:
  .cfi_startproc

1:
  // Load address
  // TODO: can we do this faster on newer ARMs?
  adrp ip0, _libcairo_so_tramp_table+984
  ldr ip0, [ip0, #:lo12:_libcairo_so_tramp_table+984]
 
  cbz ip0, 2f

  // Fast path
  br ip0

2:
  // Slow path
  mov ip0, 123 & 0xffff
#if 123 > 0xffff
  movk ip0, 123 >> 16, lsl #16
#endif
  stp ip0, lr, [sp, #-16]!; .cfi_adjust_cfa_offset 16; .cfi_rel_offset lr, 8
  bl _libcairo_so_save_regs_and_resolve
  ldp xzr, lr, [sp], #16; .cfi_adjust_cfa_offset -16; .cfi_restore lr
  br ip0
  .cfi_endproc

/*
 * Copyright 2018-2025 Yury Gribov
 *
 * The MIT License (MIT)
 *
 * Use of this source code is governed by MIT license that can be
 * found in the LICENSE.txt file.
 */

  .globl cairo_matrix_init_scale
  .p2align 4
  .type cairo_matrix_init_scale, %function
#ifndef IMPLIB_EXPORT_SHIMS
  .hidden cairo_matrix_init_scale
#endif
cairo_matrix_init_scale:
  .cfi_startproc

1:
  // Load address
  // TODO: can we do this faster on newer ARMs?
  adrp ip0, _libcairo_so_tramp_table+992
  ldr ip0, [ip0, #:lo12:_libcairo_so_tramp_table+992]
 
  cbz ip0, 2f

  // Fast path
  br ip0

2:
  // Slow path
  mov ip0, 124 & 0xffff
#if 124 > 0xffff
  movk ip0, 124 >> 16, lsl #16
#endif
  stp ip0, lr, [sp, #-16]!; .cfi_adjust_cfa_offset 16; .cfi_rel_offset lr, 8
  bl _libcairo_so_save_regs_and_resolve
  ldp xzr, lr, [sp], #16; .cfi_adjust_cfa_offset -16; .cfi_restore lr
  br ip0
  .cfi_endproc

/*
 * Copyright 2018-2025 Yury Gribov
 *
 * The MIT License (MIT)
 *
 * Use of this source code is governed by MIT license that can be
 * found in the LICENSE.txt file.
 */

  .globl cairo_matrix_init_translate
  .p2align 4
  .type cairo_matrix_init_translate, %function
#ifndef IMPLIB_EXPORT_SHIMS
  .hidden cairo_matrix_init_translate
#endif
cairo_matrix_init_translate:
  .cfi_startproc

1:
  // Load address
  // TODO: can we do this faster on newer ARMs?
  adrp ip0, _libcairo_so_tramp_table+1000
  ldr ip0, [ip0, #:lo12:_libcairo_so_tramp_table+1000]
 
  cbz ip0, 2f

  // Fast path
  br ip0

2:
  // Slow path
  mov ip0, 125 & 0xffff
#if 125 > 0xffff
  movk ip0, 125 >> 16, lsl #16
#endif
  stp ip0, lr, [sp, #-16]!; .cfi_adjust_cfa_offset 16; .cfi_rel_offset lr, 8
  bl _libcairo_so_save_regs_and_resolve
  ldp xzr, lr, [sp], #16; .cfi_adjust_cfa_offset -16; .cfi_restore lr
  br ip0
  .cfi_endproc

/*
 * Copyright 2018-2025 Yury Gribov
 *
 * The MIT License (MIT)
 *
 * Use of this source code is governed by MIT license that can be
 * found in the LICENSE.txt file.
 */

  .globl cairo_matrix_invert
  .p2align 4
  .type cairo_matrix_invert, %function
#ifndef IMPLIB_EXPORT_SHIMS
  .hidden cairo_matrix_invert
#endif
cairo_matrix_invert:
  .cfi_startproc

1:
  // Load address
  // TODO: can we do this faster on newer ARMs?
  adrp ip0, _libcairo_so_tramp_table+1008
  ldr ip0, [ip0, #:lo12:_libcairo_so_tramp_table+1008]
 
  cbz ip0, 2f

  // Fast path
  br ip0

2:
  // Slow path
  mov ip0, 126 & 0xffff
#if 126 > 0xffff
  movk ip0, 126 >> 16, lsl #16
#endif
  stp ip0, lr, [sp, #-16]!; .cfi_adjust_cfa_offset 16; .cfi_rel_offset lr, 8
  bl _libcairo_so_save_regs_and_resolve
  ldp xzr, lr, [sp], #16; .cfi_adjust_cfa_offset -16; .cfi_restore lr
  br ip0
  .cfi_endproc

/*
 * Copyright 2018-2025 Yury Gribov
 *
 * The MIT License (MIT)
 *
 * Use of this source code is governed by MIT license that can be
 * found in the LICENSE.txt file.
 */

  .globl cairo_matrix_multiply
  .p2align 4
  .type cairo_matrix_multiply, %function
#ifndef IMPLIB_EXPORT_SHIMS
  .hidden cairo_matrix_multiply
#endif
cairo_matrix_multiply:
  .cfi_startproc

1:
  // Load address
  // TODO: can we do this faster on newer ARMs?
  adrp ip0, _libcairo_so_tramp_table+1016
  ldr ip0, [ip0, #:lo12:_libcairo_so_tramp_table+1016]
 
  cbz ip0, 2f

  // Fast path
  br ip0

2:
  // Slow path
  mov ip0, 127 & 0xffff
#if 127 > 0xffff
  movk ip0, 127 >> 16, lsl #16
#endif
  stp ip0, lr, [sp, #-16]!; .cfi_adjust_cfa_offset 16; .cfi_rel_offset lr, 8
  bl _libcairo_so_save_regs_and_resolve
  ldp xzr, lr, [sp], #16; .cfi_adjust_cfa_offset -16; .cfi_restore lr
  br ip0
  .cfi_endproc

/*
 * Copyright 2018-2025 Yury Gribov
 *
 * The MIT License (MIT)
 *
 * Use of this source code is governed by MIT license that can be
 * found in the LICENSE.txt file.
 */

  .globl cairo_matrix_rotate
  .p2align 4
  .type cairo_matrix_rotate, %function
#ifndef IMPLIB_EXPORT_SHIMS
  .hidden cairo_matrix_rotate
#endif
cairo_matrix_rotate:
  .cfi_startproc

1:
  // Load address
  // TODO: can we do this faster on newer ARMs?
  adrp ip0, _libcairo_so_tramp_table+1024
  ldr ip0, [ip0, #:lo12:_libcairo_so_tramp_table+1024]
 
  cbz ip0, 2f

  // Fast path
  br ip0

2:
  // Slow path
  mov ip0, 128 & 0xffff
#if 128 > 0xffff
  movk ip0, 128 >> 16, lsl #16
#endif
  stp ip0, lr, [sp, #-16]!; .cfi_adjust_cfa_offset 16; .cfi_rel_offset lr, 8
  bl _libcairo_so_save_regs_and_resolve
  ldp xzr, lr, [sp], #16; .cfi_adjust_cfa_offset -16; .cfi_restore lr
  br ip0
  .cfi_endproc

/*
 * Copyright 2018-2025 Yury Gribov
 *
 * The MIT License (MIT)
 *
 * Use of this source code is governed by MIT license that can be
 * found in the LICENSE.txt file.
 */

  .globl cairo_matrix_scale
  .p2align 4
  .type cairo_matrix_scale, %function
#ifndef IMPLIB_EXPORT_SHIMS
  .hidden cairo_matrix_scale
#endif
cairo_matrix_scale:
  .cfi_startproc

1:
  // Load address
  // TODO: can we do this faster on newer ARMs?
  adrp ip0, _libcairo_so_tramp_table+1032
  ldr ip0, [ip0, #:lo12:_libcairo_so_tramp_table+1032]
 
  cbz ip0, 2f

  // Fast path
  br ip0

2:
  // Slow path
  mov ip0, 129 & 0xffff
#if 129 > 0xffff
  movk ip0, 129 >> 16, lsl #16
#endif
  stp ip0, lr, [sp, #-16]!; .cfi_adjust_cfa_offset 16; .cfi_rel_offset lr, 8
  bl _libcairo_so_save_regs_and_resolve
  ldp xzr, lr, [sp], #16; .cfi_adjust_cfa_offset -16; .cfi_restore lr
  br ip0
  .cfi_endproc

/*
 * Copyright 2018-2025 Yury Gribov
 *
 * The MIT License (MIT)
 *
 * Use of this source code is governed by MIT license that can be
 * found in the LICENSE.txt file.
 */

  .globl cairo_matrix_transform_distance
  .p2align 4
  .type cairo_matrix_transform_distance, %function
#ifndef IMPLIB_EXPORT_SHIMS
  .hidden cairo_matrix_transform_distance
#endif
cairo_matrix_transform_distance:
  .cfi_startproc

1:
  // Load address
  // TODO: can we do this faster on newer ARMs?
  adrp ip0, _libcairo_so_tramp_table+1040
  ldr ip0, [ip0, #:lo12:_libcairo_so_tramp_table+1040]
 
  cbz ip0, 2f

  // Fast path
  br ip0

2:
  // Slow path
  mov ip0, 130 & 0xffff
#if 130 > 0xffff
  movk ip0, 130 >> 16, lsl #16
#endif
  stp ip0, lr, [sp, #-16]!; .cfi_adjust_cfa_offset 16; .cfi_rel_offset lr, 8
  bl _libcairo_so_save_regs_and_resolve
  ldp xzr, lr, [sp], #16; .cfi_adjust_cfa_offset -16; .cfi_restore lr
  br ip0
  .cfi_endproc

/*
 * Copyright 2018-2025 Yury Gribov
 *
 * The MIT License (MIT)
 *
 * Use of this source code is governed by MIT license that can be
 * found in the LICENSE.txt file.
 */

  .globl cairo_matrix_transform_point
  .p2align 4
  .type cairo_matrix_transform_point, %function
#ifndef IMPLIB_EXPORT_SHIMS
  .hidden cairo_matrix_transform_point
#endif
cairo_matrix_transform_point:
  .cfi_startproc

1:
  // Load address
  // TODO: can we do this faster on newer ARMs?
  adrp ip0, _libcairo_so_tramp_table+1048
  ldr ip0, [ip0, #:lo12:_libcairo_so_tramp_table+1048]
 
  cbz ip0, 2f

  // Fast path
  br ip0

2:
  // Slow path
  mov ip0, 131 & 0xffff
#if 131 > 0xffff
  movk ip0, 131 >> 16, lsl #16
#endif
  stp ip0, lr, [sp, #-16]!; .cfi_adjust_cfa_offset 16; .cfi_rel_offset lr, 8
  bl _libcairo_so_save_regs_and_resolve
  ldp xzr, lr, [sp], #16; .cfi_adjust_cfa_offset -16; .cfi_restore lr
  br ip0
  .cfi_endproc

/*
 * Copyright 2018-2025 Yury Gribov
 *
 * The MIT License (MIT)
 *
 * Use of this source code is governed by MIT license that can be
 * found in the LICENSE.txt file.
 */

  .globl cairo_matrix_translate
  .p2align 4
  .type cairo_matrix_translate, %function
#ifndef IMPLIB_EXPORT_SHIMS
  .hidden cairo_matrix_translate
#endif
cairo_matrix_translate:
  .cfi_startproc

1:
  // Load address
  // TODO: can we do this faster on newer ARMs?
  adrp ip0, _libcairo_so_tramp_table+1056
  ldr ip0, [ip0, #:lo12:_libcairo_so_tramp_table+1056]
 
  cbz ip0, 2f

  // Fast path
  br ip0

2:
  // Slow path
  mov ip0, 132 & 0xffff
#if 132 > 0xffff
  movk ip0, 132 >> 16, lsl #16
#endif
  stp ip0, lr, [sp, #-16]!; .cfi_adjust_cfa_offset 16; .cfi_rel_offset lr, 8
  bl _libcairo_so_save_regs_and_resolve
  ldp xzr, lr, [sp], #16; .cfi_adjust_cfa_offset -16; .cfi_restore lr
  br ip0
  .cfi_endproc

/*
 * Copyright 2018-2025 Yury Gribov
 *
 * The MIT License (MIT)
 *
 * Use of this source code is governed by MIT license that can be
 * found in the LICENSE.txt file.
 */

  .globl cairo_mesh_pattern_begin_patch
  .p2align 4
  .type cairo_mesh_pattern_begin_patch, %function
#ifndef IMPLIB_EXPORT_SHIMS
  .hidden cairo_mesh_pattern_begin_patch
#endif
cairo_mesh_pattern_begin_patch:
  .cfi_startproc

1:
  // Load address
  // TODO: can we do this faster on newer ARMs?
  adrp ip0, _libcairo_so_tramp_table+1064
  ldr ip0, [ip0, #:lo12:_libcairo_so_tramp_table+1064]
 
  cbz ip0, 2f

  // Fast path
  br ip0

2:
  // Slow path
  mov ip0, 133 & 0xffff
#if 133 > 0xffff
  movk ip0, 133 >> 16, lsl #16
#endif
  stp ip0, lr, [sp, #-16]!; .cfi_adjust_cfa_offset 16; .cfi_rel_offset lr, 8
  bl _libcairo_so_save_regs_and_resolve
  ldp xzr, lr, [sp], #16; .cfi_adjust_cfa_offset -16; .cfi_restore lr
  br ip0
  .cfi_endproc

/*
 * Copyright 2018-2025 Yury Gribov
 *
 * The MIT License (MIT)
 *
 * Use of this source code is governed by MIT license that can be
 * found in the LICENSE.txt file.
 */

  .globl cairo_mesh_pattern_curve_to
  .p2align 4
  .type cairo_mesh_pattern_curve_to, %function
#ifndef IMPLIB_EXPORT_SHIMS
  .hidden cairo_mesh_pattern_curve_to
#endif
cairo_mesh_pattern_curve_to:
  .cfi_startproc

1:
  // Load address
  // TODO: can we do this faster on newer ARMs?
  adrp ip0, _libcairo_so_tramp_table+1072
  ldr ip0, [ip0, #:lo12:_libcairo_so_tramp_table+1072]
 
  cbz ip0, 2f

  // Fast path
  br ip0

2:
  // Slow path
  mov ip0, 134 & 0xffff
#if 134 > 0xffff
  movk ip0, 134 >> 16, lsl #16
#endif
  stp ip0, lr, [sp, #-16]!; .cfi_adjust_cfa_offset 16; .cfi_rel_offset lr, 8
  bl _libcairo_so_save_regs_and_resolve
  ldp xzr, lr, [sp], #16; .cfi_adjust_cfa_offset -16; .cfi_restore lr
  br ip0
  .cfi_endproc

/*
 * Copyright 2018-2025 Yury Gribov
 *
 * The MIT License (MIT)
 *
 * Use of this source code is governed by MIT license that can be
 * found in the LICENSE.txt file.
 */

  .globl cairo_mesh_pattern_end_patch
  .p2align 4
  .type cairo_mesh_pattern_end_patch, %function
#ifndef IMPLIB_EXPORT_SHIMS
  .hidden cairo_mesh_pattern_end_patch
#endif
cairo_mesh_pattern_end_patch:
  .cfi_startproc

1:
  // Load address
  // TODO: can we do this faster on newer ARMs?
  adrp ip0, _libcairo_so_tramp_table+1080
  ldr ip0, [ip0, #:lo12:_libcairo_so_tramp_table+1080]
 
  cbz ip0, 2f

  // Fast path
  br ip0

2:
  // Slow path
  mov ip0, 135 & 0xffff
#if 135 > 0xffff
  movk ip0, 135 >> 16, lsl #16
#endif
  stp ip0, lr, [sp, #-16]!; .cfi_adjust_cfa_offset 16; .cfi_rel_offset lr, 8
  bl _libcairo_so_save_regs_and_resolve
  ldp xzr, lr, [sp], #16; .cfi_adjust_cfa_offset -16; .cfi_restore lr
  br ip0
  .cfi_endproc

/*
 * Copyright 2018-2025 Yury Gribov
 *
 * The MIT License (MIT)
 *
 * Use of this source code is governed by MIT license that can be
 * found in the LICENSE.txt file.
 */

  .globl cairo_mesh_pattern_get_control_point
  .p2align 4
  .type cairo_mesh_pattern_get_control_point, %function
#ifndef IMPLIB_EXPORT_SHIMS
  .hidden cairo_mesh_pattern_get_control_point
#endif
cairo_mesh_pattern_get_control_point:
  .cfi_startproc

1:
  // Load address
  // TODO: can we do this faster on newer ARMs?
  adrp ip0, _libcairo_so_tramp_table+1088
  ldr ip0, [ip0, #:lo12:_libcairo_so_tramp_table+1088]
 
  cbz ip0, 2f

  // Fast path
  br ip0

2:
  // Slow path
  mov ip0, 136 & 0xffff
#if 136 > 0xffff
  movk ip0, 136 >> 16, lsl #16
#endif
  stp ip0, lr, [sp, #-16]!; .cfi_adjust_cfa_offset 16; .cfi_rel_offset lr, 8
  bl _libcairo_so_save_regs_and_resolve
  ldp xzr, lr, [sp], #16; .cfi_adjust_cfa_offset -16; .cfi_restore lr
  br ip0
  .cfi_endproc

/*
 * Copyright 2018-2025 Yury Gribov
 *
 * The MIT License (MIT)
 *
 * Use of this source code is governed by MIT license that can be
 * found in the LICENSE.txt file.
 */

  .globl cairo_mesh_pattern_get_corner_color_rgba
  .p2align 4
  .type cairo_mesh_pattern_get_corner_color_rgba, %function
#ifndef IMPLIB_EXPORT_SHIMS
  .hidden cairo_mesh_pattern_get_corner_color_rgba
#endif
cairo_mesh_pattern_get_corner_color_rgba:
  .cfi_startproc

1:
  // Load address
  // TODO: can we do this faster on newer ARMs?
  adrp ip0, _libcairo_so_tramp_table+1096
  ldr ip0, [ip0, #:lo12:_libcairo_so_tramp_table+1096]
 
  cbz ip0, 2f

  // Fast path
  br ip0

2:
  // Slow path
  mov ip0, 137 & 0xffff
#if 137 > 0xffff
  movk ip0, 137 >> 16, lsl #16
#endif
  stp ip0, lr, [sp, #-16]!; .cfi_adjust_cfa_offset 16; .cfi_rel_offset lr, 8
  bl _libcairo_so_save_regs_and_resolve
  ldp xzr, lr, [sp], #16; .cfi_adjust_cfa_offset -16; .cfi_restore lr
  br ip0
  .cfi_endproc

/*
 * Copyright 2018-2025 Yury Gribov
 *
 * The MIT License (MIT)
 *
 * Use of this source code is governed by MIT license that can be
 * found in the LICENSE.txt file.
 */

  .globl cairo_mesh_pattern_get_patch_count
  .p2align 4
  .type cairo_mesh_pattern_get_patch_count, %function
#ifndef IMPLIB_EXPORT_SHIMS
  .hidden cairo_mesh_pattern_get_patch_count
#endif
cairo_mesh_pattern_get_patch_count:
  .cfi_startproc

1:
  // Load address
  // TODO: can we do this faster on newer ARMs?
  adrp ip0, _libcairo_so_tramp_table+1104
  ldr ip0, [ip0, #:lo12:_libcairo_so_tramp_table+1104]
 
  cbz ip0, 2f

  // Fast path
  br ip0

2:
  // Slow path
  mov ip0, 138 & 0xffff
#if 138 > 0xffff
  movk ip0, 138 >> 16, lsl #16
#endif
  stp ip0, lr, [sp, #-16]!; .cfi_adjust_cfa_offset 16; .cfi_rel_offset lr, 8
  bl _libcairo_so_save_regs_and_resolve
  ldp xzr, lr, [sp], #16; .cfi_adjust_cfa_offset -16; .cfi_restore lr
  br ip0
  .cfi_endproc

/*
 * Copyright 2018-2025 Yury Gribov
 *
 * The MIT License (MIT)
 *
 * Use of this source code is governed by MIT license that can be
 * found in the LICENSE.txt file.
 */

  .globl cairo_mesh_pattern_get_path
  .p2align 4
  .type cairo_mesh_pattern_get_path, %function
#ifndef IMPLIB_EXPORT_SHIMS
  .hidden cairo_mesh_pattern_get_path
#endif
cairo_mesh_pattern_get_path:
  .cfi_startproc

1:
  // Load address
  // TODO: can we do this faster on newer ARMs?
  adrp ip0, _libcairo_so_tramp_table+1112
  ldr ip0, [ip0, #:lo12:_libcairo_so_tramp_table+1112]
 
  cbz ip0, 2f

  // Fast path
  br ip0

2:
  // Slow path
  mov ip0, 139 & 0xffff
#if 139 > 0xffff
  movk ip0, 139 >> 16, lsl #16
#endif
  stp ip0, lr, [sp, #-16]!; .cfi_adjust_cfa_offset 16; .cfi_rel_offset lr, 8
  bl _libcairo_so_save_regs_and_resolve
  ldp xzr, lr, [sp], #16; .cfi_adjust_cfa_offset -16; .cfi_restore lr
  br ip0
  .cfi_endproc

/*
 * Copyright 2018-2025 Yury Gribov
 *
 * The MIT License (MIT)
 *
 * Use of this source code is governed by MIT license that can be
 * found in the LICENSE.txt file.
 */

  .globl cairo_mesh_pattern_line_to
  .p2align 4
  .type cairo_mesh_pattern_line_to, %function
#ifndef IMPLIB_EXPORT_SHIMS
  .hidden cairo_mesh_pattern_line_to
#endif
cairo_mesh_pattern_line_to:
  .cfi_startproc

1:
  // Load address
  // TODO: can we do this faster on newer ARMs?
  adrp ip0, _libcairo_so_tramp_table+1120
  ldr ip0, [ip0, #:lo12:_libcairo_so_tramp_table+1120]
 
  cbz ip0, 2f

  // Fast path
  br ip0

2:
  // Slow path
  mov ip0, 140 & 0xffff
#if 140 > 0xffff
  movk ip0, 140 >> 16, lsl #16
#endif
  stp ip0, lr, [sp, #-16]!; .cfi_adjust_cfa_offset 16; .cfi_rel_offset lr, 8
  bl _libcairo_so_save_regs_and_resolve
  ldp xzr, lr, [sp], #16; .cfi_adjust_cfa_offset -16; .cfi_restore lr
  br ip0
  .cfi_endproc

/*
 * Copyright 2018-2025 Yury Gribov
 *
 * The MIT License (MIT)
 *
 * Use of this source code is governed by MIT license that can be
 * found in the LICENSE.txt file.
 */

  .globl cairo_mesh_pattern_move_to
  .p2align 4
  .type cairo_mesh_pattern_move_to, %function
#ifndef IMPLIB_EXPORT_SHIMS
  .hidden cairo_mesh_pattern_move_to
#endif
cairo_mesh_pattern_move_to:
  .cfi_startproc

1:
  // Load address
  // TODO: can we do this faster on newer ARMs?
  adrp ip0, _libcairo_so_tramp_table+1128
  ldr ip0, [ip0, #:lo12:_libcairo_so_tramp_table+1128]
 
  cbz ip0, 2f

  // Fast path
  br ip0

2:
  // Slow path
  mov ip0, 141 & 0xffff
#if 141 > 0xffff
  movk ip0, 141 >> 16, lsl #16
#endif
  stp ip0, lr, [sp, #-16]!; .cfi_adjust_cfa_offset 16; .cfi_rel_offset lr, 8
  bl _libcairo_so_save_regs_and_resolve
  ldp xzr, lr, [sp], #16; .cfi_adjust_cfa_offset -16; .cfi_restore lr
  br ip0
  .cfi_endproc

/*
 * Copyright 2018-2025 Yury Gribov
 *
 * The MIT License (MIT)
 *
 * Use of this source code is governed by MIT license that can be
 * found in the LICENSE.txt file.
 */

  .globl cairo_mesh_pattern_set_control_point
  .p2align 4
  .type cairo_mesh_pattern_set_control_point, %function
#ifndef IMPLIB_EXPORT_SHIMS
  .hidden cairo_mesh_pattern_set_control_point
#endif
cairo_mesh_pattern_set_control_point:
  .cfi_startproc

1:
  // Load address
  // TODO: can we do this faster on newer ARMs?
  adrp ip0, _libcairo_so_tramp_table+1136
  ldr ip0, [ip0, #:lo12:_libcairo_so_tramp_table+1136]
 
  cbz ip0, 2f

  // Fast path
  br ip0

2:
  // Slow path
  mov ip0, 142 & 0xffff
#if 142 > 0xffff
  movk ip0, 142 >> 16, lsl #16
#endif
  stp ip0, lr, [sp, #-16]!; .cfi_adjust_cfa_offset 16; .cfi_rel_offset lr, 8
  bl _libcairo_so_save_regs_and_resolve
  ldp xzr, lr, [sp], #16; .cfi_adjust_cfa_offset -16; .cfi_restore lr
  br ip0
  .cfi_endproc

/*
 * Copyright 2018-2025 Yury Gribov
 *
 * The MIT License (MIT)
 *
 * Use of this source code is governed by MIT license that can be
 * found in the LICENSE.txt file.
 */

  .globl cairo_mesh_pattern_set_corner_color_rgb
  .p2align 4
  .type cairo_mesh_pattern_set_corner_color_rgb, %function
#ifndef IMPLIB_EXPORT_SHIMS
  .hidden cairo_mesh_pattern_set_corner_color_rgb
#endif
cairo_mesh_pattern_set_corner_color_rgb:
  .cfi_startproc

1:
  // Load address
  // TODO: can we do this faster on newer ARMs?
  adrp ip0, _libcairo_so_tramp_table+1144
  ldr ip0, [ip0, #:lo12:_libcairo_so_tramp_table+1144]
 
  cbz ip0, 2f

  // Fast path
  br ip0

2:
  // Slow path
  mov ip0, 143 & 0xffff
#if 143 > 0xffff
  movk ip0, 143 >> 16, lsl #16
#endif
  stp ip0, lr, [sp, #-16]!; .cfi_adjust_cfa_offset 16; .cfi_rel_offset lr, 8
  bl _libcairo_so_save_regs_and_resolve
  ldp xzr, lr, [sp], #16; .cfi_adjust_cfa_offset -16; .cfi_restore lr
  br ip0
  .cfi_endproc

/*
 * Copyright 2018-2025 Yury Gribov
 *
 * The MIT License (MIT)
 *
 * Use of this source code is governed by MIT license that can be
 * found in the LICENSE.txt file.
 */

  .globl cairo_mesh_pattern_set_corner_color_rgba
  .p2align 4
  .type cairo_mesh_pattern_set_corner_color_rgba, %function
#ifndef IMPLIB_EXPORT_SHIMS
  .hidden cairo_mesh_pattern_set_corner_color_rgba
#endif
cairo_mesh_pattern_set_corner_color_rgba:
  .cfi_startproc

1:
  // Load address
  // TODO: can we do this faster on newer ARMs?
  adrp ip0, _libcairo_so_tramp_table+1152
  ldr ip0, [ip0, #:lo12:_libcairo_so_tramp_table+1152]
 
  cbz ip0, 2f

  // Fast path
  br ip0

2:
  // Slow path
  mov ip0, 144 & 0xffff
#if 144 > 0xffff
  movk ip0, 144 >> 16, lsl #16
#endif
  stp ip0, lr, [sp, #-16]!; .cfi_adjust_cfa_offset 16; .cfi_rel_offset lr, 8
  bl _libcairo_so_save_regs_and_resolve
  ldp xzr, lr, [sp], #16; .cfi_adjust_cfa_offset -16; .cfi_restore lr
  br ip0
  .cfi_endproc

/*
 * Copyright 2018-2025 Yury Gribov
 *
 * The MIT License (MIT)
 *
 * Use of this source code is governed by MIT license that can be
 * found in the LICENSE.txt file.
 */

  .globl cairo_move_to
  .p2align 4
  .type cairo_move_to, %function
#ifndef IMPLIB_EXPORT_SHIMS
  .hidden cairo_move_to
#endif
cairo_move_to:
  .cfi_startproc

1:
  // Load address
  // TODO: can we do this faster on newer ARMs?
  adrp ip0, _libcairo_so_tramp_table+1160
  ldr ip0, [ip0, #:lo12:_libcairo_so_tramp_table+1160]
 
  cbz ip0, 2f

  // Fast path
  br ip0

2:
  // Slow path
  mov ip0, 145 & 0xffff
#if 145 > 0xffff
  movk ip0, 145 >> 16, lsl #16
#endif
  stp ip0, lr, [sp, #-16]!; .cfi_adjust_cfa_offset 16; .cfi_rel_offset lr, 8
  bl _libcairo_so_save_regs_and_resolve
  ldp xzr, lr, [sp], #16; .cfi_adjust_cfa_offset -16; .cfi_restore lr
  br ip0
  .cfi_endproc

/*
 * Copyright 2018-2025 Yury Gribov
 *
 * The MIT License (MIT)
 *
 * Use of this source code is governed by MIT license that can be
 * found in the LICENSE.txt file.
 */

  .globl cairo_new_path
  .p2align 4
  .type cairo_new_path, %function
#ifndef IMPLIB_EXPORT_SHIMS
  .hidden cairo_new_path
#endif
cairo_new_path:
  .cfi_startproc

1:
  // Load address
  // TODO: can we do this faster on newer ARMs?
  adrp ip0, _libcairo_so_tramp_table+1168
  ldr ip0, [ip0, #:lo12:_libcairo_so_tramp_table+1168]
 
  cbz ip0, 2f

  // Fast path
  br ip0

2:
  // Slow path
  mov ip0, 146 & 0xffff
#if 146 > 0xffff
  movk ip0, 146 >> 16, lsl #16
#endif
  stp ip0, lr, [sp, #-16]!; .cfi_adjust_cfa_offset 16; .cfi_rel_offset lr, 8
  bl _libcairo_so_save_regs_and_resolve
  ldp xzr, lr, [sp], #16; .cfi_adjust_cfa_offset -16; .cfi_restore lr
  br ip0
  .cfi_endproc

/*
 * Copyright 2018-2025 Yury Gribov
 *
 * The MIT License (MIT)
 *
 * Use of this source code is governed by MIT license that can be
 * found in the LICENSE.txt file.
 */

  .globl cairo_new_sub_path
  .p2align 4
  .type cairo_new_sub_path, %function
#ifndef IMPLIB_EXPORT_SHIMS
  .hidden cairo_new_sub_path
#endif
cairo_new_sub_path:
  .cfi_startproc

1:
  // Load address
  // TODO: can we do this faster on newer ARMs?
  adrp ip0, _libcairo_so_tramp_table+1176
  ldr ip0, [ip0, #:lo12:_libcairo_so_tramp_table+1176]
 
  cbz ip0, 2f

  // Fast path
  br ip0

2:
  // Slow path
  mov ip0, 147 & 0xffff
#if 147 > 0xffff
  movk ip0, 147 >> 16, lsl #16
#endif
  stp ip0, lr, [sp, #-16]!; .cfi_adjust_cfa_offset 16; .cfi_rel_offset lr, 8
  bl _libcairo_so_save_regs_and_resolve
  ldp xzr, lr, [sp], #16; .cfi_adjust_cfa_offset -16; .cfi_restore lr
  br ip0
  .cfi_endproc

/*
 * Copyright 2018-2025 Yury Gribov
 *
 * The MIT License (MIT)
 *
 * Use of this source code is governed by MIT license that can be
 * found in the LICENSE.txt file.
 */

  .globl cairo_paint
  .p2align 4
  .type cairo_paint, %function
#ifndef IMPLIB_EXPORT_SHIMS
  .hidden cairo_paint
#endif
cairo_paint:
  .cfi_startproc

1:
  // Load address
  // TODO: can we do this faster on newer ARMs?
  adrp ip0, _libcairo_so_tramp_table+1184
  ldr ip0, [ip0, #:lo12:_libcairo_so_tramp_table+1184]
 
  cbz ip0, 2f

  // Fast path
  br ip0

2:
  // Slow path
  mov ip0, 148 & 0xffff
#if 148 > 0xffff
  movk ip0, 148 >> 16, lsl #16
#endif
  stp ip0, lr, [sp, #-16]!; .cfi_adjust_cfa_offset 16; .cfi_rel_offset lr, 8
  bl _libcairo_so_save_regs_and_resolve
  ldp xzr, lr, [sp], #16; .cfi_adjust_cfa_offset -16; .cfi_restore lr
  br ip0
  .cfi_endproc

/*
 * Copyright 2018-2025 Yury Gribov
 *
 * The MIT License (MIT)
 *
 * Use of this source code is governed by MIT license that can be
 * found in the LICENSE.txt file.
 */

  .globl cairo_paint_with_alpha
  .p2align 4
  .type cairo_paint_with_alpha, %function
#ifndef IMPLIB_EXPORT_SHIMS
  .hidden cairo_paint_with_alpha
#endif
cairo_paint_with_alpha:
  .cfi_startproc

1:
  // Load address
  // TODO: can we do this faster on newer ARMs?
  adrp ip0, _libcairo_so_tramp_table+1192
  ldr ip0, [ip0, #:lo12:_libcairo_so_tramp_table+1192]
 
  cbz ip0, 2f

  // Fast path
  br ip0

2:
  // Slow path
  mov ip0, 149 & 0xffff
#if 149 > 0xffff
  movk ip0, 149 >> 16, lsl #16
#endif
  stp ip0, lr, [sp, #-16]!; .cfi_adjust_cfa_offset 16; .cfi_rel_offset lr, 8
  bl _libcairo_so_save_regs_and_resolve
  ldp xzr, lr, [sp], #16; .cfi_adjust_cfa_offset -16; .cfi_restore lr
  br ip0
  .cfi_endproc

/*
 * Copyright 2018-2025 Yury Gribov
 *
 * The MIT License (MIT)
 *
 * Use of this source code is governed by MIT license that can be
 * found in the LICENSE.txt file.
 */

  .globl cairo_path_destroy
  .p2align 4
  .type cairo_path_destroy, %function
#ifndef IMPLIB_EXPORT_SHIMS
  .hidden cairo_path_destroy
#endif
cairo_path_destroy:
  .cfi_startproc

1:
  // Load address
  // TODO: can we do this faster on newer ARMs?
  adrp ip0, _libcairo_so_tramp_table+1200
  ldr ip0, [ip0, #:lo12:_libcairo_so_tramp_table+1200]
 
  cbz ip0, 2f

  // Fast path
  br ip0

2:
  // Slow path
  mov ip0, 150 & 0xffff
#if 150 > 0xffff
  movk ip0, 150 >> 16, lsl #16
#endif
  stp ip0, lr, [sp, #-16]!; .cfi_adjust_cfa_offset 16; .cfi_rel_offset lr, 8
  bl _libcairo_so_save_regs_and_resolve
  ldp xzr, lr, [sp], #16; .cfi_adjust_cfa_offset -16; .cfi_restore lr
  br ip0
  .cfi_endproc

/*
 * Copyright 2018-2025 Yury Gribov
 *
 * The MIT License (MIT)
 *
 * Use of this source code is governed by MIT license that can be
 * found in the LICENSE.txt file.
 */

  .globl cairo_path_extents
  .p2align 4
  .type cairo_path_extents, %function
#ifndef IMPLIB_EXPORT_SHIMS
  .hidden cairo_path_extents
#endif
cairo_path_extents:
  .cfi_startproc

1:
  // Load address
  // TODO: can we do this faster on newer ARMs?
  adrp ip0, _libcairo_so_tramp_table+1208
  ldr ip0, [ip0, #:lo12:_libcairo_so_tramp_table+1208]
 
  cbz ip0, 2f

  // Fast path
  br ip0

2:
  // Slow path
  mov ip0, 151 & 0xffff
#if 151 > 0xffff
  movk ip0, 151 >> 16, lsl #16
#endif
  stp ip0, lr, [sp, #-16]!; .cfi_adjust_cfa_offset 16; .cfi_rel_offset lr, 8
  bl _libcairo_so_save_regs_and_resolve
  ldp xzr, lr, [sp], #16; .cfi_adjust_cfa_offset -16; .cfi_restore lr
  br ip0
  .cfi_endproc

/*
 * Copyright 2018-2025 Yury Gribov
 *
 * The MIT License (MIT)
 *
 * Use of this source code is governed by MIT license that can be
 * found in the LICENSE.txt file.
 */

  .globl cairo_pattern_add_color_stop_rgb
  .p2align 4
  .type cairo_pattern_add_color_stop_rgb, %function
#ifndef IMPLIB_EXPORT_SHIMS
  .hidden cairo_pattern_add_color_stop_rgb
#endif
cairo_pattern_add_color_stop_rgb:
  .cfi_startproc

1:
  // Load address
  // TODO: can we do this faster on newer ARMs?
  adrp ip0, _libcairo_so_tramp_table+1216
  ldr ip0, [ip0, #:lo12:_libcairo_so_tramp_table+1216]
 
  cbz ip0, 2f

  // Fast path
  br ip0

2:
  // Slow path
  mov ip0, 152 & 0xffff
#if 152 > 0xffff
  movk ip0, 152 >> 16, lsl #16
#endif
  stp ip0, lr, [sp, #-16]!; .cfi_adjust_cfa_offset 16; .cfi_rel_offset lr, 8
  bl _libcairo_so_save_regs_and_resolve
  ldp xzr, lr, [sp], #16; .cfi_adjust_cfa_offset -16; .cfi_restore lr
  br ip0
  .cfi_endproc

/*
 * Copyright 2018-2025 Yury Gribov
 *
 * The MIT License (MIT)
 *
 * Use of this source code is governed by MIT license that can be
 * found in the LICENSE.txt file.
 */

  .globl cairo_pattern_add_color_stop_rgba
  .p2align 4
  .type cairo_pattern_add_color_stop_rgba, %function
#ifndef IMPLIB_EXPORT_SHIMS
  .hidden cairo_pattern_add_color_stop_rgba
#endif
cairo_pattern_add_color_stop_rgba:
  .cfi_startproc

1:
  // Load address
  // TODO: can we do this faster on newer ARMs?
  adrp ip0, _libcairo_so_tramp_table+1224
  ldr ip0, [ip0, #:lo12:_libcairo_so_tramp_table+1224]
 
  cbz ip0, 2f

  // Fast path
  br ip0

2:
  // Slow path
  mov ip0, 153 & 0xffff
#if 153 > 0xffff
  movk ip0, 153 >> 16, lsl #16
#endif
  stp ip0, lr, [sp, #-16]!; .cfi_adjust_cfa_offset 16; .cfi_rel_offset lr, 8
  bl _libcairo_so_save_regs_and_resolve
  ldp xzr, lr, [sp], #16; .cfi_adjust_cfa_offset -16; .cfi_restore lr
  br ip0
  .cfi_endproc

/*
 * Copyright 2018-2025 Yury Gribov
 *
 * The MIT License (MIT)
 *
 * Use of this source code is governed by MIT license that can be
 * found in the LICENSE.txt file.
 */

  .globl cairo_pattern_create_for_surface
  .p2align 4
  .type cairo_pattern_create_for_surface, %function
#ifndef IMPLIB_EXPORT_SHIMS
  .hidden cairo_pattern_create_for_surface
#endif
cairo_pattern_create_for_surface:
  .cfi_startproc

1:
  // Load address
  // TODO: can we do this faster on newer ARMs?
  adrp ip0, _libcairo_so_tramp_table+1232
  ldr ip0, [ip0, #:lo12:_libcairo_so_tramp_table+1232]
 
  cbz ip0, 2f

  // Fast path
  br ip0

2:
  // Slow path
  mov ip0, 154 & 0xffff
#if 154 > 0xffff
  movk ip0, 154 >> 16, lsl #16
#endif
  stp ip0, lr, [sp, #-16]!; .cfi_adjust_cfa_offset 16; .cfi_rel_offset lr, 8
  bl _libcairo_so_save_regs_and_resolve
  ldp xzr, lr, [sp], #16; .cfi_adjust_cfa_offset -16; .cfi_restore lr
  br ip0
  .cfi_endproc

/*
 * Copyright 2018-2025 Yury Gribov
 *
 * The MIT License (MIT)
 *
 * Use of this source code is governed by MIT license that can be
 * found in the LICENSE.txt file.
 */

  .globl cairo_pattern_create_linear
  .p2align 4
  .type cairo_pattern_create_linear, %function
#ifndef IMPLIB_EXPORT_SHIMS
  .hidden cairo_pattern_create_linear
#endif
cairo_pattern_create_linear:
  .cfi_startproc

1:
  // Load address
  // TODO: can we do this faster on newer ARMs?
  adrp ip0, _libcairo_so_tramp_table+1240
  ldr ip0, [ip0, #:lo12:_libcairo_so_tramp_table+1240]
 
  cbz ip0, 2f

  // Fast path
  br ip0

2:
  // Slow path
  mov ip0, 155 & 0xffff
#if 155 > 0xffff
  movk ip0, 155 >> 16, lsl #16
#endif
  stp ip0, lr, [sp, #-16]!; .cfi_adjust_cfa_offset 16; .cfi_rel_offset lr, 8
  bl _libcairo_so_save_regs_and_resolve
  ldp xzr, lr, [sp], #16; .cfi_adjust_cfa_offset -16; .cfi_restore lr
  br ip0
  .cfi_endproc

/*
 * Copyright 2018-2025 Yury Gribov
 *
 * The MIT License (MIT)
 *
 * Use of this source code is governed by MIT license that can be
 * found in the LICENSE.txt file.
 */

  .globl cairo_pattern_create_mesh
  .p2align 4
  .type cairo_pattern_create_mesh, %function
#ifndef IMPLIB_EXPORT_SHIMS
  .hidden cairo_pattern_create_mesh
#endif
cairo_pattern_create_mesh:
  .cfi_startproc

1:
  // Load address
  // TODO: can we do this faster on newer ARMs?
  adrp ip0, _libcairo_so_tramp_table+1248
  ldr ip0, [ip0, #:lo12:_libcairo_so_tramp_table+1248]
 
  cbz ip0, 2f

  // Fast path
  br ip0

2:
  // Slow path
  mov ip0, 156 & 0xffff
#if 156 > 0xffff
  movk ip0, 156 >> 16, lsl #16
#endif
  stp ip0, lr, [sp, #-16]!; .cfi_adjust_cfa_offset 16; .cfi_rel_offset lr, 8
  bl _libcairo_so_save_regs_and_resolve
  ldp xzr, lr, [sp], #16; .cfi_adjust_cfa_offset -16; .cfi_restore lr
  br ip0
  .cfi_endproc

/*
 * Copyright 2018-2025 Yury Gribov
 *
 * The MIT License (MIT)
 *
 * Use of this source code is governed by MIT license that can be
 * found in the LICENSE.txt file.
 */

  .globl cairo_pattern_create_radial
  .p2align 4
  .type cairo_pattern_create_radial, %function
#ifndef IMPLIB_EXPORT_SHIMS
  .hidden cairo_pattern_create_radial
#endif
cairo_pattern_create_radial:
  .cfi_startproc

1:
  // Load address
  // TODO: can we do this faster on newer ARMs?
  adrp ip0, _libcairo_so_tramp_table+1256
  ldr ip0, [ip0, #:lo12:_libcairo_so_tramp_table+1256]
 
  cbz ip0, 2f

  // Fast path
  br ip0

2:
  // Slow path
  mov ip0, 157 & 0xffff
#if 157 > 0xffff
  movk ip0, 157 >> 16, lsl #16
#endif
  stp ip0, lr, [sp, #-16]!; .cfi_adjust_cfa_offset 16; .cfi_rel_offset lr, 8
  bl _libcairo_so_save_regs_and_resolve
  ldp xzr, lr, [sp], #16; .cfi_adjust_cfa_offset -16; .cfi_restore lr
  br ip0
  .cfi_endproc

/*
 * Copyright 2018-2025 Yury Gribov
 *
 * The MIT License (MIT)
 *
 * Use of this source code is governed by MIT license that can be
 * found in the LICENSE.txt file.
 */

  .globl cairo_pattern_create_raster_source
  .p2align 4
  .type cairo_pattern_create_raster_source, %function
#ifndef IMPLIB_EXPORT_SHIMS
  .hidden cairo_pattern_create_raster_source
#endif
cairo_pattern_create_raster_source:
  .cfi_startproc

1:
  // Load address
  // TODO: can we do this faster on newer ARMs?
  adrp ip0, _libcairo_so_tramp_table+1264
  ldr ip0, [ip0, #:lo12:_libcairo_so_tramp_table+1264]
 
  cbz ip0, 2f

  // Fast path
  br ip0

2:
  // Slow path
  mov ip0, 158 & 0xffff
#if 158 > 0xffff
  movk ip0, 158 >> 16, lsl #16
#endif
  stp ip0, lr, [sp, #-16]!; .cfi_adjust_cfa_offset 16; .cfi_rel_offset lr, 8
  bl _libcairo_so_save_regs_and_resolve
  ldp xzr, lr, [sp], #16; .cfi_adjust_cfa_offset -16; .cfi_restore lr
  br ip0
  .cfi_endproc

/*
 * Copyright 2018-2025 Yury Gribov
 *
 * The MIT License (MIT)
 *
 * Use of this source code is governed by MIT license that can be
 * found in the LICENSE.txt file.
 */

  .globl cairo_pattern_create_rgb
  .p2align 4
  .type cairo_pattern_create_rgb, %function
#ifndef IMPLIB_EXPORT_SHIMS
  .hidden cairo_pattern_create_rgb
#endif
cairo_pattern_create_rgb:
  .cfi_startproc

1:
  // Load address
  // TODO: can we do this faster on newer ARMs?
  adrp ip0, _libcairo_so_tramp_table+1272
  ldr ip0, [ip0, #:lo12:_libcairo_so_tramp_table+1272]
 
  cbz ip0, 2f

  // Fast path
  br ip0

2:
  // Slow path
  mov ip0, 159 & 0xffff
#if 159 > 0xffff
  movk ip0, 159 >> 16, lsl #16
#endif
  stp ip0, lr, [sp, #-16]!; .cfi_adjust_cfa_offset 16; .cfi_rel_offset lr, 8
  bl _libcairo_so_save_regs_and_resolve
  ldp xzr, lr, [sp], #16; .cfi_adjust_cfa_offset -16; .cfi_restore lr
  br ip0
  .cfi_endproc

/*
 * Copyright 2018-2025 Yury Gribov
 *
 * The MIT License (MIT)
 *
 * Use of this source code is governed by MIT license that can be
 * found in the LICENSE.txt file.
 */

  .globl cairo_pattern_create_rgba
  .p2align 4
  .type cairo_pattern_create_rgba, %function
#ifndef IMPLIB_EXPORT_SHIMS
  .hidden cairo_pattern_create_rgba
#endif
cairo_pattern_create_rgba:
  .cfi_startproc

1:
  // Load address
  // TODO: can we do this faster on newer ARMs?
  adrp ip0, _libcairo_so_tramp_table+1280
  ldr ip0, [ip0, #:lo12:_libcairo_so_tramp_table+1280]
 
  cbz ip0, 2f

  // Fast path
  br ip0

2:
  // Slow path
  mov ip0, 160 & 0xffff
#if 160 > 0xffff
  movk ip0, 160 >> 16, lsl #16
#endif
  stp ip0, lr, [sp, #-16]!; .cfi_adjust_cfa_offset 16; .cfi_rel_offset lr, 8
  bl _libcairo_so_save_regs_and_resolve
  ldp xzr, lr, [sp], #16; .cfi_adjust_cfa_offset -16; .cfi_restore lr
  br ip0
  .cfi_endproc

/*
 * Copyright 2018-2025 Yury Gribov
 *
 * The MIT License (MIT)
 *
 * Use of this source code is governed by MIT license that can be
 * found in the LICENSE.txt file.
 */

  .globl cairo_pattern_destroy
  .p2align 4
  .type cairo_pattern_destroy, %function
#ifndef IMPLIB_EXPORT_SHIMS
  .hidden cairo_pattern_destroy
#endif
cairo_pattern_destroy:
  .cfi_startproc

1:
  // Load address
  // TODO: can we do this faster on newer ARMs?
  adrp ip0, _libcairo_so_tramp_table+1288
  ldr ip0, [ip0, #:lo12:_libcairo_so_tramp_table+1288]
 
  cbz ip0, 2f

  // Fast path
  br ip0

2:
  // Slow path
  mov ip0, 161 & 0xffff
#if 161 > 0xffff
  movk ip0, 161 >> 16, lsl #16
#endif
  stp ip0, lr, [sp, #-16]!; .cfi_adjust_cfa_offset 16; .cfi_rel_offset lr, 8
  bl _libcairo_so_save_regs_and_resolve
  ldp xzr, lr, [sp], #16; .cfi_adjust_cfa_offset -16; .cfi_restore lr
  br ip0
  .cfi_endproc

/*
 * Copyright 2018-2025 Yury Gribov
 *
 * The MIT License (MIT)
 *
 * Use of this source code is governed by MIT license that can be
 * found in the LICENSE.txt file.
 */

  .globl cairo_pattern_get_color_stop_count
  .p2align 4
  .type cairo_pattern_get_color_stop_count, %function
#ifndef IMPLIB_EXPORT_SHIMS
  .hidden cairo_pattern_get_color_stop_count
#endif
cairo_pattern_get_color_stop_count:
  .cfi_startproc

1:
  // Load address
  // TODO: can we do this faster on newer ARMs?
  adrp ip0, _libcairo_so_tramp_table+1296
  ldr ip0, [ip0, #:lo12:_libcairo_so_tramp_table+1296]
 
  cbz ip0, 2f

  // Fast path
  br ip0

2:
  // Slow path
  mov ip0, 162 & 0xffff
#if 162 > 0xffff
  movk ip0, 162 >> 16, lsl #16
#endif
  stp ip0, lr, [sp, #-16]!; .cfi_adjust_cfa_offset 16; .cfi_rel_offset lr, 8
  bl _libcairo_so_save_regs_and_resolve
  ldp xzr, lr, [sp], #16; .cfi_adjust_cfa_offset -16; .cfi_restore lr
  br ip0
  .cfi_endproc

/*
 * Copyright 2018-2025 Yury Gribov
 *
 * The MIT License (MIT)
 *
 * Use of this source code is governed by MIT license that can be
 * found in the LICENSE.txt file.
 */

  .globl cairo_pattern_get_color_stop_rgba
  .p2align 4
  .type cairo_pattern_get_color_stop_rgba, %function
#ifndef IMPLIB_EXPORT_SHIMS
  .hidden cairo_pattern_get_color_stop_rgba
#endif
cairo_pattern_get_color_stop_rgba:
  .cfi_startproc

1:
  // Load address
  // TODO: can we do this faster on newer ARMs?
  adrp ip0, _libcairo_so_tramp_table+1304
  ldr ip0, [ip0, #:lo12:_libcairo_so_tramp_table+1304]
 
  cbz ip0, 2f

  // Fast path
  br ip0

2:
  // Slow path
  mov ip0, 163 & 0xffff
#if 163 > 0xffff
  movk ip0, 163 >> 16, lsl #16
#endif
  stp ip0, lr, [sp, #-16]!; .cfi_adjust_cfa_offset 16; .cfi_rel_offset lr, 8
  bl _libcairo_so_save_regs_and_resolve
  ldp xzr, lr, [sp], #16; .cfi_adjust_cfa_offset -16; .cfi_restore lr
  br ip0
  .cfi_endproc

/*
 * Copyright 2018-2025 Yury Gribov
 *
 * The MIT License (MIT)
 *
 * Use of this source code is governed by MIT license that can be
 * found in the LICENSE.txt file.
 */

  .globl cairo_pattern_get_dither
  .p2align 4
  .type cairo_pattern_get_dither, %function
#ifndef IMPLIB_EXPORT_SHIMS
  .hidden cairo_pattern_get_dither
#endif
cairo_pattern_get_dither:
  .cfi_startproc

1:
  // Load address
  // TODO: can we do this faster on newer ARMs?
  adrp ip0, _libcairo_so_tramp_table+1312
  ldr ip0, [ip0, #:lo12:_libcairo_so_tramp_table+1312]
 
  cbz ip0, 2f

  // Fast path
  br ip0

2:
  // Slow path
  mov ip0, 164 & 0xffff
#if 164 > 0xffff
  movk ip0, 164 >> 16, lsl #16
#endif
  stp ip0, lr, [sp, #-16]!; .cfi_adjust_cfa_offset 16; .cfi_rel_offset lr, 8
  bl _libcairo_so_save_regs_and_resolve
  ldp xzr, lr, [sp], #16; .cfi_adjust_cfa_offset -16; .cfi_restore lr
  br ip0
  .cfi_endproc

/*
 * Copyright 2018-2025 Yury Gribov
 *
 * The MIT License (MIT)
 *
 * Use of this source code is governed by MIT license that can be
 * found in the LICENSE.txt file.
 */

  .globl cairo_pattern_get_extend
  .p2align 4
  .type cairo_pattern_get_extend, %function
#ifndef IMPLIB_EXPORT_SHIMS
  .hidden cairo_pattern_get_extend
#endif
cairo_pattern_get_extend:
  .cfi_startproc

1:
  // Load address
  // TODO: can we do this faster on newer ARMs?
  adrp ip0, _libcairo_so_tramp_table+1320
  ldr ip0, [ip0, #:lo12:_libcairo_so_tramp_table+1320]
 
  cbz ip0, 2f

  // Fast path
  br ip0

2:
  // Slow path
  mov ip0, 165 & 0xffff
#if 165 > 0xffff
  movk ip0, 165 >> 16, lsl #16
#endif
  stp ip0, lr, [sp, #-16]!; .cfi_adjust_cfa_offset 16; .cfi_rel_offset lr, 8
  bl _libcairo_so_save_regs_and_resolve
  ldp xzr, lr, [sp], #16; .cfi_adjust_cfa_offset -16; .cfi_restore lr
  br ip0
  .cfi_endproc

/*
 * Copyright 2018-2025 Yury Gribov
 *
 * The MIT License (MIT)
 *
 * Use of this source code is governed by MIT license that can be
 * found in the LICENSE.txt file.
 */

  .globl cairo_pattern_get_filter
  .p2align 4
  .type cairo_pattern_get_filter, %function
#ifndef IMPLIB_EXPORT_SHIMS
  .hidden cairo_pattern_get_filter
#endif
cairo_pattern_get_filter:
  .cfi_startproc

1:
  // Load address
  // TODO: can we do this faster on newer ARMs?
  adrp ip0, _libcairo_so_tramp_table+1328
  ldr ip0, [ip0, #:lo12:_libcairo_so_tramp_table+1328]
 
  cbz ip0, 2f

  // Fast path
  br ip0

2:
  // Slow path
  mov ip0, 166 & 0xffff
#if 166 > 0xffff
  movk ip0, 166 >> 16, lsl #16
#endif
  stp ip0, lr, [sp, #-16]!; .cfi_adjust_cfa_offset 16; .cfi_rel_offset lr, 8
  bl _libcairo_so_save_regs_and_resolve
  ldp xzr, lr, [sp], #16; .cfi_adjust_cfa_offset -16; .cfi_restore lr
  br ip0
  .cfi_endproc

/*
 * Copyright 2018-2025 Yury Gribov
 *
 * The MIT License (MIT)
 *
 * Use of this source code is governed by MIT license that can be
 * found in the LICENSE.txt file.
 */

  .globl cairo_pattern_get_linear_points
  .p2align 4
  .type cairo_pattern_get_linear_points, %function
#ifndef IMPLIB_EXPORT_SHIMS
  .hidden cairo_pattern_get_linear_points
#endif
cairo_pattern_get_linear_points:
  .cfi_startproc

1:
  // Load address
  // TODO: can we do this faster on newer ARMs?
  adrp ip0, _libcairo_so_tramp_table+1336
  ldr ip0, [ip0, #:lo12:_libcairo_so_tramp_table+1336]
 
  cbz ip0, 2f

  // Fast path
  br ip0

2:
  // Slow path
  mov ip0, 167 & 0xffff
#if 167 > 0xffff
  movk ip0, 167 >> 16, lsl #16
#endif
  stp ip0, lr, [sp, #-16]!; .cfi_adjust_cfa_offset 16; .cfi_rel_offset lr, 8
  bl _libcairo_so_save_regs_and_resolve
  ldp xzr, lr, [sp], #16; .cfi_adjust_cfa_offset -16; .cfi_restore lr
  br ip0
  .cfi_endproc

/*
 * Copyright 2018-2025 Yury Gribov
 *
 * The MIT License (MIT)
 *
 * Use of this source code is governed by MIT license that can be
 * found in the LICENSE.txt file.
 */

  .globl cairo_pattern_get_matrix
  .p2align 4
  .type cairo_pattern_get_matrix, %function
#ifndef IMPLIB_EXPORT_SHIMS
  .hidden cairo_pattern_get_matrix
#endif
cairo_pattern_get_matrix:
  .cfi_startproc

1:
  // Load address
  // TODO: can we do this faster on newer ARMs?
  adrp ip0, _libcairo_so_tramp_table+1344
  ldr ip0, [ip0, #:lo12:_libcairo_so_tramp_table+1344]
 
  cbz ip0, 2f

  // Fast path
  br ip0

2:
  // Slow path
  mov ip0, 168 & 0xffff
#if 168 > 0xffff
  movk ip0, 168 >> 16, lsl #16
#endif
  stp ip0, lr, [sp, #-16]!; .cfi_adjust_cfa_offset 16; .cfi_rel_offset lr, 8
  bl _libcairo_so_save_regs_and_resolve
  ldp xzr, lr, [sp], #16; .cfi_adjust_cfa_offset -16; .cfi_restore lr
  br ip0
  .cfi_endproc

/*
 * Copyright 2018-2025 Yury Gribov
 *
 * The MIT License (MIT)
 *
 * Use of this source code is governed by MIT license that can be
 * found in the LICENSE.txt file.
 */

  .globl cairo_pattern_get_radial_circles
  .p2align 4
  .type cairo_pattern_get_radial_circles, %function
#ifndef IMPLIB_EXPORT_SHIMS
  .hidden cairo_pattern_get_radial_circles
#endif
cairo_pattern_get_radial_circles:
  .cfi_startproc

1:
  // Load address
  // TODO: can we do this faster on newer ARMs?
  adrp ip0, _libcairo_so_tramp_table+1352
  ldr ip0, [ip0, #:lo12:_libcairo_so_tramp_table+1352]
 
  cbz ip0, 2f

  // Fast path
  br ip0

2:
  // Slow path
  mov ip0, 169 & 0xffff
#if 169 > 0xffff
  movk ip0, 169 >> 16, lsl #16
#endif
  stp ip0, lr, [sp, #-16]!; .cfi_adjust_cfa_offset 16; .cfi_rel_offset lr, 8
  bl _libcairo_so_save_regs_and_resolve
  ldp xzr, lr, [sp], #16; .cfi_adjust_cfa_offset -16; .cfi_restore lr
  br ip0
  .cfi_endproc

/*
 * Copyright 2018-2025 Yury Gribov
 *
 * The MIT License (MIT)
 *
 * Use of this source code is governed by MIT license that can be
 * found in the LICENSE.txt file.
 */

  .globl cairo_pattern_get_reference_count
  .p2align 4
  .type cairo_pattern_get_reference_count, %function
#ifndef IMPLIB_EXPORT_SHIMS
  .hidden cairo_pattern_get_reference_count
#endif
cairo_pattern_get_reference_count:
  .cfi_startproc

1:
  // Load address
  // TODO: can we do this faster on newer ARMs?
  adrp ip0, _libcairo_so_tramp_table+1360
  ldr ip0, [ip0, #:lo12:_libcairo_so_tramp_table+1360]
 
  cbz ip0, 2f

  // Fast path
  br ip0

2:
  // Slow path
  mov ip0, 170 & 0xffff
#if 170 > 0xffff
  movk ip0, 170 >> 16, lsl #16
#endif
  stp ip0, lr, [sp, #-16]!; .cfi_adjust_cfa_offset 16; .cfi_rel_offset lr, 8
  bl _libcairo_so_save_regs_and_resolve
  ldp xzr, lr, [sp], #16; .cfi_adjust_cfa_offset -16; .cfi_restore lr
  br ip0
  .cfi_endproc

/*
 * Copyright 2018-2025 Yury Gribov
 *
 * The MIT License (MIT)
 *
 * Use of this source code is governed by MIT license that can be
 * found in the LICENSE.txt file.
 */

  .globl cairo_pattern_get_rgba
  .p2align 4
  .type cairo_pattern_get_rgba, %function
#ifndef IMPLIB_EXPORT_SHIMS
  .hidden cairo_pattern_get_rgba
#endif
cairo_pattern_get_rgba:
  .cfi_startproc

1:
  // Load address
  // TODO: can we do this faster on newer ARMs?
  adrp ip0, _libcairo_so_tramp_table+1368
  ldr ip0, [ip0, #:lo12:_libcairo_so_tramp_table+1368]
 
  cbz ip0, 2f

  // Fast path
  br ip0

2:
  // Slow path
  mov ip0, 171 & 0xffff
#if 171 > 0xffff
  movk ip0, 171 >> 16, lsl #16
#endif
  stp ip0, lr, [sp, #-16]!; .cfi_adjust_cfa_offset 16; .cfi_rel_offset lr, 8
  bl _libcairo_so_save_regs_and_resolve
  ldp xzr, lr, [sp], #16; .cfi_adjust_cfa_offset -16; .cfi_restore lr
  br ip0
  .cfi_endproc

/*
 * Copyright 2018-2025 Yury Gribov
 *
 * The MIT License (MIT)
 *
 * Use of this source code is governed by MIT license that can be
 * found in the LICENSE.txt file.
 */

  .globl cairo_pattern_get_surface
  .p2align 4
  .type cairo_pattern_get_surface, %function
#ifndef IMPLIB_EXPORT_SHIMS
  .hidden cairo_pattern_get_surface
#endif
cairo_pattern_get_surface:
  .cfi_startproc

1:
  // Load address
  // TODO: can we do this faster on newer ARMs?
  adrp ip0, _libcairo_so_tramp_table+1376
  ldr ip0, [ip0, #:lo12:_libcairo_so_tramp_table+1376]
 
  cbz ip0, 2f

  // Fast path
  br ip0

2:
  // Slow path
  mov ip0, 172 & 0xffff
#if 172 > 0xffff
  movk ip0, 172 >> 16, lsl #16
#endif
  stp ip0, lr, [sp, #-16]!; .cfi_adjust_cfa_offset 16; .cfi_rel_offset lr, 8
  bl _libcairo_so_save_regs_and_resolve
  ldp xzr, lr, [sp], #16; .cfi_adjust_cfa_offset -16; .cfi_restore lr
  br ip0
  .cfi_endproc

/*
 * Copyright 2018-2025 Yury Gribov
 *
 * The MIT License (MIT)
 *
 * Use of this source code is governed by MIT license that can be
 * found in the LICENSE.txt file.
 */

  .globl cairo_pattern_get_type
  .p2align 4
  .type cairo_pattern_get_type, %function
#ifndef IMPLIB_EXPORT_SHIMS
  .hidden cairo_pattern_get_type
#endif
cairo_pattern_get_type:
  .cfi_startproc

1:
  // Load address
  // TODO: can we do this faster on newer ARMs?
  adrp ip0, _libcairo_so_tramp_table+1384
  ldr ip0, [ip0, #:lo12:_libcairo_so_tramp_table+1384]
 
  cbz ip0, 2f

  // Fast path
  br ip0

2:
  // Slow path
  mov ip0, 173 & 0xffff
#if 173 > 0xffff
  movk ip0, 173 >> 16, lsl #16
#endif
  stp ip0, lr, [sp, #-16]!; .cfi_adjust_cfa_offset 16; .cfi_rel_offset lr, 8
  bl _libcairo_so_save_regs_and_resolve
  ldp xzr, lr, [sp], #16; .cfi_adjust_cfa_offset -16; .cfi_restore lr
  br ip0
  .cfi_endproc

/*
 * Copyright 2018-2025 Yury Gribov
 *
 * The MIT License (MIT)
 *
 * Use of this source code is governed by MIT license that can be
 * found in the LICENSE.txt file.
 */

  .globl cairo_pattern_get_user_data
  .p2align 4
  .type cairo_pattern_get_user_data, %function
#ifndef IMPLIB_EXPORT_SHIMS
  .hidden cairo_pattern_get_user_data
#endif
cairo_pattern_get_user_data:
  .cfi_startproc

1:
  // Load address
  // TODO: can we do this faster on newer ARMs?
  adrp ip0, _libcairo_so_tramp_table+1392
  ldr ip0, [ip0, #:lo12:_libcairo_so_tramp_table+1392]
 
  cbz ip0, 2f

  // Fast path
  br ip0

2:
  // Slow path
  mov ip0, 174 & 0xffff
#if 174 > 0xffff
  movk ip0, 174 >> 16, lsl #16
#endif
  stp ip0, lr, [sp, #-16]!; .cfi_adjust_cfa_offset 16; .cfi_rel_offset lr, 8
  bl _libcairo_so_save_regs_and_resolve
  ldp xzr, lr, [sp], #16; .cfi_adjust_cfa_offset -16; .cfi_restore lr
  br ip0
  .cfi_endproc

/*
 * Copyright 2018-2025 Yury Gribov
 *
 * The MIT License (MIT)
 *
 * Use of this source code is governed by MIT license that can be
 * found in the LICENSE.txt file.
 */

  .globl cairo_pattern_reference
  .p2align 4
  .type cairo_pattern_reference, %function
#ifndef IMPLIB_EXPORT_SHIMS
  .hidden cairo_pattern_reference
#endif
cairo_pattern_reference:
  .cfi_startproc

1:
  // Load address
  // TODO: can we do this faster on newer ARMs?
  adrp ip0, _libcairo_so_tramp_table+1400
  ldr ip0, [ip0, #:lo12:_libcairo_so_tramp_table+1400]
 
  cbz ip0, 2f

  // Fast path
  br ip0

2:
  // Slow path
  mov ip0, 175 & 0xffff
#if 175 > 0xffff
  movk ip0, 175 >> 16, lsl #16
#endif
  stp ip0, lr, [sp, #-16]!; .cfi_adjust_cfa_offset 16; .cfi_rel_offset lr, 8
  bl _libcairo_so_save_regs_and_resolve
  ldp xzr, lr, [sp], #16; .cfi_adjust_cfa_offset -16; .cfi_restore lr
  br ip0
  .cfi_endproc

/*
 * Copyright 2018-2025 Yury Gribov
 *
 * The MIT License (MIT)
 *
 * Use of this source code is governed by MIT license that can be
 * found in the LICENSE.txt file.
 */

  .globl cairo_pattern_set_dither
  .p2align 4
  .type cairo_pattern_set_dither, %function
#ifndef IMPLIB_EXPORT_SHIMS
  .hidden cairo_pattern_set_dither
#endif
cairo_pattern_set_dither:
  .cfi_startproc

1:
  // Load address
  // TODO: can we do this faster on newer ARMs?
  adrp ip0, _libcairo_so_tramp_table+1408
  ldr ip0, [ip0, #:lo12:_libcairo_so_tramp_table+1408]
 
  cbz ip0, 2f

  // Fast path
  br ip0

2:
  // Slow path
  mov ip0, 176 & 0xffff
#if 176 > 0xffff
  movk ip0, 176 >> 16, lsl #16
#endif
  stp ip0, lr, [sp, #-16]!; .cfi_adjust_cfa_offset 16; .cfi_rel_offset lr, 8
  bl _libcairo_so_save_regs_and_resolve
  ldp xzr, lr, [sp], #16; .cfi_adjust_cfa_offset -16; .cfi_restore lr
  br ip0
  .cfi_endproc

/*
 * Copyright 2018-2025 Yury Gribov
 *
 * The MIT License (MIT)
 *
 * Use of this source code is governed by MIT license that can be
 * found in the LICENSE.txt file.
 */

  .globl cairo_pattern_set_extend
  .p2align 4
  .type cairo_pattern_set_extend, %function
#ifndef IMPLIB_EXPORT_SHIMS
  .hidden cairo_pattern_set_extend
#endif
cairo_pattern_set_extend:
  .cfi_startproc

1:
  // Load address
  // TODO: can we do this faster on newer ARMs?
  adrp ip0, _libcairo_so_tramp_table+1416
  ldr ip0, [ip0, #:lo12:_libcairo_so_tramp_table+1416]
 
  cbz ip0, 2f

  // Fast path
  br ip0

2:
  // Slow path
  mov ip0, 177 & 0xffff
#if 177 > 0xffff
  movk ip0, 177 >> 16, lsl #16
#endif
  stp ip0, lr, [sp, #-16]!; .cfi_adjust_cfa_offset 16; .cfi_rel_offset lr, 8
  bl _libcairo_so_save_regs_and_resolve
  ldp xzr, lr, [sp], #16; .cfi_adjust_cfa_offset -16; .cfi_restore lr
  br ip0
  .cfi_endproc

/*
 * Copyright 2018-2025 Yury Gribov
 *
 * The MIT License (MIT)
 *
 * Use of this source code is governed by MIT license that can be
 * found in the LICENSE.txt file.
 */

  .globl cairo_pattern_set_filter
  .p2align 4
  .type cairo_pattern_set_filter, %function
#ifndef IMPLIB_EXPORT_SHIMS
  .hidden cairo_pattern_set_filter
#endif
cairo_pattern_set_filter:
  .cfi_startproc

1:
  // Load address
  // TODO: can we do this faster on newer ARMs?
  adrp ip0, _libcairo_so_tramp_table+1424
  ldr ip0, [ip0, #:lo12:_libcairo_so_tramp_table+1424]
 
  cbz ip0, 2f

  // Fast path
  br ip0

2:
  // Slow path
  mov ip0, 178 & 0xffff
#if 178 > 0xffff
  movk ip0, 178 >> 16, lsl #16
#endif
  stp ip0, lr, [sp, #-16]!; .cfi_adjust_cfa_offset 16; .cfi_rel_offset lr, 8
  bl _libcairo_so_save_regs_and_resolve
  ldp xzr, lr, [sp], #16; .cfi_adjust_cfa_offset -16; .cfi_restore lr
  br ip0
  .cfi_endproc

/*
 * Copyright 2018-2025 Yury Gribov
 *
 * The MIT License (MIT)
 *
 * Use of this source code is governed by MIT license that can be
 * found in the LICENSE.txt file.
 */

  .globl cairo_pattern_set_matrix
  .p2align 4
  .type cairo_pattern_set_matrix, %function
#ifndef IMPLIB_EXPORT_SHIMS
  .hidden cairo_pattern_set_matrix
#endif
cairo_pattern_set_matrix:
  .cfi_startproc

1:
  // Load address
  // TODO: can we do this faster on newer ARMs?
  adrp ip0, _libcairo_so_tramp_table+1432
  ldr ip0, [ip0, #:lo12:_libcairo_so_tramp_table+1432]
 
  cbz ip0, 2f

  // Fast path
  br ip0

2:
  // Slow path
  mov ip0, 179 & 0xffff
#if 179 > 0xffff
  movk ip0, 179 >> 16, lsl #16
#endif
  stp ip0, lr, [sp, #-16]!; .cfi_adjust_cfa_offset 16; .cfi_rel_offset lr, 8
  bl _libcairo_so_save_regs_and_resolve
  ldp xzr, lr, [sp], #16; .cfi_adjust_cfa_offset -16; .cfi_restore lr
  br ip0
  .cfi_endproc

/*
 * Copyright 2018-2025 Yury Gribov
 *
 * The MIT License (MIT)
 *
 * Use of this source code is governed by MIT license that can be
 * found in the LICENSE.txt file.
 */

  .globl cairo_pattern_set_user_data
  .p2align 4
  .type cairo_pattern_set_user_data, %function
#ifndef IMPLIB_EXPORT_SHIMS
  .hidden cairo_pattern_set_user_data
#endif
cairo_pattern_set_user_data:
  .cfi_startproc

1:
  // Load address
  // TODO: can we do this faster on newer ARMs?
  adrp ip0, _libcairo_so_tramp_table+1440
  ldr ip0, [ip0, #:lo12:_libcairo_so_tramp_table+1440]
 
  cbz ip0, 2f

  // Fast path
  br ip0

2:
  // Slow path
  mov ip0, 180 & 0xffff
#if 180 > 0xffff
  movk ip0, 180 >> 16, lsl #16
#endif
  stp ip0, lr, [sp, #-16]!; .cfi_adjust_cfa_offset 16; .cfi_rel_offset lr, 8
  bl _libcairo_so_save_regs_and_resolve
  ldp xzr, lr, [sp], #16; .cfi_adjust_cfa_offset -16; .cfi_restore lr
  br ip0
  .cfi_endproc

/*
 * Copyright 2018-2025 Yury Gribov
 *
 * The MIT License (MIT)
 *
 * Use of this source code is governed by MIT license that can be
 * found in the LICENSE.txt file.
 */

  .globl cairo_pattern_status
  .p2align 4
  .type cairo_pattern_status, %function
#ifndef IMPLIB_EXPORT_SHIMS
  .hidden cairo_pattern_status
#endif
cairo_pattern_status:
  .cfi_startproc

1:
  // Load address
  // TODO: can we do this faster on newer ARMs?
  adrp ip0, _libcairo_so_tramp_table+1448
  ldr ip0, [ip0, #:lo12:_libcairo_so_tramp_table+1448]
 
  cbz ip0, 2f

  // Fast path
  br ip0

2:
  // Slow path
  mov ip0, 181 & 0xffff
#if 181 > 0xffff
  movk ip0, 181 >> 16, lsl #16
#endif
  stp ip0, lr, [sp, #-16]!; .cfi_adjust_cfa_offset 16; .cfi_rel_offset lr, 8
  bl _libcairo_so_save_regs_and_resolve
  ldp xzr, lr, [sp], #16; .cfi_adjust_cfa_offset -16; .cfi_restore lr
  br ip0
  .cfi_endproc

/*
 * Copyright 2018-2025 Yury Gribov
 *
 * The MIT License (MIT)
 *
 * Use of this source code is governed by MIT license that can be
 * found in the LICENSE.txt file.
 */

  .globl cairo_pdf_get_versions
  .p2align 4
  .type cairo_pdf_get_versions, %function
#ifndef IMPLIB_EXPORT_SHIMS
  .hidden cairo_pdf_get_versions
#endif
cairo_pdf_get_versions:
  .cfi_startproc

1:
  // Load address
  // TODO: can we do this faster on newer ARMs?
  adrp ip0, _libcairo_so_tramp_table+1456
  ldr ip0, [ip0, #:lo12:_libcairo_so_tramp_table+1456]
 
  cbz ip0, 2f

  // Fast path
  br ip0

2:
  // Slow path
  mov ip0, 182 & 0xffff
#if 182 > 0xffff
  movk ip0, 182 >> 16, lsl #16
#endif
  stp ip0, lr, [sp, #-16]!; .cfi_adjust_cfa_offset 16; .cfi_rel_offset lr, 8
  bl _libcairo_so_save_regs_and_resolve
  ldp xzr, lr, [sp], #16; .cfi_adjust_cfa_offset -16; .cfi_restore lr
  br ip0
  .cfi_endproc

/*
 * Copyright 2018-2025 Yury Gribov
 *
 * The MIT License (MIT)
 *
 * Use of this source code is governed by MIT license that can be
 * found in the LICENSE.txt file.
 */

  .globl cairo_pdf_surface_add_outline
  .p2align 4
  .type cairo_pdf_surface_add_outline, %function
#ifndef IMPLIB_EXPORT_SHIMS
  .hidden cairo_pdf_surface_add_outline
#endif
cairo_pdf_surface_add_outline:
  .cfi_startproc

1:
  // Load address
  // TODO: can we do this faster on newer ARMs?
  adrp ip0, _libcairo_so_tramp_table+1464
  ldr ip0, [ip0, #:lo12:_libcairo_so_tramp_table+1464]
 
  cbz ip0, 2f

  // Fast path
  br ip0

2:
  // Slow path
  mov ip0, 183 & 0xffff
#if 183 > 0xffff
  movk ip0, 183 >> 16, lsl #16
#endif
  stp ip0, lr, [sp, #-16]!; .cfi_adjust_cfa_offset 16; .cfi_rel_offset lr, 8
  bl _libcairo_so_save_regs_and_resolve
  ldp xzr, lr, [sp], #16; .cfi_adjust_cfa_offset -16; .cfi_restore lr
  br ip0
  .cfi_endproc

/*
 * Copyright 2018-2025 Yury Gribov
 *
 * The MIT License (MIT)
 *
 * Use of this source code is governed by MIT license that can be
 * found in the LICENSE.txt file.
 */

  .globl cairo_pdf_surface_create
  .p2align 4
  .type cairo_pdf_surface_create, %function
#ifndef IMPLIB_EXPORT_SHIMS
  .hidden cairo_pdf_surface_create
#endif
cairo_pdf_surface_create:
  .cfi_startproc

1:
  // Load address
  // TODO: can we do this faster on newer ARMs?
  adrp ip0, _libcairo_so_tramp_table+1472
  ldr ip0, [ip0, #:lo12:_libcairo_so_tramp_table+1472]
 
  cbz ip0, 2f

  // Fast path
  br ip0

2:
  // Slow path
  mov ip0, 184 & 0xffff
#if 184 > 0xffff
  movk ip0, 184 >> 16, lsl #16
#endif
  stp ip0, lr, [sp, #-16]!; .cfi_adjust_cfa_offset 16; .cfi_rel_offset lr, 8
  bl _libcairo_so_save_regs_and_resolve
  ldp xzr, lr, [sp], #16; .cfi_adjust_cfa_offset -16; .cfi_restore lr
  br ip0
  .cfi_endproc

/*
 * Copyright 2018-2025 Yury Gribov
 *
 * The MIT License (MIT)
 *
 * Use of this source code is governed by MIT license that can be
 * found in the LICENSE.txt file.
 */

  .globl cairo_pdf_surface_create_for_stream
  .p2align 4
  .type cairo_pdf_surface_create_for_stream, %function
#ifndef IMPLIB_EXPORT_SHIMS
  .hidden cairo_pdf_surface_create_for_stream
#endif
cairo_pdf_surface_create_for_stream:
  .cfi_startproc

1:
  // Load address
  // TODO: can we do this faster on newer ARMs?
  adrp ip0, _libcairo_so_tramp_table+1480
  ldr ip0, [ip0, #:lo12:_libcairo_so_tramp_table+1480]
 
  cbz ip0, 2f

  // Fast path
  br ip0

2:
  // Slow path
  mov ip0, 185 & 0xffff
#if 185 > 0xffff
  movk ip0, 185 >> 16, lsl #16
#endif
  stp ip0, lr, [sp, #-16]!; .cfi_adjust_cfa_offset 16; .cfi_rel_offset lr, 8
  bl _libcairo_so_save_regs_and_resolve
  ldp xzr, lr, [sp], #16; .cfi_adjust_cfa_offset -16; .cfi_restore lr
  br ip0
  .cfi_endproc

/*
 * Copyright 2018-2025 Yury Gribov
 *
 * The MIT License (MIT)
 *
 * Use of this source code is governed by MIT license that can be
 * found in the LICENSE.txt file.
 */

  .globl cairo_pdf_surface_restrict_to_version
  .p2align 4
  .type cairo_pdf_surface_restrict_to_version, %function
#ifndef IMPLIB_EXPORT_SHIMS
  .hidden cairo_pdf_surface_restrict_to_version
#endif
cairo_pdf_surface_restrict_to_version:
  .cfi_startproc

1:
  // Load address
  // TODO: can we do this faster on newer ARMs?
  adrp ip0, _libcairo_so_tramp_table+1488
  ldr ip0, [ip0, #:lo12:_libcairo_so_tramp_table+1488]
 
  cbz ip0, 2f

  // Fast path
  br ip0

2:
  // Slow path
  mov ip0, 186 & 0xffff
#if 186 > 0xffff
  movk ip0, 186 >> 16, lsl #16
#endif
  stp ip0, lr, [sp, #-16]!; .cfi_adjust_cfa_offset 16; .cfi_rel_offset lr, 8
  bl _libcairo_so_save_regs_and_resolve
  ldp xzr, lr, [sp], #16; .cfi_adjust_cfa_offset -16; .cfi_restore lr
  br ip0
  .cfi_endproc

/*
 * Copyright 2018-2025 Yury Gribov
 *
 * The MIT License (MIT)
 *
 * Use of this source code is governed by MIT license that can be
 * found in the LICENSE.txt file.
 */

  .globl cairo_pdf_surface_set_custom_metadata
  .p2align 4
  .type cairo_pdf_surface_set_custom_metadata, %function
#ifndef IMPLIB_EXPORT_SHIMS
  .hidden cairo_pdf_surface_set_custom_metadata
#endif
cairo_pdf_surface_set_custom_metadata:
  .cfi_startproc

1:
  // Load address
  // TODO: can we do this faster on newer ARMs?
  adrp ip0, _libcairo_so_tramp_table+1496
  ldr ip0, [ip0, #:lo12:_libcairo_so_tramp_table+1496]
 
  cbz ip0, 2f

  // Fast path
  br ip0

2:
  // Slow path
  mov ip0, 187 & 0xffff
#if 187 > 0xffff
  movk ip0, 187 >> 16, lsl #16
#endif
  stp ip0, lr, [sp, #-16]!; .cfi_adjust_cfa_offset 16; .cfi_rel_offset lr, 8
  bl _libcairo_so_save_regs_and_resolve
  ldp xzr, lr, [sp], #16; .cfi_adjust_cfa_offset -16; .cfi_restore lr
  br ip0
  .cfi_endproc

/*
 * Copyright 2018-2025 Yury Gribov
 *
 * The MIT License (MIT)
 *
 * Use of this source code is governed by MIT license that can be
 * found in the LICENSE.txt file.
 */

  .globl cairo_pdf_surface_set_metadata
  .p2align 4
  .type cairo_pdf_surface_set_metadata, %function
#ifndef IMPLIB_EXPORT_SHIMS
  .hidden cairo_pdf_surface_set_metadata
#endif
cairo_pdf_surface_set_metadata:
  .cfi_startproc

1:
  // Load address
  // TODO: can we do this faster on newer ARMs?
  adrp ip0, _libcairo_so_tramp_table+1504
  ldr ip0, [ip0, #:lo12:_libcairo_so_tramp_table+1504]
 
  cbz ip0, 2f

  // Fast path
  br ip0

2:
  // Slow path
  mov ip0, 188 & 0xffff
#if 188 > 0xffff
  movk ip0, 188 >> 16, lsl #16
#endif
  stp ip0, lr, [sp, #-16]!; .cfi_adjust_cfa_offset 16; .cfi_rel_offset lr, 8
  bl _libcairo_so_save_regs_and_resolve
  ldp xzr, lr, [sp], #16; .cfi_adjust_cfa_offset -16; .cfi_restore lr
  br ip0
  .cfi_endproc

/*
 * Copyright 2018-2025 Yury Gribov
 *
 * The MIT License (MIT)
 *
 * Use of this source code is governed by MIT license that can be
 * found in the LICENSE.txt file.
 */

  .globl cairo_pdf_surface_set_page_label
  .p2align 4
  .type cairo_pdf_surface_set_page_label, %function
#ifndef IMPLIB_EXPORT_SHIMS
  .hidden cairo_pdf_surface_set_page_label
#endif
cairo_pdf_surface_set_page_label:
  .cfi_startproc

1:
  // Load address
  // TODO: can we do this faster on newer ARMs?
  adrp ip0, _libcairo_so_tramp_table+1512
  ldr ip0, [ip0, #:lo12:_libcairo_so_tramp_table+1512]
 
  cbz ip0, 2f

  // Fast path
  br ip0

2:
  // Slow path
  mov ip0, 189 & 0xffff
#if 189 > 0xffff
  movk ip0, 189 >> 16, lsl #16
#endif
  stp ip0, lr, [sp, #-16]!; .cfi_adjust_cfa_offset 16; .cfi_rel_offset lr, 8
  bl _libcairo_so_save_regs_and_resolve
  ldp xzr, lr, [sp], #16; .cfi_adjust_cfa_offset -16; .cfi_restore lr
  br ip0
  .cfi_endproc

/*
 * Copyright 2018-2025 Yury Gribov
 *
 * The MIT License (MIT)
 *
 * Use of this source code is governed by MIT license that can be
 * found in the LICENSE.txt file.
 */

  .globl cairo_pdf_surface_set_size
  .p2align 4
  .type cairo_pdf_surface_set_size, %function
#ifndef IMPLIB_EXPORT_SHIMS
  .hidden cairo_pdf_surface_set_size
#endif
cairo_pdf_surface_set_size:
  .cfi_startproc

1:
  // Load address
  // TODO: can we do this faster on newer ARMs?
  adrp ip0, _libcairo_so_tramp_table+1520
  ldr ip0, [ip0, #:lo12:_libcairo_so_tramp_table+1520]
 
  cbz ip0, 2f

  // Fast path
  br ip0

2:
  // Slow path
  mov ip0, 190 & 0xffff
#if 190 > 0xffff
  movk ip0, 190 >> 16, lsl #16
#endif
  stp ip0, lr, [sp, #-16]!; .cfi_adjust_cfa_offset 16; .cfi_rel_offset lr, 8
  bl _libcairo_so_save_regs_and_resolve
  ldp xzr, lr, [sp], #16; .cfi_adjust_cfa_offset -16; .cfi_restore lr
  br ip0
  .cfi_endproc

/*
 * Copyright 2018-2025 Yury Gribov
 *
 * The MIT License (MIT)
 *
 * Use of this source code is governed by MIT license that can be
 * found in the LICENSE.txt file.
 */

  .globl cairo_pdf_surface_set_thumbnail_size
  .p2align 4
  .type cairo_pdf_surface_set_thumbnail_size, %function
#ifndef IMPLIB_EXPORT_SHIMS
  .hidden cairo_pdf_surface_set_thumbnail_size
#endif
cairo_pdf_surface_set_thumbnail_size:
  .cfi_startproc

1:
  // Load address
  // TODO: can we do this faster on newer ARMs?
  adrp ip0, _libcairo_so_tramp_table+1528
  ldr ip0, [ip0, #:lo12:_libcairo_so_tramp_table+1528]
 
  cbz ip0, 2f

  // Fast path
  br ip0

2:
  // Slow path
  mov ip0, 191 & 0xffff
#if 191 > 0xffff
  movk ip0, 191 >> 16, lsl #16
#endif
  stp ip0, lr, [sp, #-16]!; .cfi_adjust_cfa_offset 16; .cfi_rel_offset lr, 8
  bl _libcairo_so_save_regs_and_resolve
  ldp xzr, lr, [sp], #16; .cfi_adjust_cfa_offset -16; .cfi_restore lr
  br ip0
  .cfi_endproc

/*
 * Copyright 2018-2025 Yury Gribov
 *
 * The MIT License (MIT)
 *
 * Use of this source code is governed by MIT license that can be
 * found in the LICENSE.txt file.
 */

  .globl cairo_pdf_version_to_string
  .p2align 4
  .type cairo_pdf_version_to_string, %function
#ifndef IMPLIB_EXPORT_SHIMS
  .hidden cairo_pdf_version_to_string
#endif
cairo_pdf_version_to_string:
  .cfi_startproc

1:
  // Load address
  // TODO: can we do this faster on newer ARMs?
  adrp ip0, _libcairo_so_tramp_table+1536
  ldr ip0, [ip0, #:lo12:_libcairo_so_tramp_table+1536]
 
  cbz ip0, 2f

  // Fast path
  br ip0

2:
  // Slow path
  mov ip0, 192 & 0xffff
#if 192 > 0xffff
  movk ip0, 192 >> 16, lsl #16
#endif
  stp ip0, lr, [sp, #-16]!; .cfi_adjust_cfa_offset 16; .cfi_rel_offset lr, 8
  bl _libcairo_so_save_regs_and_resolve
  ldp xzr, lr, [sp], #16; .cfi_adjust_cfa_offset -16; .cfi_restore lr
  br ip0
  .cfi_endproc

/*
 * Copyright 2018-2025 Yury Gribov
 *
 * The MIT License (MIT)
 *
 * Use of this source code is governed by MIT license that can be
 * found in the LICENSE.txt file.
 */

  .globl cairo_pop_group
  .p2align 4
  .type cairo_pop_group, %function
#ifndef IMPLIB_EXPORT_SHIMS
  .hidden cairo_pop_group
#endif
cairo_pop_group:
  .cfi_startproc

1:
  // Load address
  // TODO: can we do this faster on newer ARMs?
  adrp ip0, _libcairo_so_tramp_table+1544
  ldr ip0, [ip0, #:lo12:_libcairo_so_tramp_table+1544]
 
  cbz ip0, 2f

  // Fast path
  br ip0

2:
  // Slow path
  mov ip0, 193 & 0xffff
#if 193 > 0xffff
  movk ip0, 193 >> 16, lsl #16
#endif
  stp ip0, lr, [sp, #-16]!; .cfi_adjust_cfa_offset 16; .cfi_rel_offset lr, 8
  bl _libcairo_so_save_regs_and_resolve
  ldp xzr, lr, [sp], #16; .cfi_adjust_cfa_offset -16; .cfi_restore lr
  br ip0
  .cfi_endproc

/*
 * Copyright 2018-2025 Yury Gribov
 *
 * The MIT License (MIT)
 *
 * Use of this source code is governed by MIT license that can be
 * found in the LICENSE.txt file.
 */

  .globl cairo_pop_group_to_source
  .p2align 4
  .type cairo_pop_group_to_source, %function
#ifndef IMPLIB_EXPORT_SHIMS
  .hidden cairo_pop_group_to_source
#endif
cairo_pop_group_to_source:
  .cfi_startproc

1:
  // Load address
  // TODO: can we do this faster on newer ARMs?
  adrp ip0, _libcairo_so_tramp_table+1552
  ldr ip0, [ip0, #:lo12:_libcairo_so_tramp_table+1552]
 
  cbz ip0, 2f

  // Fast path
  br ip0

2:
  // Slow path
  mov ip0, 194 & 0xffff
#if 194 > 0xffff
  movk ip0, 194 >> 16, lsl #16
#endif
  stp ip0, lr, [sp, #-16]!; .cfi_adjust_cfa_offset 16; .cfi_rel_offset lr, 8
  bl _libcairo_so_save_regs_and_resolve
  ldp xzr, lr, [sp], #16; .cfi_adjust_cfa_offset -16; .cfi_restore lr
  br ip0
  .cfi_endproc

/*
 * Copyright 2018-2025 Yury Gribov
 *
 * The MIT License (MIT)
 *
 * Use of this source code is governed by MIT license that can be
 * found in the LICENSE.txt file.
 */

  .globl cairo_ps_get_levels
  .p2align 4
  .type cairo_ps_get_levels, %function
#ifndef IMPLIB_EXPORT_SHIMS
  .hidden cairo_ps_get_levels
#endif
cairo_ps_get_levels:
  .cfi_startproc

1:
  // Load address
  // TODO: can we do this faster on newer ARMs?
  adrp ip0, _libcairo_so_tramp_table+1560
  ldr ip0, [ip0, #:lo12:_libcairo_so_tramp_table+1560]
 
  cbz ip0, 2f

  // Fast path
  br ip0

2:
  // Slow path
  mov ip0, 195 & 0xffff
#if 195 > 0xffff
  movk ip0, 195 >> 16, lsl #16
#endif
  stp ip0, lr, [sp, #-16]!; .cfi_adjust_cfa_offset 16; .cfi_rel_offset lr, 8
  bl _libcairo_so_save_regs_and_resolve
  ldp xzr, lr, [sp], #16; .cfi_adjust_cfa_offset -16; .cfi_restore lr
  br ip0
  .cfi_endproc

/*
 * Copyright 2018-2025 Yury Gribov
 *
 * The MIT License (MIT)
 *
 * Use of this source code is governed by MIT license that can be
 * found in the LICENSE.txt file.
 */

  .globl cairo_ps_level_to_string
  .p2align 4
  .type cairo_ps_level_to_string, %function
#ifndef IMPLIB_EXPORT_SHIMS
  .hidden cairo_ps_level_to_string
#endif
cairo_ps_level_to_string:
  .cfi_startproc

1:
  // Load address
  // TODO: can we do this faster on newer ARMs?
  adrp ip0, _libcairo_so_tramp_table+1568
  ldr ip0, [ip0, #:lo12:_libcairo_so_tramp_table+1568]
 
  cbz ip0, 2f

  // Fast path
  br ip0

2:
  // Slow path
  mov ip0, 196 & 0xffff
#if 196 > 0xffff
  movk ip0, 196 >> 16, lsl #16
#endif
  stp ip0, lr, [sp, #-16]!; .cfi_adjust_cfa_offset 16; .cfi_rel_offset lr, 8
  bl _libcairo_so_save_regs_and_resolve
  ldp xzr, lr, [sp], #16; .cfi_adjust_cfa_offset -16; .cfi_restore lr
  br ip0
  .cfi_endproc

/*
 * Copyright 2018-2025 Yury Gribov
 *
 * The MIT License (MIT)
 *
 * Use of this source code is governed by MIT license that can be
 * found in the LICENSE.txt file.
 */

  .globl cairo_ps_surface_create
  .p2align 4
  .type cairo_ps_surface_create, %function
#ifndef IMPLIB_EXPORT_SHIMS
  .hidden cairo_ps_surface_create
#endif
cairo_ps_surface_create:
  .cfi_startproc

1:
  // Load address
  // TODO: can we do this faster on newer ARMs?
  adrp ip0, _libcairo_so_tramp_table+1576
  ldr ip0, [ip0, #:lo12:_libcairo_so_tramp_table+1576]
 
  cbz ip0, 2f

  // Fast path
  br ip0

2:
  // Slow path
  mov ip0, 197 & 0xffff
#if 197 > 0xffff
  movk ip0, 197 >> 16, lsl #16
#endif
  stp ip0, lr, [sp, #-16]!; .cfi_adjust_cfa_offset 16; .cfi_rel_offset lr, 8
  bl _libcairo_so_save_regs_and_resolve
  ldp xzr, lr, [sp], #16; .cfi_adjust_cfa_offset -16; .cfi_restore lr
  br ip0
  .cfi_endproc

/*
 * Copyright 2018-2025 Yury Gribov
 *
 * The MIT License (MIT)
 *
 * Use of this source code is governed by MIT license that can be
 * found in the LICENSE.txt file.
 */

  .globl cairo_ps_surface_create_for_stream
  .p2align 4
  .type cairo_ps_surface_create_for_stream, %function
#ifndef IMPLIB_EXPORT_SHIMS
  .hidden cairo_ps_surface_create_for_stream
#endif
cairo_ps_surface_create_for_stream:
  .cfi_startproc

1:
  // Load address
  // TODO: can we do this faster on newer ARMs?
  adrp ip0, _libcairo_so_tramp_table+1584
  ldr ip0, [ip0, #:lo12:_libcairo_so_tramp_table+1584]
 
  cbz ip0, 2f

  // Fast path
  br ip0

2:
  // Slow path
  mov ip0, 198 & 0xffff
#if 198 > 0xffff
  movk ip0, 198 >> 16, lsl #16
#endif
  stp ip0, lr, [sp, #-16]!; .cfi_adjust_cfa_offset 16; .cfi_rel_offset lr, 8
  bl _libcairo_so_save_regs_and_resolve
  ldp xzr, lr, [sp], #16; .cfi_adjust_cfa_offset -16; .cfi_restore lr
  br ip0
  .cfi_endproc

/*
 * Copyright 2018-2025 Yury Gribov
 *
 * The MIT License (MIT)
 *
 * Use of this source code is governed by MIT license that can be
 * found in the LICENSE.txt file.
 */

  .globl cairo_ps_surface_dsc_begin_page_setup
  .p2align 4
  .type cairo_ps_surface_dsc_begin_page_setup, %function
#ifndef IMPLIB_EXPORT_SHIMS
  .hidden cairo_ps_surface_dsc_begin_page_setup
#endif
cairo_ps_surface_dsc_begin_page_setup:
  .cfi_startproc

1:
  // Load address
  // TODO: can we do this faster on newer ARMs?
  adrp ip0, _libcairo_so_tramp_table+1592
  ldr ip0, [ip0, #:lo12:_libcairo_so_tramp_table+1592]
 
  cbz ip0, 2f

  // Fast path
  br ip0

2:
  // Slow path
  mov ip0, 199 & 0xffff
#if 199 > 0xffff
  movk ip0, 199 >> 16, lsl #16
#endif
  stp ip0, lr, [sp, #-16]!; .cfi_adjust_cfa_offset 16; .cfi_rel_offset lr, 8
  bl _libcairo_so_save_regs_and_resolve
  ldp xzr, lr, [sp], #16; .cfi_adjust_cfa_offset -16; .cfi_restore lr
  br ip0
  .cfi_endproc

/*
 * Copyright 2018-2025 Yury Gribov
 *
 * The MIT License (MIT)
 *
 * Use of this source code is governed by MIT license that can be
 * found in the LICENSE.txt file.
 */

  .globl cairo_ps_surface_dsc_begin_setup
  .p2align 4
  .type cairo_ps_surface_dsc_begin_setup, %function
#ifndef IMPLIB_EXPORT_SHIMS
  .hidden cairo_ps_surface_dsc_begin_setup
#endif
cairo_ps_surface_dsc_begin_setup:
  .cfi_startproc

1:
  // Load address
  // TODO: can we do this faster on newer ARMs?
  adrp ip0, _libcairo_so_tramp_table+1600
  ldr ip0, [ip0, #:lo12:_libcairo_so_tramp_table+1600]
 
  cbz ip0, 2f

  // Fast path
  br ip0

2:
  // Slow path
  mov ip0, 200 & 0xffff
#if 200 > 0xffff
  movk ip0, 200 >> 16, lsl #16
#endif
  stp ip0, lr, [sp, #-16]!; .cfi_adjust_cfa_offset 16; .cfi_rel_offset lr, 8
  bl _libcairo_so_save_regs_and_resolve
  ldp xzr, lr, [sp], #16; .cfi_adjust_cfa_offset -16; .cfi_restore lr
  br ip0
  .cfi_endproc

/*
 * Copyright 2018-2025 Yury Gribov
 *
 * The MIT License (MIT)
 *
 * Use of this source code is governed by MIT license that can be
 * found in the LICENSE.txt file.
 */

  .globl cairo_ps_surface_dsc_comment
  .p2align 4
  .type cairo_ps_surface_dsc_comment, %function
#ifndef IMPLIB_EXPORT_SHIMS
  .hidden cairo_ps_surface_dsc_comment
#endif
cairo_ps_surface_dsc_comment:
  .cfi_startproc

1:
  // Load address
  // TODO: can we do this faster on newer ARMs?
  adrp ip0, _libcairo_so_tramp_table+1608
  ldr ip0, [ip0, #:lo12:_libcairo_so_tramp_table+1608]
 
  cbz ip0, 2f

  // Fast path
  br ip0

2:
  // Slow path
  mov ip0, 201 & 0xffff
#if 201 > 0xffff
  movk ip0, 201 >> 16, lsl #16
#endif
  stp ip0, lr, [sp, #-16]!; .cfi_adjust_cfa_offset 16; .cfi_rel_offset lr, 8
  bl _libcairo_so_save_regs_and_resolve
  ldp xzr, lr, [sp], #16; .cfi_adjust_cfa_offset -16; .cfi_restore lr
  br ip0
  .cfi_endproc

/*
 * Copyright 2018-2025 Yury Gribov
 *
 * The MIT License (MIT)
 *
 * Use of this source code is governed by MIT license that can be
 * found in the LICENSE.txt file.
 */

  .globl cairo_ps_surface_get_eps
  .p2align 4
  .type cairo_ps_surface_get_eps, %function
#ifndef IMPLIB_EXPORT_SHIMS
  .hidden cairo_ps_surface_get_eps
#endif
cairo_ps_surface_get_eps:
  .cfi_startproc

1:
  // Load address
  // TODO: can we do this faster on newer ARMs?
  adrp ip0, _libcairo_so_tramp_table+1616
  ldr ip0, [ip0, #:lo12:_libcairo_so_tramp_table+1616]
 
  cbz ip0, 2f

  // Fast path
  br ip0

2:
  // Slow path
  mov ip0, 202 & 0xffff
#if 202 > 0xffff
  movk ip0, 202 >> 16, lsl #16
#endif
  stp ip0, lr, [sp, #-16]!; .cfi_adjust_cfa_offset 16; .cfi_rel_offset lr, 8
  bl _libcairo_so_save_regs_and_resolve
  ldp xzr, lr, [sp], #16; .cfi_adjust_cfa_offset -16; .cfi_restore lr
  br ip0
  .cfi_endproc

/*
 * Copyright 2018-2025 Yury Gribov
 *
 * The MIT License (MIT)
 *
 * Use of this source code is governed by MIT license that can be
 * found in the LICENSE.txt file.
 */

  .globl cairo_ps_surface_restrict_to_level
  .p2align 4
  .type cairo_ps_surface_restrict_to_level, %function
#ifndef IMPLIB_EXPORT_SHIMS
  .hidden cairo_ps_surface_restrict_to_level
#endif
cairo_ps_surface_restrict_to_level:
  .cfi_startproc

1:
  // Load address
  // TODO: can we do this faster on newer ARMs?
  adrp ip0, _libcairo_so_tramp_table+1624
  ldr ip0, [ip0, #:lo12:_libcairo_so_tramp_table+1624]
 
  cbz ip0, 2f

  // Fast path
  br ip0

2:
  // Slow path
  mov ip0, 203 & 0xffff
#if 203 > 0xffff
  movk ip0, 203 >> 16, lsl #16
#endif
  stp ip0, lr, [sp, #-16]!; .cfi_adjust_cfa_offset 16; .cfi_rel_offset lr, 8
  bl _libcairo_so_save_regs_and_resolve
  ldp xzr, lr, [sp], #16; .cfi_adjust_cfa_offset -16; .cfi_restore lr
  br ip0
  .cfi_endproc

/*
 * Copyright 2018-2025 Yury Gribov
 *
 * The MIT License (MIT)
 *
 * Use of this source code is governed by MIT license that can be
 * found in the LICENSE.txt file.
 */

  .globl cairo_ps_surface_set_eps
  .p2align 4
  .type cairo_ps_surface_set_eps, %function
#ifndef IMPLIB_EXPORT_SHIMS
  .hidden cairo_ps_surface_set_eps
#endif
cairo_ps_surface_set_eps:
  .cfi_startproc

1:
  // Load address
  // TODO: can we do this faster on newer ARMs?
  adrp ip0, _libcairo_so_tramp_table+1632
  ldr ip0, [ip0, #:lo12:_libcairo_so_tramp_table+1632]
 
  cbz ip0, 2f

  // Fast path
  br ip0

2:
  // Slow path
  mov ip0, 204 & 0xffff
#if 204 > 0xffff
  movk ip0, 204 >> 16, lsl #16
#endif
  stp ip0, lr, [sp, #-16]!; .cfi_adjust_cfa_offset 16; .cfi_rel_offset lr, 8
  bl _libcairo_so_save_regs_and_resolve
  ldp xzr, lr, [sp], #16; .cfi_adjust_cfa_offset -16; .cfi_restore lr
  br ip0
  .cfi_endproc

/*
 * Copyright 2018-2025 Yury Gribov
 *
 * The MIT License (MIT)
 *
 * Use of this source code is governed by MIT license that can be
 * found in the LICENSE.txt file.
 */

  .globl cairo_ps_surface_set_size
  .p2align 4
  .type cairo_ps_surface_set_size, %function
#ifndef IMPLIB_EXPORT_SHIMS
  .hidden cairo_ps_surface_set_size
#endif
cairo_ps_surface_set_size:
  .cfi_startproc

1:
  // Load address
  // TODO: can we do this faster on newer ARMs?
  adrp ip0, _libcairo_so_tramp_table+1640
  ldr ip0, [ip0, #:lo12:_libcairo_so_tramp_table+1640]
 
  cbz ip0, 2f

  // Fast path
  br ip0

2:
  // Slow path
  mov ip0, 205 & 0xffff
#if 205 > 0xffff
  movk ip0, 205 >> 16, lsl #16
#endif
  stp ip0, lr, [sp, #-16]!; .cfi_adjust_cfa_offset 16; .cfi_rel_offset lr, 8
  bl _libcairo_so_save_regs_and_resolve
  ldp xzr, lr, [sp], #16; .cfi_adjust_cfa_offset -16; .cfi_restore lr
  br ip0
  .cfi_endproc

/*
 * Copyright 2018-2025 Yury Gribov
 *
 * The MIT License (MIT)
 *
 * Use of this source code is governed by MIT license that can be
 * found in the LICENSE.txt file.
 */

  .globl cairo_push_group
  .p2align 4
  .type cairo_push_group, %function
#ifndef IMPLIB_EXPORT_SHIMS
  .hidden cairo_push_group
#endif
cairo_push_group:
  .cfi_startproc

1:
  // Load address
  // TODO: can we do this faster on newer ARMs?
  adrp ip0, _libcairo_so_tramp_table+1648
  ldr ip0, [ip0, #:lo12:_libcairo_so_tramp_table+1648]
 
  cbz ip0, 2f

  // Fast path
  br ip0

2:
  // Slow path
  mov ip0, 206 & 0xffff
#if 206 > 0xffff
  movk ip0, 206 >> 16, lsl #16
#endif
  stp ip0, lr, [sp, #-16]!; .cfi_adjust_cfa_offset 16; .cfi_rel_offset lr, 8
  bl _libcairo_so_save_regs_and_resolve
  ldp xzr, lr, [sp], #16; .cfi_adjust_cfa_offset -16; .cfi_restore lr
  br ip0
  .cfi_endproc

/*
 * Copyright 2018-2025 Yury Gribov
 *
 * The MIT License (MIT)
 *
 * Use of this source code is governed by MIT license that can be
 * found in the LICENSE.txt file.
 */

  .globl cairo_push_group_with_content
  .p2align 4
  .type cairo_push_group_with_content, %function
#ifndef IMPLIB_EXPORT_SHIMS
  .hidden cairo_push_group_with_content
#endif
cairo_push_group_with_content:
  .cfi_startproc

1:
  // Load address
  // TODO: can we do this faster on newer ARMs?
  adrp ip0, _libcairo_so_tramp_table+1656
  ldr ip0, [ip0, #:lo12:_libcairo_so_tramp_table+1656]
 
  cbz ip0, 2f

  // Fast path
  br ip0

2:
  // Slow path
  mov ip0, 207 & 0xffff
#if 207 > 0xffff
  movk ip0, 207 >> 16, lsl #16
#endif
  stp ip0, lr, [sp, #-16]!; .cfi_adjust_cfa_offset 16; .cfi_rel_offset lr, 8
  bl _libcairo_so_save_regs_and_resolve
  ldp xzr, lr, [sp], #16; .cfi_adjust_cfa_offset -16; .cfi_restore lr
  br ip0
  .cfi_endproc

/*
 * Copyright 2018-2025 Yury Gribov
 *
 * The MIT License (MIT)
 *
 * Use of this source code is governed by MIT license that can be
 * found in the LICENSE.txt file.
 */

  .globl cairo_raster_source_pattern_get_acquire
  .p2align 4
  .type cairo_raster_source_pattern_get_acquire, %function
#ifndef IMPLIB_EXPORT_SHIMS
  .hidden cairo_raster_source_pattern_get_acquire
#endif
cairo_raster_source_pattern_get_acquire:
  .cfi_startproc

1:
  // Load address
  // TODO: can we do this faster on newer ARMs?
  adrp ip0, _libcairo_so_tramp_table+1664
  ldr ip0, [ip0, #:lo12:_libcairo_so_tramp_table+1664]
 
  cbz ip0, 2f

  // Fast path
  br ip0

2:
  // Slow path
  mov ip0, 208 & 0xffff
#if 208 > 0xffff
  movk ip0, 208 >> 16, lsl #16
#endif
  stp ip0, lr, [sp, #-16]!; .cfi_adjust_cfa_offset 16; .cfi_rel_offset lr, 8
  bl _libcairo_so_save_regs_and_resolve
  ldp xzr, lr, [sp], #16; .cfi_adjust_cfa_offset -16; .cfi_restore lr
  br ip0
  .cfi_endproc

/*
 * Copyright 2018-2025 Yury Gribov
 *
 * The MIT License (MIT)
 *
 * Use of this source code is governed by MIT license that can be
 * found in the LICENSE.txt file.
 */

  .globl cairo_raster_source_pattern_get_callback_data
  .p2align 4
  .type cairo_raster_source_pattern_get_callback_data, %function
#ifndef IMPLIB_EXPORT_SHIMS
  .hidden cairo_raster_source_pattern_get_callback_data
#endif
cairo_raster_source_pattern_get_callback_data:
  .cfi_startproc

1:
  // Load address
  // TODO: can we do this faster on newer ARMs?
  adrp ip0, _libcairo_so_tramp_table+1672
  ldr ip0, [ip0, #:lo12:_libcairo_so_tramp_table+1672]
 
  cbz ip0, 2f

  // Fast path
  br ip0

2:
  // Slow path
  mov ip0, 209 & 0xffff
#if 209 > 0xffff
  movk ip0, 209 >> 16, lsl #16
#endif
  stp ip0, lr, [sp, #-16]!; .cfi_adjust_cfa_offset 16; .cfi_rel_offset lr, 8
  bl _libcairo_so_save_regs_and_resolve
  ldp xzr, lr, [sp], #16; .cfi_adjust_cfa_offset -16; .cfi_restore lr
  br ip0
  .cfi_endproc

/*
 * Copyright 2018-2025 Yury Gribov
 *
 * The MIT License (MIT)
 *
 * Use of this source code is governed by MIT license that can be
 * found in the LICENSE.txt file.
 */

  .globl cairo_raster_source_pattern_get_copy
  .p2align 4
  .type cairo_raster_source_pattern_get_copy, %function
#ifndef IMPLIB_EXPORT_SHIMS
  .hidden cairo_raster_source_pattern_get_copy
#endif
cairo_raster_source_pattern_get_copy:
  .cfi_startproc

1:
  // Load address
  // TODO: can we do this faster on newer ARMs?
  adrp ip0, _libcairo_so_tramp_table+1680
  ldr ip0, [ip0, #:lo12:_libcairo_so_tramp_table+1680]
 
  cbz ip0, 2f

  // Fast path
  br ip0

2:
  // Slow path
  mov ip0, 210 & 0xffff
#if 210 > 0xffff
  movk ip0, 210 >> 16, lsl #16
#endif
  stp ip0, lr, [sp, #-16]!; .cfi_adjust_cfa_offset 16; .cfi_rel_offset lr, 8
  bl _libcairo_so_save_regs_and_resolve
  ldp xzr, lr, [sp], #16; .cfi_adjust_cfa_offset -16; .cfi_restore lr
  br ip0
  .cfi_endproc

/*
 * Copyright 2018-2025 Yury Gribov
 *
 * The MIT License (MIT)
 *
 * Use of this source code is governed by MIT license that can be
 * found in the LICENSE.txt file.
 */

  .globl cairo_raster_source_pattern_get_finish
  .p2align 4
  .type cairo_raster_source_pattern_get_finish, %function
#ifndef IMPLIB_EXPORT_SHIMS
  .hidden cairo_raster_source_pattern_get_finish
#endif
cairo_raster_source_pattern_get_finish:
  .cfi_startproc

1:
  // Load address
  // TODO: can we do this faster on newer ARMs?
  adrp ip0, _libcairo_so_tramp_table+1688
  ldr ip0, [ip0, #:lo12:_libcairo_so_tramp_table+1688]
 
  cbz ip0, 2f

  // Fast path
  br ip0

2:
  // Slow path
  mov ip0, 211 & 0xffff
#if 211 > 0xffff
  movk ip0, 211 >> 16, lsl #16
#endif
  stp ip0, lr, [sp, #-16]!; .cfi_adjust_cfa_offset 16; .cfi_rel_offset lr, 8
  bl _libcairo_so_save_regs_and_resolve
  ldp xzr, lr, [sp], #16; .cfi_adjust_cfa_offset -16; .cfi_restore lr
  br ip0
  .cfi_endproc

/*
 * Copyright 2018-2025 Yury Gribov
 *
 * The MIT License (MIT)
 *
 * Use of this source code is governed by MIT license that can be
 * found in the LICENSE.txt file.
 */

  .globl cairo_raster_source_pattern_get_snapshot
  .p2align 4
  .type cairo_raster_source_pattern_get_snapshot, %function
#ifndef IMPLIB_EXPORT_SHIMS
  .hidden cairo_raster_source_pattern_get_snapshot
#endif
cairo_raster_source_pattern_get_snapshot:
  .cfi_startproc

1:
  // Load address
  // TODO: can we do this faster on newer ARMs?
  adrp ip0, _libcairo_so_tramp_table+1696
  ldr ip0, [ip0, #:lo12:_libcairo_so_tramp_table+1696]
 
  cbz ip0, 2f

  // Fast path
  br ip0

2:
  // Slow path
  mov ip0, 212 & 0xffff
#if 212 > 0xffff
  movk ip0, 212 >> 16, lsl #16
#endif
  stp ip0, lr, [sp, #-16]!; .cfi_adjust_cfa_offset 16; .cfi_rel_offset lr, 8
  bl _libcairo_so_save_regs_and_resolve
  ldp xzr, lr, [sp], #16; .cfi_adjust_cfa_offset -16; .cfi_restore lr
  br ip0
  .cfi_endproc

/*
 * Copyright 2018-2025 Yury Gribov
 *
 * The MIT License (MIT)
 *
 * Use of this source code is governed by MIT license that can be
 * found in the LICENSE.txt file.
 */

  .globl cairo_raster_source_pattern_set_acquire
  .p2align 4
  .type cairo_raster_source_pattern_set_acquire, %function
#ifndef IMPLIB_EXPORT_SHIMS
  .hidden cairo_raster_source_pattern_set_acquire
#endif
cairo_raster_source_pattern_set_acquire:
  .cfi_startproc

1:
  // Load address
  // TODO: can we do this faster on newer ARMs?
  adrp ip0, _libcairo_so_tramp_table+1704
  ldr ip0, [ip0, #:lo12:_libcairo_so_tramp_table+1704]
 
  cbz ip0, 2f

  // Fast path
  br ip0

2:
  // Slow path
  mov ip0, 213 & 0xffff
#if 213 > 0xffff
  movk ip0, 213 >> 16, lsl #16
#endif
  stp ip0, lr, [sp, #-16]!; .cfi_adjust_cfa_offset 16; .cfi_rel_offset lr, 8
  bl _libcairo_so_save_regs_and_resolve
  ldp xzr, lr, [sp], #16; .cfi_adjust_cfa_offset -16; .cfi_restore lr
  br ip0
  .cfi_endproc

/*
 * Copyright 2018-2025 Yury Gribov
 *
 * The MIT License (MIT)
 *
 * Use of this source code is governed by MIT license that can be
 * found in the LICENSE.txt file.
 */

  .globl cairo_raster_source_pattern_set_callback_data
  .p2align 4
  .type cairo_raster_source_pattern_set_callback_data, %function
#ifndef IMPLIB_EXPORT_SHIMS
  .hidden cairo_raster_source_pattern_set_callback_data
#endif
cairo_raster_source_pattern_set_callback_data:
  .cfi_startproc

1:
  // Load address
  // TODO: can we do this faster on newer ARMs?
  adrp ip0, _libcairo_so_tramp_table+1712
  ldr ip0, [ip0, #:lo12:_libcairo_so_tramp_table+1712]
 
  cbz ip0, 2f

  // Fast path
  br ip0

2:
  // Slow path
  mov ip0, 214 & 0xffff
#if 214 > 0xffff
  movk ip0, 214 >> 16, lsl #16
#endif
  stp ip0, lr, [sp, #-16]!; .cfi_adjust_cfa_offset 16; .cfi_rel_offset lr, 8
  bl _libcairo_so_save_regs_and_resolve
  ldp xzr, lr, [sp], #16; .cfi_adjust_cfa_offset -16; .cfi_restore lr
  br ip0
  .cfi_endproc

/*
 * Copyright 2018-2025 Yury Gribov
 *
 * The MIT License (MIT)
 *
 * Use of this source code is governed by MIT license that can be
 * found in the LICENSE.txt file.
 */

  .globl cairo_raster_source_pattern_set_copy
  .p2align 4
  .type cairo_raster_source_pattern_set_copy, %function
#ifndef IMPLIB_EXPORT_SHIMS
  .hidden cairo_raster_source_pattern_set_copy
#endif
cairo_raster_source_pattern_set_copy:
  .cfi_startproc

1:
  // Load address
  // TODO: can we do this faster on newer ARMs?
  adrp ip0, _libcairo_so_tramp_table+1720
  ldr ip0, [ip0, #:lo12:_libcairo_so_tramp_table+1720]
 
  cbz ip0, 2f

  // Fast path
  br ip0

2:
  // Slow path
  mov ip0, 215 & 0xffff
#if 215 > 0xffff
  movk ip0, 215 >> 16, lsl #16
#endif
  stp ip0, lr, [sp, #-16]!; .cfi_adjust_cfa_offset 16; .cfi_rel_offset lr, 8
  bl _libcairo_so_save_regs_and_resolve
  ldp xzr, lr, [sp], #16; .cfi_adjust_cfa_offset -16; .cfi_restore lr
  br ip0
  .cfi_endproc

/*
 * Copyright 2018-2025 Yury Gribov
 *
 * The MIT License (MIT)
 *
 * Use of this source code is governed by MIT license that can be
 * found in the LICENSE.txt file.
 */

  .globl cairo_raster_source_pattern_set_finish
  .p2align 4
  .type cairo_raster_source_pattern_set_finish, %function
#ifndef IMPLIB_EXPORT_SHIMS
  .hidden cairo_raster_source_pattern_set_finish
#endif
cairo_raster_source_pattern_set_finish:
  .cfi_startproc

1:
  // Load address
  // TODO: can we do this faster on newer ARMs?
  adrp ip0, _libcairo_so_tramp_table+1728
  ldr ip0, [ip0, #:lo12:_libcairo_so_tramp_table+1728]
 
  cbz ip0, 2f

  // Fast path
  br ip0

2:
  // Slow path
  mov ip0, 216 & 0xffff
#if 216 > 0xffff
  movk ip0, 216 >> 16, lsl #16
#endif
  stp ip0, lr, [sp, #-16]!; .cfi_adjust_cfa_offset 16; .cfi_rel_offset lr, 8
  bl _libcairo_so_save_regs_and_resolve
  ldp xzr, lr, [sp], #16; .cfi_adjust_cfa_offset -16; .cfi_restore lr
  br ip0
  .cfi_endproc

/*
 * Copyright 2018-2025 Yury Gribov
 *
 * The MIT License (MIT)
 *
 * Use of this source code is governed by MIT license that can be
 * found in the LICENSE.txt file.
 */

  .globl cairo_raster_source_pattern_set_snapshot
  .p2align 4
  .type cairo_raster_source_pattern_set_snapshot, %function
#ifndef IMPLIB_EXPORT_SHIMS
  .hidden cairo_raster_source_pattern_set_snapshot
#endif
cairo_raster_source_pattern_set_snapshot:
  .cfi_startproc

1:
  // Load address
  // TODO: can we do this faster on newer ARMs?
  adrp ip0, _libcairo_so_tramp_table+1736
  ldr ip0, [ip0, #:lo12:_libcairo_so_tramp_table+1736]
 
  cbz ip0, 2f

  // Fast path
  br ip0

2:
  // Slow path
  mov ip0, 217 & 0xffff
#if 217 > 0xffff
  movk ip0, 217 >> 16, lsl #16
#endif
  stp ip0, lr, [sp, #-16]!; .cfi_adjust_cfa_offset 16; .cfi_rel_offset lr, 8
  bl _libcairo_so_save_regs_and_resolve
  ldp xzr, lr, [sp], #16; .cfi_adjust_cfa_offset -16; .cfi_restore lr
  br ip0
  .cfi_endproc

/*
 * Copyright 2018-2025 Yury Gribov
 *
 * The MIT License (MIT)
 *
 * Use of this source code is governed by MIT license that can be
 * found in the LICENSE.txt file.
 */

  .globl cairo_recording_surface_create
  .p2align 4
  .type cairo_recording_surface_create, %function
#ifndef IMPLIB_EXPORT_SHIMS
  .hidden cairo_recording_surface_create
#endif
cairo_recording_surface_create:
  .cfi_startproc

1:
  // Load address
  // TODO: can we do this faster on newer ARMs?
  adrp ip0, _libcairo_so_tramp_table+1744
  ldr ip0, [ip0, #:lo12:_libcairo_so_tramp_table+1744]
 
  cbz ip0, 2f

  // Fast path
  br ip0

2:
  // Slow path
  mov ip0, 218 & 0xffff
#if 218 > 0xffff
  movk ip0, 218 >> 16, lsl #16
#endif
  stp ip0, lr, [sp, #-16]!; .cfi_adjust_cfa_offset 16; .cfi_rel_offset lr, 8
  bl _libcairo_so_save_regs_and_resolve
  ldp xzr, lr, [sp], #16; .cfi_adjust_cfa_offset -16; .cfi_restore lr
  br ip0
  .cfi_endproc

/*
 * Copyright 2018-2025 Yury Gribov
 *
 * The MIT License (MIT)
 *
 * Use of this source code is governed by MIT license that can be
 * found in the LICENSE.txt file.
 */

  .globl cairo_recording_surface_get_extents
  .p2align 4
  .type cairo_recording_surface_get_extents, %function
#ifndef IMPLIB_EXPORT_SHIMS
  .hidden cairo_recording_surface_get_extents
#endif
cairo_recording_surface_get_extents:
  .cfi_startproc

1:
  // Load address
  // TODO: can we do this faster on newer ARMs?
  adrp ip0, _libcairo_so_tramp_table+1752
  ldr ip0, [ip0, #:lo12:_libcairo_so_tramp_table+1752]
 
  cbz ip0, 2f

  // Fast path
  br ip0

2:
  // Slow path
  mov ip0, 219 & 0xffff
#if 219 > 0xffff
  movk ip0, 219 >> 16, lsl #16
#endif
  stp ip0, lr, [sp, #-16]!; .cfi_adjust_cfa_offset 16; .cfi_rel_offset lr, 8
  bl _libcairo_so_save_regs_and_resolve
  ldp xzr, lr, [sp], #16; .cfi_adjust_cfa_offset -16; .cfi_restore lr
  br ip0
  .cfi_endproc

/*
 * Copyright 2018-2025 Yury Gribov
 *
 * The MIT License (MIT)
 *
 * Use of this source code is governed by MIT license that can be
 * found in the LICENSE.txt file.
 */

  .globl cairo_recording_surface_ink_extents
  .p2align 4
  .type cairo_recording_surface_ink_extents, %function
#ifndef IMPLIB_EXPORT_SHIMS
  .hidden cairo_recording_surface_ink_extents
#endif
cairo_recording_surface_ink_extents:
  .cfi_startproc

1:
  // Load address
  // TODO: can we do this faster on newer ARMs?
  adrp ip0, _libcairo_so_tramp_table+1760
  ldr ip0, [ip0, #:lo12:_libcairo_so_tramp_table+1760]
 
  cbz ip0, 2f

  // Fast path
  br ip0

2:
  // Slow path
  mov ip0, 220 & 0xffff
#if 220 > 0xffff
  movk ip0, 220 >> 16, lsl #16
#endif
  stp ip0, lr, [sp, #-16]!; .cfi_adjust_cfa_offset 16; .cfi_rel_offset lr, 8
  bl _libcairo_so_save_regs_and_resolve
  ldp xzr, lr, [sp], #16; .cfi_adjust_cfa_offset -16; .cfi_restore lr
  br ip0
  .cfi_endproc

/*
 * Copyright 2018-2025 Yury Gribov
 *
 * The MIT License (MIT)
 *
 * Use of this source code is governed by MIT license that can be
 * found in the LICENSE.txt file.
 */

  .globl cairo_rectangle
  .p2align 4
  .type cairo_rectangle, %function
#ifndef IMPLIB_EXPORT_SHIMS
  .hidden cairo_rectangle
#endif
cairo_rectangle:
  .cfi_startproc

1:
  // Load address
  // TODO: can we do this faster on newer ARMs?
  adrp ip0, _libcairo_so_tramp_table+1768
  ldr ip0, [ip0, #:lo12:_libcairo_so_tramp_table+1768]
 
  cbz ip0, 2f

  // Fast path
  br ip0

2:
  // Slow path
  mov ip0, 221 & 0xffff
#if 221 > 0xffff
  movk ip0, 221 >> 16, lsl #16
#endif
  stp ip0, lr, [sp, #-16]!; .cfi_adjust_cfa_offset 16; .cfi_rel_offset lr, 8
  bl _libcairo_so_save_regs_and_resolve
  ldp xzr, lr, [sp], #16; .cfi_adjust_cfa_offset -16; .cfi_restore lr
  br ip0
  .cfi_endproc

/*
 * Copyright 2018-2025 Yury Gribov
 *
 * The MIT License (MIT)
 *
 * Use of this source code is governed by MIT license that can be
 * found in the LICENSE.txt file.
 */

  .globl cairo_rectangle_list_destroy
  .p2align 4
  .type cairo_rectangle_list_destroy, %function
#ifndef IMPLIB_EXPORT_SHIMS
  .hidden cairo_rectangle_list_destroy
#endif
cairo_rectangle_list_destroy:
  .cfi_startproc

1:
  // Load address
  // TODO: can we do this faster on newer ARMs?
  adrp ip0, _libcairo_so_tramp_table+1776
  ldr ip0, [ip0, #:lo12:_libcairo_so_tramp_table+1776]
 
  cbz ip0, 2f

  // Fast path
  br ip0

2:
  // Slow path
  mov ip0, 222 & 0xffff
#if 222 > 0xffff
  movk ip0, 222 >> 16, lsl #16
#endif
  stp ip0, lr, [sp, #-16]!; .cfi_adjust_cfa_offset 16; .cfi_rel_offset lr, 8
  bl _libcairo_so_save_regs_and_resolve
  ldp xzr, lr, [sp], #16; .cfi_adjust_cfa_offset -16; .cfi_restore lr
  br ip0
  .cfi_endproc

/*
 * Copyright 2018-2025 Yury Gribov
 *
 * The MIT License (MIT)
 *
 * Use of this source code is governed by MIT license that can be
 * found in the LICENSE.txt file.
 */

  .globl cairo_reference
  .p2align 4
  .type cairo_reference, %function
#ifndef IMPLIB_EXPORT_SHIMS
  .hidden cairo_reference
#endif
cairo_reference:
  .cfi_startproc

1:
  // Load address
  // TODO: can we do this faster on newer ARMs?
  adrp ip0, _libcairo_so_tramp_table+1784
  ldr ip0, [ip0, #:lo12:_libcairo_so_tramp_table+1784]
 
  cbz ip0, 2f

  // Fast path
  br ip0

2:
  // Slow path
  mov ip0, 223 & 0xffff
#if 223 > 0xffff
  movk ip0, 223 >> 16, lsl #16
#endif
  stp ip0, lr, [sp, #-16]!; .cfi_adjust_cfa_offset 16; .cfi_rel_offset lr, 8
  bl _libcairo_so_save_regs_and_resolve
  ldp xzr, lr, [sp], #16; .cfi_adjust_cfa_offset -16; .cfi_restore lr
  br ip0
  .cfi_endproc

/*
 * Copyright 2018-2025 Yury Gribov
 *
 * The MIT License (MIT)
 *
 * Use of this source code is governed by MIT license that can be
 * found in the LICENSE.txt file.
 */

  .globl cairo_region_contains_point
  .p2align 4
  .type cairo_region_contains_point, %function
#ifndef IMPLIB_EXPORT_SHIMS
  .hidden cairo_region_contains_point
#endif
cairo_region_contains_point:
  .cfi_startproc

1:
  // Load address
  // TODO: can we do this faster on newer ARMs?
  adrp ip0, _libcairo_so_tramp_table+1792
  ldr ip0, [ip0, #:lo12:_libcairo_so_tramp_table+1792]
 
  cbz ip0, 2f

  // Fast path
  br ip0

2:
  // Slow path
  mov ip0, 224 & 0xffff
#if 224 > 0xffff
  movk ip0, 224 >> 16, lsl #16
#endif
  stp ip0, lr, [sp, #-16]!; .cfi_adjust_cfa_offset 16; .cfi_rel_offset lr, 8
  bl _libcairo_so_save_regs_and_resolve
  ldp xzr, lr, [sp], #16; .cfi_adjust_cfa_offset -16; .cfi_restore lr
  br ip0
  .cfi_endproc

/*
 * Copyright 2018-2025 Yury Gribov
 *
 * The MIT License (MIT)
 *
 * Use of this source code is governed by MIT license that can be
 * found in the LICENSE.txt file.
 */

  .globl cairo_region_contains_rectangle
  .p2align 4
  .type cairo_region_contains_rectangle, %function
#ifndef IMPLIB_EXPORT_SHIMS
  .hidden cairo_region_contains_rectangle
#endif
cairo_region_contains_rectangle:
  .cfi_startproc

1:
  // Load address
  // TODO: can we do this faster on newer ARMs?
  adrp ip0, _libcairo_so_tramp_table+1800
  ldr ip0, [ip0, #:lo12:_libcairo_so_tramp_table+1800]
 
  cbz ip0, 2f

  // Fast path
  br ip0

2:
  // Slow path
  mov ip0, 225 & 0xffff
#if 225 > 0xffff
  movk ip0, 225 >> 16, lsl #16
#endif
  stp ip0, lr, [sp, #-16]!; .cfi_adjust_cfa_offset 16; .cfi_rel_offset lr, 8
  bl _libcairo_so_save_regs_and_resolve
  ldp xzr, lr, [sp], #16; .cfi_adjust_cfa_offset -16; .cfi_restore lr
  br ip0
  .cfi_endproc

/*
 * Copyright 2018-2025 Yury Gribov
 *
 * The MIT License (MIT)
 *
 * Use of this source code is governed by MIT license that can be
 * found in the LICENSE.txt file.
 */

  .globl cairo_region_copy
  .p2align 4
  .type cairo_region_copy, %function
#ifndef IMPLIB_EXPORT_SHIMS
  .hidden cairo_region_copy
#endif
cairo_region_copy:
  .cfi_startproc

1:
  // Load address
  // TODO: can we do this faster on newer ARMs?
  adrp ip0, _libcairo_so_tramp_table+1808
  ldr ip0, [ip0, #:lo12:_libcairo_so_tramp_table+1808]
 
  cbz ip0, 2f

  // Fast path
  br ip0

2:
  // Slow path
  mov ip0, 226 & 0xffff
#if 226 > 0xffff
  movk ip0, 226 >> 16, lsl #16
#endif
  stp ip0, lr, [sp, #-16]!; .cfi_adjust_cfa_offset 16; .cfi_rel_offset lr, 8
  bl _libcairo_so_save_regs_and_resolve
  ldp xzr, lr, [sp], #16; .cfi_adjust_cfa_offset -16; .cfi_restore lr
  br ip0
  .cfi_endproc

/*
 * Copyright 2018-2025 Yury Gribov
 *
 * The MIT License (MIT)
 *
 * Use of this source code is governed by MIT license that can be
 * found in the LICENSE.txt file.
 */

  .globl cairo_region_create
  .p2align 4
  .type cairo_region_create, %function
#ifndef IMPLIB_EXPORT_SHIMS
  .hidden cairo_region_create
#endif
cairo_region_create:
  .cfi_startproc

1:
  // Load address
  // TODO: can we do this faster on newer ARMs?
  adrp ip0, _libcairo_so_tramp_table+1816
  ldr ip0, [ip0, #:lo12:_libcairo_so_tramp_table+1816]
 
  cbz ip0, 2f

  // Fast path
  br ip0

2:
  // Slow path
  mov ip0, 227 & 0xffff
#if 227 > 0xffff
  movk ip0, 227 >> 16, lsl #16
#endif
  stp ip0, lr, [sp, #-16]!; .cfi_adjust_cfa_offset 16; .cfi_rel_offset lr, 8
  bl _libcairo_so_save_regs_and_resolve
  ldp xzr, lr, [sp], #16; .cfi_adjust_cfa_offset -16; .cfi_restore lr
  br ip0
  .cfi_endproc

/*
 * Copyright 2018-2025 Yury Gribov
 *
 * The MIT License (MIT)
 *
 * Use of this source code is governed by MIT license that can be
 * found in the LICENSE.txt file.
 */

  .globl cairo_region_create_rectangle
  .p2align 4
  .type cairo_region_create_rectangle, %function
#ifndef IMPLIB_EXPORT_SHIMS
  .hidden cairo_region_create_rectangle
#endif
cairo_region_create_rectangle:
  .cfi_startproc

1:
  // Load address
  // TODO: can we do this faster on newer ARMs?
  adrp ip0, _libcairo_so_tramp_table+1824
  ldr ip0, [ip0, #:lo12:_libcairo_so_tramp_table+1824]
 
  cbz ip0, 2f

  // Fast path
  br ip0

2:
  // Slow path
  mov ip0, 228 & 0xffff
#if 228 > 0xffff
  movk ip0, 228 >> 16, lsl #16
#endif
  stp ip0, lr, [sp, #-16]!; .cfi_adjust_cfa_offset 16; .cfi_rel_offset lr, 8
  bl _libcairo_so_save_regs_and_resolve
  ldp xzr, lr, [sp], #16; .cfi_adjust_cfa_offset -16; .cfi_restore lr
  br ip0
  .cfi_endproc

/*
 * Copyright 2018-2025 Yury Gribov
 *
 * The MIT License (MIT)
 *
 * Use of this source code is governed by MIT license that can be
 * found in the LICENSE.txt file.
 */

  .globl cairo_region_create_rectangles
  .p2align 4
  .type cairo_region_create_rectangles, %function
#ifndef IMPLIB_EXPORT_SHIMS
  .hidden cairo_region_create_rectangles
#endif
cairo_region_create_rectangles:
  .cfi_startproc

1:
  // Load address
  // TODO: can we do this faster on newer ARMs?
  adrp ip0, _libcairo_so_tramp_table+1832
  ldr ip0, [ip0, #:lo12:_libcairo_so_tramp_table+1832]
 
  cbz ip0, 2f

  // Fast path
  br ip0

2:
  // Slow path
  mov ip0, 229 & 0xffff
#if 229 > 0xffff
  movk ip0, 229 >> 16, lsl #16
#endif
  stp ip0, lr, [sp, #-16]!; .cfi_adjust_cfa_offset 16; .cfi_rel_offset lr, 8
  bl _libcairo_so_save_regs_and_resolve
  ldp xzr, lr, [sp], #16; .cfi_adjust_cfa_offset -16; .cfi_restore lr
  br ip0
  .cfi_endproc

/*
 * Copyright 2018-2025 Yury Gribov
 *
 * The MIT License (MIT)
 *
 * Use of this source code is governed by MIT license that can be
 * found in the LICENSE.txt file.
 */

  .globl cairo_region_destroy
  .p2align 4
  .type cairo_region_destroy, %function
#ifndef IMPLIB_EXPORT_SHIMS
  .hidden cairo_region_destroy
#endif
cairo_region_destroy:
  .cfi_startproc

1:
  // Load address
  // TODO: can we do this faster on newer ARMs?
  adrp ip0, _libcairo_so_tramp_table+1840
  ldr ip0, [ip0, #:lo12:_libcairo_so_tramp_table+1840]
 
  cbz ip0, 2f

  // Fast path
  br ip0

2:
  // Slow path
  mov ip0, 230 & 0xffff
#if 230 > 0xffff
  movk ip0, 230 >> 16, lsl #16
#endif
  stp ip0, lr, [sp, #-16]!; .cfi_adjust_cfa_offset 16; .cfi_rel_offset lr, 8
  bl _libcairo_so_save_regs_and_resolve
  ldp xzr, lr, [sp], #16; .cfi_adjust_cfa_offset -16; .cfi_restore lr
  br ip0
  .cfi_endproc

/*
 * Copyright 2018-2025 Yury Gribov
 *
 * The MIT License (MIT)
 *
 * Use of this source code is governed by MIT license that can be
 * found in the LICENSE.txt file.
 */

  .globl cairo_region_equal
  .p2align 4
  .type cairo_region_equal, %function
#ifndef IMPLIB_EXPORT_SHIMS
  .hidden cairo_region_equal
#endif
cairo_region_equal:
  .cfi_startproc

1:
  // Load address
  // TODO: can we do this faster on newer ARMs?
  adrp ip0, _libcairo_so_tramp_table+1848
  ldr ip0, [ip0, #:lo12:_libcairo_so_tramp_table+1848]
 
  cbz ip0, 2f

  // Fast path
  br ip0

2:
  // Slow path
  mov ip0, 231 & 0xffff
#if 231 > 0xffff
  movk ip0, 231 >> 16, lsl #16
#endif
  stp ip0, lr, [sp, #-16]!; .cfi_adjust_cfa_offset 16; .cfi_rel_offset lr, 8
  bl _libcairo_so_save_regs_and_resolve
  ldp xzr, lr, [sp], #16; .cfi_adjust_cfa_offset -16; .cfi_restore lr
  br ip0
  .cfi_endproc

/*
 * Copyright 2018-2025 Yury Gribov
 *
 * The MIT License (MIT)
 *
 * Use of this source code is governed by MIT license that can be
 * found in the LICENSE.txt file.
 */

  .globl cairo_region_get_extents
  .p2align 4
  .type cairo_region_get_extents, %function
#ifndef IMPLIB_EXPORT_SHIMS
  .hidden cairo_region_get_extents
#endif
cairo_region_get_extents:
  .cfi_startproc

1:
  // Load address
  // TODO: can we do this faster on newer ARMs?
  adrp ip0, _libcairo_so_tramp_table+1856
  ldr ip0, [ip0, #:lo12:_libcairo_so_tramp_table+1856]
 
  cbz ip0, 2f

  // Fast path
  br ip0

2:
  // Slow path
  mov ip0, 232 & 0xffff
#if 232 > 0xffff
  movk ip0, 232 >> 16, lsl #16
#endif
  stp ip0, lr, [sp, #-16]!; .cfi_adjust_cfa_offset 16; .cfi_rel_offset lr, 8
  bl _libcairo_so_save_regs_and_resolve
  ldp xzr, lr, [sp], #16; .cfi_adjust_cfa_offset -16; .cfi_restore lr
  br ip0
  .cfi_endproc

/*
 * Copyright 2018-2025 Yury Gribov
 *
 * The MIT License (MIT)
 *
 * Use of this source code is governed by MIT license that can be
 * found in the LICENSE.txt file.
 */

  .globl cairo_region_get_rectangle
  .p2align 4
  .type cairo_region_get_rectangle, %function
#ifndef IMPLIB_EXPORT_SHIMS
  .hidden cairo_region_get_rectangle
#endif
cairo_region_get_rectangle:
  .cfi_startproc

1:
  // Load address
  // TODO: can we do this faster on newer ARMs?
  adrp ip0, _libcairo_so_tramp_table+1864
  ldr ip0, [ip0, #:lo12:_libcairo_so_tramp_table+1864]
 
  cbz ip0, 2f

  // Fast path
  br ip0

2:
  // Slow path
  mov ip0, 233 & 0xffff
#if 233 > 0xffff
  movk ip0, 233 >> 16, lsl #16
#endif
  stp ip0, lr, [sp, #-16]!; .cfi_adjust_cfa_offset 16; .cfi_rel_offset lr, 8
  bl _libcairo_so_save_regs_and_resolve
  ldp xzr, lr, [sp], #16; .cfi_adjust_cfa_offset -16; .cfi_restore lr
  br ip0
  .cfi_endproc

/*
 * Copyright 2018-2025 Yury Gribov
 *
 * The MIT License (MIT)
 *
 * Use of this source code is governed by MIT license that can be
 * found in the LICENSE.txt file.
 */

  .globl cairo_region_intersect
  .p2align 4
  .type cairo_region_intersect, %function
#ifndef IMPLIB_EXPORT_SHIMS
  .hidden cairo_region_intersect
#endif
cairo_region_intersect:
  .cfi_startproc

1:
  // Load address
  // TODO: can we do this faster on newer ARMs?
  adrp ip0, _libcairo_so_tramp_table+1872
  ldr ip0, [ip0, #:lo12:_libcairo_so_tramp_table+1872]
 
  cbz ip0, 2f

  // Fast path
  br ip0

2:
  // Slow path
  mov ip0, 234 & 0xffff
#if 234 > 0xffff
  movk ip0, 234 >> 16, lsl #16
#endif
  stp ip0, lr, [sp, #-16]!; .cfi_adjust_cfa_offset 16; .cfi_rel_offset lr, 8
  bl _libcairo_so_save_regs_and_resolve
  ldp xzr, lr, [sp], #16; .cfi_adjust_cfa_offset -16; .cfi_restore lr
  br ip0
  .cfi_endproc

/*
 * Copyright 2018-2025 Yury Gribov
 *
 * The MIT License (MIT)
 *
 * Use of this source code is governed by MIT license that can be
 * found in the LICENSE.txt file.
 */

  .globl cairo_region_intersect_rectangle
  .p2align 4
  .type cairo_region_intersect_rectangle, %function
#ifndef IMPLIB_EXPORT_SHIMS
  .hidden cairo_region_intersect_rectangle
#endif
cairo_region_intersect_rectangle:
  .cfi_startproc

1:
  // Load address
  // TODO: can we do this faster on newer ARMs?
  adrp ip0, _libcairo_so_tramp_table+1880
  ldr ip0, [ip0, #:lo12:_libcairo_so_tramp_table+1880]
 
  cbz ip0, 2f

  // Fast path
  br ip0

2:
  // Slow path
  mov ip0, 235 & 0xffff
#if 235 > 0xffff
  movk ip0, 235 >> 16, lsl #16
#endif
  stp ip0, lr, [sp, #-16]!; .cfi_adjust_cfa_offset 16; .cfi_rel_offset lr, 8
  bl _libcairo_so_save_regs_and_resolve
  ldp xzr, lr, [sp], #16; .cfi_adjust_cfa_offset -16; .cfi_restore lr
  br ip0
  .cfi_endproc

/*
 * Copyright 2018-2025 Yury Gribov
 *
 * The MIT License (MIT)
 *
 * Use of this source code is governed by MIT license that can be
 * found in the LICENSE.txt file.
 */

  .globl cairo_region_is_empty
  .p2align 4
  .type cairo_region_is_empty, %function
#ifndef IMPLIB_EXPORT_SHIMS
  .hidden cairo_region_is_empty
#endif
cairo_region_is_empty:
  .cfi_startproc

1:
  // Load address
  // TODO: can we do this faster on newer ARMs?
  adrp ip0, _libcairo_so_tramp_table+1888
  ldr ip0, [ip0, #:lo12:_libcairo_so_tramp_table+1888]
 
  cbz ip0, 2f

  // Fast path
  br ip0

2:
  // Slow path
  mov ip0, 236 & 0xffff
#if 236 > 0xffff
  movk ip0, 236 >> 16, lsl #16
#endif
  stp ip0, lr, [sp, #-16]!; .cfi_adjust_cfa_offset 16; .cfi_rel_offset lr, 8
  bl _libcairo_so_save_regs_and_resolve
  ldp xzr, lr, [sp], #16; .cfi_adjust_cfa_offset -16; .cfi_restore lr
  br ip0
  .cfi_endproc

/*
 * Copyright 2018-2025 Yury Gribov
 *
 * The MIT License (MIT)
 *
 * Use of this source code is governed by MIT license that can be
 * found in the LICENSE.txt file.
 */

  .globl cairo_region_num_rectangles
  .p2align 4
  .type cairo_region_num_rectangles, %function
#ifndef IMPLIB_EXPORT_SHIMS
  .hidden cairo_region_num_rectangles
#endif
cairo_region_num_rectangles:
  .cfi_startproc

1:
  // Load address
  // TODO: can we do this faster on newer ARMs?
  adrp ip0, _libcairo_so_tramp_table+1896
  ldr ip0, [ip0, #:lo12:_libcairo_so_tramp_table+1896]
 
  cbz ip0, 2f

  // Fast path
  br ip0

2:
  // Slow path
  mov ip0, 237 & 0xffff
#if 237 > 0xffff
  movk ip0, 237 >> 16, lsl #16
#endif
  stp ip0, lr, [sp, #-16]!; .cfi_adjust_cfa_offset 16; .cfi_rel_offset lr, 8
  bl _libcairo_so_save_regs_and_resolve
  ldp xzr, lr, [sp], #16; .cfi_adjust_cfa_offset -16; .cfi_restore lr
  br ip0
  .cfi_endproc

/*
 * Copyright 2018-2025 Yury Gribov
 *
 * The MIT License (MIT)
 *
 * Use of this source code is governed by MIT license that can be
 * found in the LICENSE.txt file.
 */

  .globl cairo_region_reference
  .p2align 4
  .type cairo_region_reference, %function
#ifndef IMPLIB_EXPORT_SHIMS
  .hidden cairo_region_reference
#endif
cairo_region_reference:
  .cfi_startproc

1:
  // Load address
  // TODO: can we do this faster on newer ARMs?
  adrp ip0, _libcairo_so_tramp_table+1904
  ldr ip0, [ip0, #:lo12:_libcairo_so_tramp_table+1904]
 
  cbz ip0, 2f

  // Fast path
  br ip0

2:
  // Slow path
  mov ip0, 238 & 0xffff
#if 238 > 0xffff
  movk ip0, 238 >> 16, lsl #16
#endif
  stp ip0, lr, [sp, #-16]!; .cfi_adjust_cfa_offset 16; .cfi_rel_offset lr, 8
  bl _libcairo_so_save_regs_and_resolve
  ldp xzr, lr, [sp], #16; .cfi_adjust_cfa_offset -16; .cfi_restore lr
  br ip0
  .cfi_endproc

/*
 * Copyright 2018-2025 Yury Gribov
 *
 * The MIT License (MIT)
 *
 * Use of this source code is governed by MIT license that can be
 * found in the LICENSE.txt file.
 */

  .globl cairo_region_status
  .p2align 4
  .type cairo_region_status, %function
#ifndef IMPLIB_EXPORT_SHIMS
  .hidden cairo_region_status
#endif
cairo_region_status:
  .cfi_startproc

1:
  // Load address
  // TODO: can we do this faster on newer ARMs?
  adrp ip0, _libcairo_so_tramp_table+1912
  ldr ip0, [ip0, #:lo12:_libcairo_so_tramp_table+1912]
 
  cbz ip0, 2f

  // Fast path
  br ip0

2:
  // Slow path
  mov ip0, 239 & 0xffff
#if 239 > 0xffff
  movk ip0, 239 >> 16, lsl #16
#endif
  stp ip0, lr, [sp, #-16]!; .cfi_adjust_cfa_offset 16; .cfi_rel_offset lr, 8
  bl _libcairo_so_save_regs_and_resolve
  ldp xzr, lr, [sp], #16; .cfi_adjust_cfa_offset -16; .cfi_restore lr
  br ip0
  .cfi_endproc

/*
 * Copyright 2018-2025 Yury Gribov
 *
 * The MIT License (MIT)
 *
 * Use of this source code is governed by MIT license that can be
 * found in the LICENSE.txt file.
 */

  .globl cairo_region_subtract
  .p2align 4
  .type cairo_region_subtract, %function
#ifndef IMPLIB_EXPORT_SHIMS
  .hidden cairo_region_subtract
#endif
cairo_region_subtract:
  .cfi_startproc

1:
  // Load address
  // TODO: can we do this faster on newer ARMs?
  adrp ip0, _libcairo_so_tramp_table+1920
  ldr ip0, [ip0, #:lo12:_libcairo_so_tramp_table+1920]
 
  cbz ip0, 2f

  // Fast path
  br ip0

2:
  // Slow path
  mov ip0, 240 & 0xffff
#if 240 > 0xffff
  movk ip0, 240 >> 16, lsl #16
#endif
  stp ip0, lr, [sp, #-16]!; .cfi_adjust_cfa_offset 16; .cfi_rel_offset lr, 8
  bl _libcairo_so_save_regs_and_resolve
  ldp xzr, lr, [sp], #16; .cfi_adjust_cfa_offset -16; .cfi_restore lr
  br ip0
  .cfi_endproc

/*
 * Copyright 2018-2025 Yury Gribov
 *
 * The MIT License (MIT)
 *
 * Use of this source code is governed by MIT license that can be
 * found in the LICENSE.txt file.
 */

  .globl cairo_region_subtract_rectangle
  .p2align 4
  .type cairo_region_subtract_rectangle, %function
#ifndef IMPLIB_EXPORT_SHIMS
  .hidden cairo_region_subtract_rectangle
#endif
cairo_region_subtract_rectangle:
  .cfi_startproc

1:
  // Load address
  // TODO: can we do this faster on newer ARMs?
  adrp ip0, _libcairo_so_tramp_table+1928
  ldr ip0, [ip0, #:lo12:_libcairo_so_tramp_table+1928]
 
  cbz ip0, 2f

  // Fast path
  br ip0

2:
  // Slow path
  mov ip0, 241 & 0xffff
#if 241 > 0xffff
  movk ip0, 241 >> 16, lsl #16
#endif
  stp ip0, lr, [sp, #-16]!; .cfi_adjust_cfa_offset 16; .cfi_rel_offset lr, 8
  bl _libcairo_so_save_regs_and_resolve
  ldp xzr, lr, [sp], #16; .cfi_adjust_cfa_offset -16; .cfi_restore lr
  br ip0
  .cfi_endproc

/*
 * Copyright 2018-2025 Yury Gribov
 *
 * The MIT License (MIT)
 *
 * Use of this source code is governed by MIT license that can be
 * found in the LICENSE.txt file.
 */

  .globl cairo_region_translate
  .p2align 4
  .type cairo_region_translate, %function
#ifndef IMPLIB_EXPORT_SHIMS
  .hidden cairo_region_translate
#endif
cairo_region_translate:
  .cfi_startproc

1:
  // Load address
  // TODO: can we do this faster on newer ARMs?
  adrp ip0, _libcairo_so_tramp_table+1936
  ldr ip0, [ip0, #:lo12:_libcairo_so_tramp_table+1936]
 
  cbz ip0, 2f

  // Fast path
  br ip0

2:
  // Slow path
  mov ip0, 242 & 0xffff
#if 242 > 0xffff
  movk ip0, 242 >> 16, lsl #16
#endif
  stp ip0, lr, [sp, #-16]!; .cfi_adjust_cfa_offset 16; .cfi_rel_offset lr, 8
  bl _libcairo_so_save_regs_and_resolve
  ldp xzr, lr, [sp], #16; .cfi_adjust_cfa_offset -16; .cfi_restore lr
  br ip0
  .cfi_endproc

/*
 * Copyright 2018-2025 Yury Gribov
 *
 * The MIT License (MIT)
 *
 * Use of this source code is governed by MIT license that can be
 * found in the LICENSE.txt file.
 */

  .globl cairo_region_union
  .p2align 4
  .type cairo_region_union, %function
#ifndef IMPLIB_EXPORT_SHIMS
  .hidden cairo_region_union
#endif
cairo_region_union:
  .cfi_startproc

1:
  // Load address
  // TODO: can we do this faster on newer ARMs?
  adrp ip0, _libcairo_so_tramp_table+1944
  ldr ip0, [ip0, #:lo12:_libcairo_so_tramp_table+1944]
 
  cbz ip0, 2f

  // Fast path
  br ip0

2:
  // Slow path
  mov ip0, 243 & 0xffff
#if 243 > 0xffff
  movk ip0, 243 >> 16, lsl #16
#endif
  stp ip0, lr, [sp, #-16]!; .cfi_adjust_cfa_offset 16; .cfi_rel_offset lr, 8
  bl _libcairo_so_save_regs_and_resolve
  ldp xzr, lr, [sp], #16; .cfi_adjust_cfa_offset -16; .cfi_restore lr
  br ip0
  .cfi_endproc

/*
 * Copyright 2018-2025 Yury Gribov
 *
 * The MIT License (MIT)
 *
 * Use of this source code is governed by MIT license that can be
 * found in the LICENSE.txt file.
 */

  .globl cairo_region_union_rectangle
  .p2align 4
  .type cairo_region_union_rectangle, %function
#ifndef IMPLIB_EXPORT_SHIMS
  .hidden cairo_region_union_rectangle
#endif
cairo_region_union_rectangle:
  .cfi_startproc

1:
  // Load address
  // TODO: can we do this faster on newer ARMs?
  adrp ip0, _libcairo_so_tramp_table+1952
  ldr ip0, [ip0, #:lo12:_libcairo_so_tramp_table+1952]
 
  cbz ip0, 2f

  // Fast path
  br ip0

2:
  // Slow path
  mov ip0, 244 & 0xffff
#if 244 > 0xffff
  movk ip0, 244 >> 16, lsl #16
#endif
  stp ip0, lr, [sp, #-16]!; .cfi_adjust_cfa_offset 16; .cfi_rel_offset lr, 8
  bl _libcairo_so_save_regs_and_resolve
  ldp xzr, lr, [sp], #16; .cfi_adjust_cfa_offset -16; .cfi_restore lr
  br ip0
  .cfi_endproc

/*
 * Copyright 2018-2025 Yury Gribov
 *
 * The MIT License (MIT)
 *
 * Use of this source code is governed by MIT license that can be
 * found in the LICENSE.txt file.
 */

  .globl cairo_region_xor
  .p2align 4
  .type cairo_region_xor, %function
#ifndef IMPLIB_EXPORT_SHIMS
  .hidden cairo_region_xor
#endif
cairo_region_xor:
  .cfi_startproc

1:
  // Load address
  // TODO: can we do this faster on newer ARMs?
  adrp ip0, _libcairo_so_tramp_table+1960
  ldr ip0, [ip0, #:lo12:_libcairo_so_tramp_table+1960]
 
  cbz ip0, 2f

  // Fast path
  br ip0

2:
  // Slow path
  mov ip0, 245 & 0xffff
#if 245 > 0xffff
  movk ip0, 245 >> 16, lsl #16
#endif
  stp ip0, lr, [sp, #-16]!; .cfi_adjust_cfa_offset 16; .cfi_rel_offset lr, 8
  bl _libcairo_so_save_regs_and_resolve
  ldp xzr, lr, [sp], #16; .cfi_adjust_cfa_offset -16; .cfi_restore lr
  br ip0
  .cfi_endproc

/*
 * Copyright 2018-2025 Yury Gribov
 *
 * The MIT License (MIT)
 *
 * Use of this source code is governed by MIT license that can be
 * found in the LICENSE.txt file.
 */

  .globl cairo_region_xor_rectangle
  .p2align 4
  .type cairo_region_xor_rectangle, %function
#ifndef IMPLIB_EXPORT_SHIMS
  .hidden cairo_region_xor_rectangle
#endif
cairo_region_xor_rectangle:
  .cfi_startproc

1:
  // Load address
  // TODO: can we do this faster on newer ARMs?
  adrp ip0, _libcairo_so_tramp_table+1968
  ldr ip0, [ip0, #:lo12:_libcairo_so_tramp_table+1968]
 
  cbz ip0, 2f

  // Fast path
  br ip0

2:
  // Slow path
  mov ip0, 246 & 0xffff
#if 246 > 0xffff
  movk ip0, 246 >> 16, lsl #16
#endif
  stp ip0, lr, [sp, #-16]!; .cfi_adjust_cfa_offset 16; .cfi_rel_offset lr, 8
  bl _libcairo_so_save_regs_and_resolve
  ldp xzr, lr, [sp], #16; .cfi_adjust_cfa_offset -16; .cfi_restore lr
  br ip0
  .cfi_endproc

/*
 * Copyright 2018-2025 Yury Gribov
 *
 * The MIT License (MIT)
 *
 * Use of this source code is governed by MIT license that can be
 * found in the LICENSE.txt file.
 */

  .globl cairo_rel_curve_to
  .p2align 4
  .type cairo_rel_curve_to, %function
#ifndef IMPLIB_EXPORT_SHIMS
  .hidden cairo_rel_curve_to
#endif
cairo_rel_curve_to:
  .cfi_startproc

1:
  // Load address
  // TODO: can we do this faster on newer ARMs?
  adrp ip0, _libcairo_so_tramp_table+1976
  ldr ip0, [ip0, #:lo12:_libcairo_so_tramp_table+1976]
 
  cbz ip0, 2f

  // Fast path
  br ip0

2:
  // Slow path
  mov ip0, 247 & 0xffff
#if 247 > 0xffff
  movk ip0, 247 >> 16, lsl #16
#endif
  stp ip0, lr, [sp, #-16]!; .cfi_adjust_cfa_offset 16; .cfi_rel_offset lr, 8
  bl _libcairo_so_save_regs_and_resolve
  ldp xzr, lr, [sp], #16; .cfi_adjust_cfa_offset -16; .cfi_restore lr
  br ip0
  .cfi_endproc

/*
 * Copyright 2018-2025 Yury Gribov
 *
 * The MIT License (MIT)
 *
 * Use of this source code is governed by MIT license that can be
 * found in the LICENSE.txt file.
 */

  .globl cairo_rel_line_to
  .p2align 4
  .type cairo_rel_line_to, %function
#ifndef IMPLIB_EXPORT_SHIMS
  .hidden cairo_rel_line_to
#endif
cairo_rel_line_to:
  .cfi_startproc

1:
  // Load address
  // TODO: can we do this faster on newer ARMs?
  adrp ip0, _libcairo_so_tramp_table+1984
  ldr ip0, [ip0, #:lo12:_libcairo_so_tramp_table+1984]
 
  cbz ip0, 2f

  // Fast path
  br ip0

2:
  // Slow path
  mov ip0, 248 & 0xffff
#if 248 > 0xffff
  movk ip0, 248 >> 16, lsl #16
#endif
  stp ip0, lr, [sp, #-16]!; .cfi_adjust_cfa_offset 16; .cfi_rel_offset lr, 8
  bl _libcairo_so_save_regs_and_resolve
  ldp xzr, lr, [sp], #16; .cfi_adjust_cfa_offset -16; .cfi_restore lr
  br ip0
  .cfi_endproc

/*
 * Copyright 2018-2025 Yury Gribov
 *
 * The MIT License (MIT)
 *
 * Use of this source code is governed by MIT license that can be
 * found in the LICENSE.txt file.
 */

  .globl cairo_rel_move_to
  .p2align 4
  .type cairo_rel_move_to, %function
#ifndef IMPLIB_EXPORT_SHIMS
  .hidden cairo_rel_move_to
#endif
cairo_rel_move_to:
  .cfi_startproc

1:
  // Load address
  // TODO: can we do this faster on newer ARMs?
  adrp ip0, _libcairo_so_tramp_table+1992
  ldr ip0, [ip0, #:lo12:_libcairo_so_tramp_table+1992]
 
  cbz ip0, 2f

  // Fast path
  br ip0

2:
  // Slow path
  mov ip0, 249 & 0xffff
#if 249 > 0xffff
  movk ip0, 249 >> 16, lsl #16
#endif
  stp ip0, lr, [sp, #-16]!; .cfi_adjust_cfa_offset 16; .cfi_rel_offset lr, 8
  bl _libcairo_so_save_regs_and_resolve
  ldp xzr, lr, [sp], #16; .cfi_adjust_cfa_offset -16; .cfi_restore lr
  br ip0
  .cfi_endproc

/*
 * Copyright 2018-2025 Yury Gribov
 *
 * The MIT License (MIT)
 *
 * Use of this source code is governed by MIT license that can be
 * found in the LICENSE.txt file.
 */

  .globl cairo_reset_clip
  .p2align 4
  .type cairo_reset_clip, %function
#ifndef IMPLIB_EXPORT_SHIMS
  .hidden cairo_reset_clip
#endif
cairo_reset_clip:
  .cfi_startproc

1:
  // Load address
  // TODO: can we do this faster on newer ARMs?
  adrp ip0, _libcairo_so_tramp_table+2000
  ldr ip0, [ip0, #:lo12:_libcairo_so_tramp_table+2000]
 
  cbz ip0, 2f

  // Fast path
  br ip0

2:
  // Slow path
  mov ip0, 250 & 0xffff
#if 250 > 0xffff
  movk ip0, 250 >> 16, lsl #16
#endif
  stp ip0, lr, [sp, #-16]!; .cfi_adjust_cfa_offset 16; .cfi_rel_offset lr, 8
  bl _libcairo_so_save_regs_and_resolve
  ldp xzr, lr, [sp], #16; .cfi_adjust_cfa_offset -16; .cfi_restore lr
  br ip0
  .cfi_endproc

/*
 * Copyright 2018-2025 Yury Gribov
 *
 * The MIT License (MIT)
 *
 * Use of this source code is governed by MIT license that can be
 * found in the LICENSE.txt file.
 */

  .globl cairo_restore
  .p2align 4
  .type cairo_restore, %function
#ifndef IMPLIB_EXPORT_SHIMS
  .hidden cairo_restore
#endif
cairo_restore:
  .cfi_startproc

1:
  // Load address
  // TODO: can we do this faster on newer ARMs?
  adrp ip0, _libcairo_so_tramp_table+2008
  ldr ip0, [ip0, #:lo12:_libcairo_so_tramp_table+2008]
 
  cbz ip0, 2f

  // Fast path
  br ip0

2:
  // Slow path
  mov ip0, 251 & 0xffff
#if 251 > 0xffff
  movk ip0, 251 >> 16, lsl #16
#endif
  stp ip0, lr, [sp, #-16]!; .cfi_adjust_cfa_offset 16; .cfi_rel_offset lr, 8
  bl _libcairo_so_save_regs_and_resolve
  ldp xzr, lr, [sp], #16; .cfi_adjust_cfa_offset -16; .cfi_restore lr
  br ip0
  .cfi_endproc

/*
 * Copyright 2018-2025 Yury Gribov
 *
 * The MIT License (MIT)
 *
 * Use of this source code is governed by MIT license that can be
 * found in the LICENSE.txt file.
 */

  .globl cairo_rotate
  .p2align 4
  .type cairo_rotate, %function
#ifndef IMPLIB_EXPORT_SHIMS
  .hidden cairo_rotate
#endif
cairo_rotate:
  .cfi_startproc

1:
  // Load address
  // TODO: can we do this faster on newer ARMs?
  adrp ip0, _libcairo_so_tramp_table+2016
  ldr ip0, [ip0, #:lo12:_libcairo_so_tramp_table+2016]
 
  cbz ip0, 2f

  // Fast path
  br ip0

2:
  // Slow path
  mov ip0, 252 & 0xffff
#if 252 > 0xffff
  movk ip0, 252 >> 16, lsl #16
#endif
  stp ip0, lr, [sp, #-16]!; .cfi_adjust_cfa_offset 16; .cfi_rel_offset lr, 8
  bl _libcairo_so_save_regs_and_resolve
  ldp xzr, lr, [sp], #16; .cfi_adjust_cfa_offset -16; .cfi_restore lr
  br ip0
  .cfi_endproc

/*
 * Copyright 2018-2025 Yury Gribov
 *
 * The MIT License (MIT)
 *
 * Use of this source code is governed by MIT license that can be
 * found in the LICENSE.txt file.
 */

  .globl cairo_save
  .p2align 4
  .type cairo_save, %function
#ifndef IMPLIB_EXPORT_SHIMS
  .hidden cairo_save
#endif
cairo_save:
  .cfi_startproc

1:
  // Load address
  // TODO: can we do this faster on newer ARMs?
  adrp ip0, _libcairo_so_tramp_table+2024
  ldr ip0, [ip0, #:lo12:_libcairo_so_tramp_table+2024]
 
  cbz ip0, 2f

  // Fast path
  br ip0

2:
  // Slow path
  mov ip0, 253 & 0xffff
#if 253 > 0xffff
  movk ip0, 253 >> 16, lsl #16
#endif
  stp ip0, lr, [sp, #-16]!; .cfi_adjust_cfa_offset 16; .cfi_rel_offset lr, 8
  bl _libcairo_so_save_regs_and_resolve
  ldp xzr, lr, [sp], #16; .cfi_adjust_cfa_offset -16; .cfi_restore lr
  br ip0
  .cfi_endproc

/*
 * Copyright 2018-2025 Yury Gribov
 *
 * The MIT License (MIT)
 *
 * Use of this source code is governed by MIT license that can be
 * found in the LICENSE.txt file.
 */

  .globl cairo_scale
  .p2align 4
  .type cairo_scale, %function
#ifndef IMPLIB_EXPORT_SHIMS
  .hidden cairo_scale
#endif
cairo_scale:
  .cfi_startproc

1:
  // Load address
  // TODO: can we do this faster on newer ARMs?
  adrp ip0, _libcairo_so_tramp_table+2032
  ldr ip0, [ip0, #:lo12:_libcairo_so_tramp_table+2032]
 
  cbz ip0, 2f

  // Fast path
  br ip0

2:
  // Slow path
  mov ip0, 254 & 0xffff
#if 254 > 0xffff
  movk ip0, 254 >> 16, lsl #16
#endif
  stp ip0, lr, [sp, #-16]!; .cfi_adjust_cfa_offset 16; .cfi_rel_offset lr, 8
  bl _libcairo_so_save_regs_and_resolve
  ldp xzr, lr, [sp], #16; .cfi_adjust_cfa_offset -16; .cfi_restore lr
  br ip0
  .cfi_endproc

/*
 * Copyright 2018-2025 Yury Gribov
 *
 * The MIT License (MIT)
 *
 * Use of this source code is governed by MIT license that can be
 * found in the LICENSE.txt file.
 */

  .globl cairo_scaled_font_create
  .p2align 4
  .type cairo_scaled_font_create, %function
#ifndef IMPLIB_EXPORT_SHIMS
  .hidden cairo_scaled_font_create
#endif
cairo_scaled_font_create:
  .cfi_startproc

1:
  // Load address
  // TODO: can we do this faster on newer ARMs?
  adrp ip0, _libcairo_so_tramp_table+2040
  ldr ip0, [ip0, #:lo12:_libcairo_so_tramp_table+2040]
 
  cbz ip0, 2f

  // Fast path
  br ip0

2:
  // Slow path
  mov ip0, 255 & 0xffff
#if 255 > 0xffff
  movk ip0, 255 >> 16, lsl #16
#endif
  stp ip0, lr, [sp, #-16]!; .cfi_adjust_cfa_offset 16; .cfi_rel_offset lr, 8
  bl _libcairo_so_save_regs_and_resolve
  ldp xzr, lr, [sp], #16; .cfi_adjust_cfa_offset -16; .cfi_restore lr
  br ip0
  .cfi_endproc

/*
 * Copyright 2018-2025 Yury Gribov
 *
 * The MIT License (MIT)
 *
 * Use of this source code is governed by MIT license that can be
 * found in the LICENSE.txt file.
 */

  .globl cairo_scaled_font_destroy
  .p2align 4
  .type cairo_scaled_font_destroy, %function
#ifndef IMPLIB_EXPORT_SHIMS
  .hidden cairo_scaled_font_destroy
#endif
cairo_scaled_font_destroy:
  .cfi_startproc

1:
  // Load address
  // TODO: can we do this faster on newer ARMs?
  adrp ip0, _libcairo_so_tramp_table+2048
  ldr ip0, [ip0, #:lo12:_libcairo_so_tramp_table+2048]
 
  cbz ip0, 2f

  // Fast path
  br ip0

2:
  // Slow path
  mov ip0, 256 & 0xffff
#if 256 > 0xffff
  movk ip0, 256 >> 16, lsl #16
#endif
  stp ip0, lr, [sp, #-16]!; .cfi_adjust_cfa_offset 16; .cfi_rel_offset lr, 8
  bl _libcairo_so_save_regs_and_resolve
  ldp xzr, lr, [sp], #16; .cfi_adjust_cfa_offset -16; .cfi_restore lr
  br ip0
  .cfi_endproc

/*
 * Copyright 2018-2025 Yury Gribov
 *
 * The MIT License (MIT)
 *
 * Use of this source code is governed by MIT license that can be
 * found in the LICENSE.txt file.
 */

  .globl cairo_scaled_font_extents
  .p2align 4
  .type cairo_scaled_font_extents, %function
#ifndef IMPLIB_EXPORT_SHIMS
  .hidden cairo_scaled_font_extents
#endif
cairo_scaled_font_extents:
  .cfi_startproc

1:
  // Load address
  // TODO: can we do this faster on newer ARMs?
  adrp ip0, _libcairo_so_tramp_table+2056
  ldr ip0, [ip0, #:lo12:_libcairo_so_tramp_table+2056]
 
  cbz ip0, 2f

  // Fast path
  br ip0

2:
  // Slow path
  mov ip0, 257 & 0xffff
#if 257 > 0xffff
  movk ip0, 257 >> 16, lsl #16
#endif
  stp ip0, lr, [sp, #-16]!; .cfi_adjust_cfa_offset 16; .cfi_rel_offset lr, 8
  bl _libcairo_so_save_regs_and_resolve
  ldp xzr, lr, [sp], #16; .cfi_adjust_cfa_offset -16; .cfi_restore lr
  br ip0
  .cfi_endproc

/*
 * Copyright 2018-2025 Yury Gribov
 *
 * The MIT License (MIT)
 *
 * Use of this source code is governed by MIT license that can be
 * found in the LICENSE.txt file.
 */

  .globl cairo_scaled_font_get_ctm
  .p2align 4
  .type cairo_scaled_font_get_ctm, %function
#ifndef IMPLIB_EXPORT_SHIMS
  .hidden cairo_scaled_font_get_ctm
#endif
cairo_scaled_font_get_ctm:
  .cfi_startproc

1:
  // Load address
  // TODO: can we do this faster on newer ARMs?
  adrp ip0, _libcairo_so_tramp_table+2064
  ldr ip0, [ip0, #:lo12:_libcairo_so_tramp_table+2064]
 
  cbz ip0, 2f

  // Fast path
  br ip0

2:
  // Slow path
  mov ip0, 258 & 0xffff
#if 258 > 0xffff
  movk ip0, 258 >> 16, lsl #16
#endif
  stp ip0, lr, [sp, #-16]!; .cfi_adjust_cfa_offset 16; .cfi_rel_offset lr, 8
  bl _libcairo_so_save_regs_and_resolve
  ldp xzr, lr, [sp], #16; .cfi_adjust_cfa_offset -16; .cfi_restore lr
  br ip0
  .cfi_endproc

/*
 * Copyright 2018-2025 Yury Gribov
 *
 * The MIT License (MIT)
 *
 * Use of this source code is governed by MIT license that can be
 * found in the LICENSE.txt file.
 */

  .globl cairo_scaled_font_get_font_face
  .p2align 4
  .type cairo_scaled_font_get_font_face, %function
#ifndef IMPLIB_EXPORT_SHIMS
  .hidden cairo_scaled_font_get_font_face
#endif
cairo_scaled_font_get_font_face:
  .cfi_startproc

1:
  // Load address
  // TODO: can we do this faster on newer ARMs?
  adrp ip0, _libcairo_so_tramp_table+2072
  ldr ip0, [ip0, #:lo12:_libcairo_so_tramp_table+2072]
 
  cbz ip0, 2f

  // Fast path
  br ip0

2:
  // Slow path
  mov ip0, 259 & 0xffff
#if 259 > 0xffff
  movk ip0, 259 >> 16, lsl #16
#endif
  stp ip0, lr, [sp, #-16]!; .cfi_adjust_cfa_offset 16; .cfi_rel_offset lr, 8
  bl _libcairo_so_save_regs_and_resolve
  ldp xzr, lr, [sp], #16; .cfi_adjust_cfa_offset -16; .cfi_restore lr
  br ip0
  .cfi_endproc

/*
 * Copyright 2018-2025 Yury Gribov
 *
 * The MIT License (MIT)
 *
 * Use of this source code is governed by MIT license that can be
 * found in the LICENSE.txt file.
 */

  .globl cairo_scaled_font_get_font_matrix
  .p2align 4
  .type cairo_scaled_font_get_font_matrix, %function
#ifndef IMPLIB_EXPORT_SHIMS
  .hidden cairo_scaled_font_get_font_matrix
#endif
cairo_scaled_font_get_font_matrix:
  .cfi_startproc

1:
  // Load address
  // TODO: can we do this faster on newer ARMs?
  adrp ip0, _libcairo_so_tramp_table+2080
  ldr ip0, [ip0, #:lo12:_libcairo_so_tramp_table+2080]
 
  cbz ip0, 2f

  // Fast path
  br ip0

2:
  // Slow path
  mov ip0, 260 & 0xffff
#if 260 > 0xffff
  movk ip0, 260 >> 16, lsl #16
#endif
  stp ip0, lr, [sp, #-16]!; .cfi_adjust_cfa_offset 16; .cfi_rel_offset lr, 8
  bl _libcairo_so_save_regs_and_resolve
  ldp xzr, lr, [sp], #16; .cfi_adjust_cfa_offset -16; .cfi_restore lr
  br ip0
  .cfi_endproc

/*
 * Copyright 2018-2025 Yury Gribov
 *
 * The MIT License (MIT)
 *
 * Use of this source code is governed by MIT license that can be
 * found in the LICENSE.txt file.
 */

  .globl cairo_scaled_font_get_font_options
  .p2align 4
  .type cairo_scaled_font_get_font_options, %function
#ifndef IMPLIB_EXPORT_SHIMS
  .hidden cairo_scaled_font_get_font_options
#endif
cairo_scaled_font_get_font_options:
  .cfi_startproc

1:
  // Load address
  // TODO: can we do this faster on newer ARMs?
  adrp ip0, _libcairo_so_tramp_table+2088
  ldr ip0, [ip0, #:lo12:_libcairo_so_tramp_table+2088]
 
  cbz ip0, 2f

  // Fast path
  br ip0

2:
  // Slow path
  mov ip0, 261 & 0xffff
#if 261 > 0xffff
  movk ip0, 261 >> 16, lsl #16
#endif
  stp ip0, lr, [sp, #-16]!; .cfi_adjust_cfa_offset 16; .cfi_rel_offset lr, 8
  bl _libcairo_so_save_regs_and_resolve
  ldp xzr, lr, [sp], #16; .cfi_adjust_cfa_offset -16; .cfi_restore lr
  br ip0
  .cfi_endproc

/*
 * Copyright 2018-2025 Yury Gribov
 *
 * The MIT License (MIT)
 *
 * Use of this source code is governed by MIT license that can be
 * found in the LICENSE.txt file.
 */

  .globl cairo_scaled_font_get_reference_count
  .p2align 4
  .type cairo_scaled_font_get_reference_count, %function
#ifndef IMPLIB_EXPORT_SHIMS
  .hidden cairo_scaled_font_get_reference_count
#endif
cairo_scaled_font_get_reference_count:
  .cfi_startproc

1:
  // Load address
  // TODO: can we do this faster on newer ARMs?
  adrp ip0, _libcairo_so_tramp_table+2096
  ldr ip0, [ip0, #:lo12:_libcairo_so_tramp_table+2096]
 
  cbz ip0, 2f

  // Fast path
  br ip0

2:
  // Slow path
  mov ip0, 262 & 0xffff
#if 262 > 0xffff
  movk ip0, 262 >> 16, lsl #16
#endif
  stp ip0, lr, [sp, #-16]!; .cfi_adjust_cfa_offset 16; .cfi_rel_offset lr, 8
  bl _libcairo_so_save_regs_and_resolve
  ldp xzr, lr, [sp], #16; .cfi_adjust_cfa_offset -16; .cfi_restore lr
  br ip0
  .cfi_endproc

/*
 * Copyright 2018-2025 Yury Gribov
 *
 * The MIT License (MIT)
 *
 * Use of this source code is governed by MIT license that can be
 * found in the LICENSE.txt file.
 */

  .globl cairo_scaled_font_get_scale_matrix
  .p2align 4
  .type cairo_scaled_font_get_scale_matrix, %function
#ifndef IMPLIB_EXPORT_SHIMS
  .hidden cairo_scaled_font_get_scale_matrix
#endif
cairo_scaled_font_get_scale_matrix:
  .cfi_startproc

1:
  // Load address
  // TODO: can we do this faster on newer ARMs?
  adrp ip0, _libcairo_so_tramp_table+2104
  ldr ip0, [ip0, #:lo12:_libcairo_so_tramp_table+2104]
 
  cbz ip0, 2f

  // Fast path
  br ip0

2:
  // Slow path
  mov ip0, 263 & 0xffff
#if 263 > 0xffff
  movk ip0, 263 >> 16, lsl #16
#endif
  stp ip0, lr, [sp, #-16]!; .cfi_adjust_cfa_offset 16; .cfi_rel_offset lr, 8
  bl _libcairo_so_save_regs_and_resolve
  ldp xzr, lr, [sp], #16; .cfi_adjust_cfa_offset -16; .cfi_restore lr
  br ip0
  .cfi_endproc

/*
 * Copyright 2018-2025 Yury Gribov
 *
 * The MIT License (MIT)
 *
 * Use of this source code is governed by MIT license that can be
 * found in the LICENSE.txt file.
 */

  .globl cairo_scaled_font_get_type
  .p2align 4
  .type cairo_scaled_font_get_type, %function
#ifndef IMPLIB_EXPORT_SHIMS
  .hidden cairo_scaled_font_get_type
#endif
cairo_scaled_font_get_type:
  .cfi_startproc

1:
  // Load address
  // TODO: can we do this faster on newer ARMs?
  adrp ip0, _libcairo_so_tramp_table+2112
  ldr ip0, [ip0, #:lo12:_libcairo_so_tramp_table+2112]
 
  cbz ip0, 2f

  // Fast path
  br ip0

2:
  // Slow path
  mov ip0, 264 & 0xffff
#if 264 > 0xffff
  movk ip0, 264 >> 16, lsl #16
#endif
  stp ip0, lr, [sp, #-16]!; .cfi_adjust_cfa_offset 16; .cfi_rel_offset lr, 8
  bl _libcairo_so_save_regs_and_resolve
  ldp xzr, lr, [sp], #16; .cfi_adjust_cfa_offset -16; .cfi_restore lr
  br ip0
  .cfi_endproc

/*
 * Copyright 2018-2025 Yury Gribov
 *
 * The MIT License (MIT)
 *
 * Use of this source code is governed by MIT license that can be
 * found in the LICENSE.txt file.
 */

  .globl cairo_scaled_font_get_user_data
  .p2align 4
  .type cairo_scaled_font_get_user_data, %function
#ifndef IMPLIB_EXPORT_SHIMS
  .hidden cairo_scaled_font_get_user_data
#endif
cairo_scaled_font_get_user_data:
  .cfi_startproc

1:
  // Load address
  // TODO: can we do this faster on newer ARMs?
  adrp ip0, _libcairo_so_tramp_table+2120
  ldr ip0, [ip0, #:lo12:_libcairo_so_tramp_table+2120]
 
  cbz ip0, 2f

  // Fast path
  br ip0

2:
  // Slow path
  mov ip0, 265 & 0xffff
#if 265 > 0xffff
  movk ip0, 265 >> 16, lsl #16
#endif
  stp ip0, lr, [sp, #-16]!; .cfi_adjust_cfa_offset 16; .cfi_rel_offset lr, 8
  bl _libcairo_so_save_regs_and_resolve
  ldp xzr, lr, [sp], #16; .cfi_adjust_cfa_offset -16; .cfi_restore lr
  br ip0
  .cfi_endproc

/*
 * Copyright 2018-2025 Yury Gribov
 *
 * The MIT License (MIT)
 *
 * Use of this source code is governed by MIT license that can be
 * found in the LICENSE.txt file.
 */

  .globl cairo_scaled_font_glyph_extents
  .p2align 4
  .type cairo_scaled_font_glyph_extents, %function
#ifndef IMPLIB_EXPORT_SHIMS
  .hidden cairo_scaled_font_glyph_extents
#endif
cairo_scaled_font_glyph_extents:
  .cfi_startproc

1:
  // Load address
  // TODO: can we do this faster on newer ARMs?
  adrp ip0, _libcairo_so_tramp_table+2128
  ldr ip0, [ip0, #:lo12:_libcairo_so_tramp_table+2128]
 
  cbz ip0, 2f

  // Fast path
  br ip0

2:
  // Slow path
  mov ip0, 266 & 0xffff
#if 266 > 0xffff
  movk ip0, 266 >> 16, lsl #16
#endif
  stp ip0, lr, [sp, #-16]!; .cfi_adjust_cfa_offset 16; .cfi_rel_offset lr, 8
  bl _libcairo_so_save_regs_and_resolve
  ldp xzr, lr, [sp], #16; .cfi_adjust_cfa_offset -16; .cfi_restore lr
  br ip0
  .cfi_endproc

/*
 * Copyright 2018-2025 Yury Gribov
 *
 * The MIT License (MIT)
 *
 * Use of this source code is governed by MIT license that can be
 * found in the LICENSE.txt file.
 */

  .globl cairo_scaled_font_reference
  .p2align 4
  .type cairo_scaled_font_reference, %function
#ifndef IMPLIB_EXPORT_SHIMS
  .hidden cairo_scaled_font_reference
#endif
cairo_scaled_font_reference:
  .cfi_startproc

1:
  // Load address
  // TODO: can we do this faster on newer ARMs?
  adrp ip0, _libcairo_so_tramp_table+2136
  ldr ip0, [ip0, #:lo12:_libcairo_so_tramp_table+2136]
 
  cbz ip0, 2f

  // Fast path
  br ip0

2:
  // Slow path
  mov ip0, 267 & 0xffff
#if 267 > 0xffff
  movk ip0, 267 >> 16, lsl #16
#endif
  stp ip0, lr, [sp, #-16]!; .cfi_adjust_cfa_offset 16; .cfi_rel_offset lr, 8
  bl _libcairo_so_save_regs_and_resolve
  ldp xzr, lr, [sp], #16; .cfi_adjust_cfa_offset -16; .cfi_restore lr
  br ip0
  .cfi_endproc

/*
 * Copyright 2018-2025 Yury Gribov
 *
 * The MIT License (MIT)
 *
 * Use of this source code is governed by MIT license that can be
 * found in the LICENSE.txt file.
 */

  .globl cairo_scaled_font_set_user_data
  .p2align 4
  .type cairo_scaled_font_set_user_data, %function
#ifndef IMPLIB_EXPORT_SHIMS
  .hidden cairo_scaled_font_set_user_data
#endif
cairo_scaled_font_set_user_data:
  .cfi_startproc

1:
  // Load address
  // TODO: can we do this faster on newer ARMs?
  adrp ip0, _libcairo_so_tramp_table+2144
  ldr ip0, [ip0, #:lo12:_libcairo_so_tramp_table+2144]
 
  cbz ip0, 2f

  // Fast path
  br ip0

2:
  // Slow path
  mov ip0, 268 & 0xffff
#if 268 > 0xffff
  movk ip0, 268 >> 16, lsl #16
#endif
  stp ip0, lr, [sp, #-16]!; .cfi_adjust_cfa_offset 16; .cfi_rel_offset lr, 8
  bl _libcairo_so_save_regs_and_resolve
  ldp xzr, lr, [sp], #16; .cfi_adjust_cfa_offset -16; .cfi_restore lr
  br ip0
  .cfi_endproc

/*
 * Copyright 2018-2025 Yury Gribov
 *
 * The MIT License (MIT)
 *
 * Use of this source code is governed by MIT license that can be
 * found in the LICENSE.txt file.
 */

  .globl cairo_scaled_font_status
  .p2align 4
  .type cairo_scaled_font_status, %function
#ifndef IMPLIB_EXPORT_SHIMS
  .hidden cairo_scaled_font_status
#endif
cairo_scaled_font_status:
  .cfi_startproc

1:
  // Load address
  // TODO: can we do this faster on newer ARMs?
  adrp ip0, _libcairo_so_tramp_table+2152
  ldr ip0, [ip0, #:lo12:_libcairo_so_tramp_table+2152]
 
  cbz ip0, 2f

  // Fast path
  br ip0

2:
  // Slow path
  mov ip0, 269 & 0xffff
#if 269 > 0xffff
  movk ip0, 269 >> 16, lsl #16
#endif
  stp ip0, lr, [sp, #-16]!; .cfi_adjust_cfa_offset 16; .cfi_rel_offset lr, 8
  bl _libcairo_so_save_regs_and_resolve
  ldp xzr, lr, [sp], #16; .cfi_adjust_cfa_offset -16; .cfi_restore lr
  br ip0
  .cfi_endproc

/*
 * Copyright 2018-2025 Yury Gribov
 *
 * The MIT License (MIT)
 *
 * Use of this source code is governed by MIT license that can be
 * found in the LICENSE.txt file.
 */

  .globl cairo_scaled_font_text_extents
  .p2align 4
  .type cairo_scaled_font_text_extents, %function
#ifndef IMPLIB_EXPORT_SHIMS
  .hidden cairo_scaled_font_text_extents
#endif
cairo_scaled_font_text_extents:
  .cfi_startproc

1:
  // Load address
  // TODO: can we do this faster on newer ARMs?
  adrp ip0, _libcairo_so_tramp_table+2160
  ldr ip0, [ip0, #:lo12:_libcairo_so_tramp_table+2160]
 
  cbz ip0, 2f

  // Fast path
  br ip0

2:
  // Slow path
  mov ip0, 270 & 0xffff
#if 270 > 0xffff
  movk ip0, 270 >> 16, lsl #16
#endif
  stp ip0, lr, [sp, #-16]!; .cfi_adjust_cfa_offset 16; .cfi_rel_offset lr, 8
  bl _libcairo_so_save_regs_and_resolve
  ldp xzr, lr, [sp], #16; .cfi_adjust_cfa_offset -16; .cfi_restore lr
  br ip0
  .cfi_endproc

/*
 * Copyright 2018-2025 Yury Gribov
 *
 * The MIT License (MIT)
 *
 * Use of this source code is governed by MIT license that can be
 * found in the LICENSE.txt file.
 */

  .globl cairo_scaled_font_text_to_glyphs
  .p2align 4
  .type cairo_scaled_font_text_to_glyphs, %function
#ifndef IMPLIB_EXPORT_SHIMS
  .hidden cairo_scaled_font_text_to_glyphs
#endif
cairo_scaled_font_text_to_glyphs:
  .cfi_startproc

1:
  // Load address
  // TODO: can we do this faster on newer ARMs?
  adrp ip0, _libcairo_so_tramp_table+2168
  ldr ip0, [ip0, #:lo12:_libcairo_so_tramp_table+2168]
 
  cbz ip0, 2f

  // Fast path
  br ip0

2:
  // Slow path
  mov ip0, 271 & 0xffff
#if 271 > 0xffff
  movk ip0, 271 >> 16, lsl #16
#endif
  stp ip0, lr, [sp, #-16]!; .cfi_adjust_cfa_offset 16; .cfi_rel_offset lr, 8
  bl _libcairo_so_save_regs_and_resolve
  ldp xzr, lr, [sp], #16; .cfi_adjust_cfa_offset -16; .cfi_restore lr
  br ip0
  .cfi_endproc

/*
 * Copyright 2018-2025 Yury Gribov
 *
 * The MIT License (MIT)
 *
 * Use of this source code is governed by MIT license that can be
 * found in the LICENSE.txt file.
 */

  .globl cairo_script_create
  .p2align 4
  .type cairo_script_create, %function
#ifndef IMPLIB_EXPORT_SHIMS
  .hidden cairo_script_create
#endif
cairo_script_create:
  .cfi_startproc

1:
  // Load address
  // TODO: can we do this faster on newer ARMs?
  adrp ip0, _libcairo_so_tramp_table+2176
  ldr ip0, [ip0, #:lo12:_libcairo_so_tramp_table+2176]
 
  cbz ip0, 2f

  // Fast path
  br ip0

2:
  // Slow path
  mov ip0, 272 & 0xffff
#if 272 > 0xffff
  movk ip0, 272 >> 16, lsl #16
#endif
  stp ip0, lr, [sp, #-16]!; .cfi_adjust_cfa_offset 16; .cfi_rel_offset lr, 8
  bl _libcairo_so_save_regs_and_resolve
  ldp xzr, lr, [sp], #16; .cfi_adjust_cfa_offset -16; .cfi_restore lr
  br ip0
  .cfi_endproc

/*
 * Copyright 2018-2025 Yury Gribov
 *
 * The MIT License (MIT)
 *
 * Use of this source code is governed by MIT license that can be
 * found in the LICENSE.txt file.
 */

  .globl cairo_script_create_for_stream
  .p2align 4
  .type cairo_script_create_for_stream, %function
#ifndef IMPLIB_EXPORT_SHIMS
  .hidden cairo_script_create_for_stream
#endif
cairo_script_create_for_stream:
  .cfi_startproc

1:
  // Load address
  // TODO: can we do this faster on newer ARMs?
  adrp ip0, _libcairo_so_tramp_table+2184
  ldr ip0, [ip0, #:lo12:_libcairo_so_tramp_table+2184]
 
  cbz ip0, 2f

  // Fast path
  br ip0

2:
  // Slow path
  mov ip0, 273 & 0xffff
#if 273 > 0xffff
  movk ip0, 273 >> 16, lsl #16
#endif
  stp ip0, lr, [sp, #-16]!; .cfi_adjust_cfa_offset 16; .cfi_rel_offset lr, 8
  bl _libcairo_so_save_regs_and_resolve
  ldp xzr, lr, [sp], #16; .cfi_adjust_cfa_offset -16; .cfi_restore lr
  br ip0
  .cfi_endproc

/*
 * Copyright 2018-2025 Yury Gribov
 *
 * The MIT License (MIT)
 *
 * Use of this source code is governed by MIT license that can be
 * found in the LICENSE.txt file.
 */

  .globl cairo_script_from_recording_surface
  .p2align 4
  .type cairo_script_from_recording_surface, %function
#ifndef IMPLIB_EXPORT_SHIMS
  .hidden cairo_script_from_recording_surface
#endif
cairo_script_from_recording_surface:
  .cfi_startproc

1:
  // Load address
  // TODO: can we do this faster on newer ARMs?
  adrp ip0, _libcairo_so_tramp_table+2192
  ldr ip0, [ip0, #:lo12:_libcairo_so_tramp_table+2192]
 
  cbz ip0, 2f

  // Fast path
  br ip0

2:
  // Slow path
  mov ip0, 274 & 0xffff
#if 274 > 0xffff
  movk ip0, 274 >> 16, lsl #16
#endif
  stp ip0, lr, [sp, #-16]!; .cfi_adjust_cfa_offset 16; .cfi_rel_offset lr, 8
  bl _libcairo_so_save_regs_and_resolve
  ldp xzr, lr, [sp], #16; .cfi_adjust_cfa_offset -16; .cfi_restore lr
  br ip0
  .cfi_endproc

/*
 * Copyright 2018-2025 Yury Gribov
 *
 * The MIT License (MIT)
 *
 * Use of this source code is governed by MIT license that can be
 * found in the LICENSE.txt file.
 */

  .globl cairo_script_get_mode
  .p2align 4
  .type cairo_script_get_mode, %function
