/*
 * Copyright 2018-2025 Yury Gribov
 *
 * The MIT License (MIT)
 *
 * Use of this source code is governed by MIT license that can be
 * found in the LICENSE.txt file.
 */

  .section .note.GNU-stack,"",%progbits

  .data

  .globl _libharfbuzz_so_tramp_table
  .hidden _libharfbuzz_so_tramp_table
  .align 4
_libharfbuzz_so_tramp_table:
  .zero 2120

  .text

  .globl _libharfbuzz_so_tramp_resolve
  .hidden _libharfbuzz_so_tramp_resolve

  .globl _libharfbuzz_so_save_regs_and_resolve
  .hidden _libharfbuzz_so_save_regs_and_resolve
  .type _libharfbuzz_so_save_regs_and_resolve, %function
_libharfbuzz_so_save_regs_and_resolve:
  .cfi_startproc

#define PUSH_REG(reg) push {reg}; .cfi_adjust_cfa_offset 4; .cfi_rel_offset reg, 0
#define POP_REG(reg) pop {reg} ; .cfi_adjust_cfa_offset -4; .cfi_restore reg

// Binutils 2.30 does not like q0 in .cfi_rel_offset
#define PUSH_DREG_PAIR(reg1, reg2) vpush {reg1, reg2}; .cfi_adjust_cfa_offset 16; .cfi_rel_offset reg1, 0; .cfi_rel_offset reg2, 8
#define POP_DREG_PAIR(reg1, reg2) vpop {reg1, reg2}; .cfi_adjust_cfa_offset -16; .cfi_restore reg1; .cfi_restore reg2

  // Slow path which calls dlsym, taken only on first call.
  // Registers are saved acc. to "Procedure Call Standard for the ARM Architecture".
  // For DWARF directives, read https://www.imperialviolet.org/2017/01/18/cfi.html.

  // Stack is aligned at 16 bytes at this point

  // Save only arguments (and lr)
  PUSH_REG(r0)
  ldr r0, [sp, #8]
  PUSH_REG(r1)
  PUSH_REG(r2)
  PUSH_REG(r3)
  PUSH_REG(lr)
  PUSH_REG(lr)  // Align to 8 bytes

  // Arguments can be passed in VFP registers only when hard-float ABI is used
  // for arm-gnueabihf target // (http://android-doc.github.io/ndk/guides/abis.html#v7a).
  // Use compiler macro to detect this case.
#ifdef __ARM_PCS_VFP
  PUSH_DREG_PAIR(d0, d1)
  PUSH_DREG_PAIR(d2, d3)
  PUSH_DREG_PAIR(d4, d5)
  PUSH_DREG_PAIR(d6, d7)
  PUSH_DREG_PAIR(d8, d9)
  PUSH_DREG_PAIR(d10, d11)
  PUSH_DREG_PAIR(d12, d13)
  PUSH_DREG_PAIR(d14, d15)
  // FIXME: NEON actually supports 32 D-registers but it's unclear how to detect this
#endif

  bl _libharfbuzz_so_tramp_resolve(PLT)
  mov ip, r0

#ifdef __ARM_PCS_VFP
  POP_DREG_PAIR(d14, d15)
  POP_DREG_PAIR(d12, d13)
  POP_DREG_PAIR(d10, d11)
  POP_DREG_PAIR(d8, d9)
  POP_DREG_PAIR(d6, d7)
  POP_DREG_PAIR(d4, d5)
  POP_DREG_PAIR(d2, d3)
  POP_DREG_PAIR(d0, d1)
#endif

  POP_REG(lr)  // TODO: pop pc?
  POP_REG(lr)
  POP_REG(r3)
  POP_REG(r2)
  POP_REG(r1)
  POP_REG(r0)

  bx lr

  .cfi_endproc

/*
 * Copyright 2018-2025 Yury Gribov
 *
 * The MIT License (MIT)
 *
 * Use of this source code is governed by MIT license that can be
 * found in the LICENSE.txt file.
 */

  .globl hb_aat_layout_feature_type_get_name_id
  .p2align 4
  .type hb_aat_layout_feature_type_get_name_id, %function
#ifndef IMPLIB_EXPORT_SHIMS
  .hidden hb_aat_layout_feature_type_get_name_id
#endif
hb_aat_layout_feature_type_get_name_id:
  .cfi_startproc

1:
  // Load address
  // TODO: can we do this faster on newer ARMs?
  ldr ip, 3f
2:
  add ip, pc, ip
  ldr ip, [ip]

  cmp ip, #0

  // Fast path
  bxne ip

  // Slow path
  ldr ip, =0
  push {ip}
  .cfi_adjust_cfa_offset 4
  PUSH_REG(lr)
  bl _libharfbuzz_so_save_regs_and_resolve
  POP_REG(lr)
  add sp, #4
  .cfi_adjust_cfa_offset -4
  bx ip

  // Force constant pool for ldr above
  .ltorg

  .cfi_endproc

3:
  .word _libharfbuzz_so_tramp_table - (2b + 8) + 0

/*
 * Copyright 2018-2025 Yury Gribov
 *
 * The MIT License (MIT)
 *
 * Use of this source code is governed by MIT license that can be
 * found in the LICENSE.txt file.
 */

  .globl hb_aat_layout_feature_type_get_selector_infos
  .p2align 4
  .type hb_aat_layout_feature_type_get_selector_infos, %function
#ifndef IMPLIB_EXPORT_SHIMS
  .hidden hb_aat_layout_feature_type_get_selector_infos
#endif
hb_aat_layout_feature_type_get_selector_infos:
  .cfi_startproc

1:
  // Load address
  // TODO: can we do this faster on newer ARMs?
  ldr ip, 3f
2:
  add ip, pc, ip
  ldr ip, [ip]

  cmp ip, #0

  // Fast path
  bxne ip

  // Slow path
  ldr ip, =1
  push {ip}
  .cfi_adjust_cfa_offset 4
  PUSH_REG(lr)
  bl _libharfbuzz_so_save_regs_and_resolve
  POP_REG(lr)
  add sp, #4
  .cfi_adjust_cfa_offset -4
  bx ip

  // Force constant pool for ldr above
  .ltorg

  .cfi_endproc

3:
  .word _libharfbuzz_so_tramp_table - (2b + 8) + 4

/*
 * Copyright 2018-2025 Yury Gribov
 *
 * The MIT License (MIT)
 *
 * Use of this source code is governed by MIT license that can be
 * found in the LICENSE.txt file.
 */

  .globl hb_aat_layout_get_feature_types
  .p2align 4
  .type hb_aat_layout_get_feature_types, %function
#ifndef IMPLIB_EXPORT_SHIMS
  .hidden hb_aat_layout_get_feature_types
#endif
hb_aat_layout_get_feature_types:
  .cfi_startproc

1:
  // Load address
  // TODO: can we do this faster on newer ARMs?
  ldr ip, 3f
2:
  add ip, pc, ip
  ldr ip, [ip]

  cmp ip, #0

  // Fast path
  bxne ip

  // Slow path
  ldr ip, =2
  push {ip}
  .cfi_adjust_cfa_offset 4
  PUSH_REG(lr)
  bl _libharfbuzz_so_save_regs_and_resolve
  POP_REG(lr)
  add sp, #4
  .cfi_adjust_cfa_offset -4
  bx ip

  // Force constant pool for ldr above
  .ltorg

  .cfi_endproc

3:
  .word _libharfbuzz_so_tramp_table - (2b + 8) + 8

/*
 * Copyright 2018-2025 Yury Gribov
 *
 * The MIT License (MIT)
 *
 * Use of this source code is governed by MIT license that can be
 * found in the LICENSE.txt file.
 */

  .globl hb_aat_layout_has_positioning
  .p2align 4
  .type hb_aat_layout_has_positioning, %function
#ifndef IMPLIB_EXPORT_SHIMS
  .hidden hb_aat_layout_has_positioning
#endif
hb_aat_layout_has_positioning:
  .cfi_startproc

1:
  // Load address
  // TODO: can we do this faster on newer ARMs?
  ldr ip, 3f
2:
  add ip, pc, ip
  ldr ip, [ip]

  cmp ip, #0

  // Fast path
  bxne ip

  // Slow path
  ldr ip, =3
  push {ip}
  .cfi_adjust_cfa_offset 4
  PUSH_REG(lr)
  bl _libharfbuzz_so_save_regs_and_resolve
  POP_REG(lr)
  add sp, #4
  .cfi_adjust_cfa_offset -4
  bx ip

  // Force constant pool for ldr above
  .ltorg

  .cfi_endproc

3:
  .word _libharfbuzz_so_tramp_table - (2b + 8) + 12

/*
 * Copyright 2018-2025 Yury Gribov
 *
 * The MIT License (MIT)
 *
 * Use of this source code is governed by MIT license that can be
 * found in the LICENSE.txt file.
 */

  .globl hb_aat_layout_has_substitution
  .p2align 4
  .type hb_aat_layout_has_substitution, %function
#ifndef IMPLIB_EXPORT_SHIMS
  .hidden hb_aat_layout_has_substitution
#endif
hb_aat_layout_has_substitution:
  .cfi_startproc

1:
  // Load address
  // TODO: can we do this faster on newer ARMs?
  ldr ip, 3f
2:
  add ip, pc, ip
  ldr ip, [ip]

  cmp ip, #0

  // Fast path
  bxne ip

  // Slow path
  ldr ip, =4
  push {ip}
  .cfi_adjust_cfa_offset 4
  PUSH_REG(lr)
  bl _libharfbuzz_so_save_regs_and_resolve
  POP_REG(lr)
  add sp, #4
  .cfi_adjust_cfa_offset -4
  bx ip

  // Force constant pool for ldr above
  .ltorg

  .cfi_endproc

3:
  .word _libharfbuzz_so_tramp_table - (2b + 8) + 16

/*
 * Copyright 2018-2025 Yury Gribov
 *
 * The MIT License (MIT)
 *
 * Use of this source code is governed by MIT license that can be
 * found in the LICENSE.txt file.
 */

  .globl hb_aat_layout_has_tracking
  .p2align 4
  .type hb_aat_layout_has_tracking, %function
#ifndef IMPLIB_EXPORT_SHIMS
  .hidden hb_aat_layout_has_tracking
#endif
hb_aat_layout_has_tracking:
  .cfi_startproc

1:
  // Load address
  // TODO: can we do this faster on newer ARMs?
  ldr ip, 3f
2:
  add ip, pc, ip
  ldr ip, [ip]

  cmp ip, #0

  // Fast path
  bxne ip

  // Slow path
  ldr ip, =5
  push {ip}
  .cfi_adjust_cfa_offset 4
  PUSH_REG(lr)
  bl _libharfbuzz_so_save_regs_and_resolve
  POP_REG(lr)
  add sp, #4
  .cfi_adjust_cfa_offset -4
  bx ip

  // Force constant pool for ldr above
  .ltorg

  .cfi_endproc

3:
  .word _libharfbuzz_so_tramp_table - (2b + 8) + 20

/*
 * Copyright 2018-2025 Yury Gribov
 *
 * The MIT License (MIT)
 *
 * Use of this source code is governed by MIT license that can be
 * found in the LICENSE.txt file.
 */

  .globl hb_blob_copy_writable_or_fail
  .p2align 4
  .type hb_blob_copy_writable_or_fail, %function
#ifndef IMPLIB_EXPORT_SHIMS
  .hidden hb_blob_copy_writable_or_fail
#endif
hb_blob_copy_writable_or_fail:
  .cfi_startproc

1:
  // Load address
  // TODO: can we do this faster on newer ARMs?
  ldr ip, 3f
2:
  add ip, pc, ip
  ldr ip, [ip]

  cmp ip, #0

  // Fast path
  bxne ip

  // Slow path
  ldr ip, =6
  push {ip}
  .cfi_adjust_cfa_offset 4
  PUSH_REG(lr)
  bl _libharfbuzz_so_save_regs_and_resolve
  POP_REG(lr)
  add sp, #4
  .cfi_adjust_cfa_offset -4
  bx ip

  // Force constant pool for ldr above
  .ltorg

  .cfi_endproc

3:
  .word _libharfbuzz_so_tramp_table - (2b + 8) + 24

/*
 * Copyright 2018-2025 Yury Gribov
 *
 * The MIT License (MIT)
 *
 * Use of this source code is governed by MIT license that can be
 * found in the LICENSE.txt file.
 */

  .globl hb_blob_create
  .p2align 4
  .type hb_blob_create, %function
#ifndef IMPLIB_EXPORT_SHIMS
  .hidden hb_blob_create
#endif
hb_blob_create:
  .cfi_startproc

1:
  // Load address
  // TODO: can we do this faster on newer ARMs?
  ldr ip, 3f
2:
  add ip, pc, ip
  ldr ip, [ip]

  cmp ip, #0

  // Fast path
  bxne ip

  // Slow path
  ldr ip, =7
  push {ip}
  .cfi_adjust_cfa_offset 4
  PUSH_REG(lr)
  bl _libharfbuzz_so_save_regs_and_resolve
  POP_REG(lr)
  add sp, #4
  .cfi_adjust_cfa_offset -4
  bx ip

  // Force constant pool for ldr above
  .ltorg

  .cfi_endproc

3:
  .word _libharfbuzz_so_tramp_table - (2b + 8) + 28

/*
 * Copyright 2018-2025 Yury Gribov
 *
 * The MIT License (MIT)
 *
 * Use of this source code is governed by MIT license that can be
 * found in the LICENSE.txt file.
 */

  .globl hb_blob_create_from_file
  .p2align 4
  .type hb_blob_create_from_file, %function
#ifndef IMPLIB_EXPORT_SHIMS
  .hidden hb_blob_create_from_file
#endif
hb_blob_create_from_file:
  .cfi_startproc

1:
  // Load address
  // TODO: can we do this faster on newer ARMs?
  ldr ip, 3f
2:
  add ip, pc, ip
  ldr ip, [ip]

  cmp ip, #0

  // Fast path
  bxne ip

  // Slow path
  ldr ip, =8
  push {ip}
  .cfi_adjust_cfa_offset 4
  PUSH_REG(lr)
  bl _libharfbuzz_so_save_regs_and_resolve
  POP_REG(lr)
  add sp, #4
  .cfi_adjust_cfa_offset -4
  bx ip

  // Force constant pool for ldr above
  .ltorg

  .cfi_endproc

3:
  .word _libharfbuzz_so_tramp_table - (2b + 8) + 32

/*
 * Copyright 2018-2025 Yury Gribov
 *
 * The MIT License (MIT)
 *
 * Use of this source code is governed by MIT license that can be
 * found in the LICENSE.txt file.
 */

  .globl hb_blob_create_from_file_or_fail
  .p2align 4
  .type hb_blob_create_from_file_or_fail, %function
#ifndef IMPLIB_EXPORT_SHIMS
  .hidden hb_blob_create_from_file_or_fail
#endif
hb_blob_create_from_file_or_fail:
  .cfi_startproc

1:
  // Load address
  // TODO: can we do this faster on newer ARMs?
  ldr ip, 3f
2:
  add ip, pc, ip
  ldr ip, [ip]

  cmp ip, #0

  // Fast path
  bxne ip

  // Slow path
  ldr ip, =9
  push {ip}
  .cfi_adjust_cfa_offset 4
  PUSH_REG(lr)
  bl _libharfbuzz_so_save_regs_and_resolve
  POP_REG(lr)
  add sp, #4
  .cfi_adjust_cfa_offset -4
  bx ip

  // Force constant pool for ldr above
  .ltorg

  .cfi_endproc

3:
  .word _libharfbuzz_so_tramp_table - (2b + 8) + 36

/*
 * Copyright 2018-2025 Yury Gribov
 *
 * The MIT License (MIT)
 *
 * Use of this source code is governed by MIT license that can be
 * found in the LICENSE.txt file.
 */

  .globl hb_blob_create_or_fail
  .p2align 4
  .type hb_blob_create_or_fail, %function
#ifndef IMPLIB_EXPORT_SHIMS
  .hidden hb_blob_create_or_fail
#endif
hb_blob_create_or_fail:
  .cfi_startproc

1:
  // Load address
  // TODO: can we do this faster on newer ARMs?
  ldr ip, 3f
2:
  add ip, pc, ip
  ldr ip, [ip]

  cmp ip, #0

  // Fast path
  bxne ip

  // Slow path
  ldr ip, =10
  push {ip}
  .cfi_adjust_cfa_offset 4
  PUSH_REG(lr)
  bl _libharfbuzz_so_save_regs_and_resolve
  POP_REG(lr)
  add sp, #4
  .cfi_adjust_cfa_offset -4
  bx ip

  // Force constant pool for ldr above
  .ltorg

  .cfi_endproc

3:
  .word _libharfbuzz_so_tramp_table - (2b + 8) + 40

/*
 * Copyright 2018-2025 Yury Gribov
 *
 * The MIT License (MIT)
 *
 * Use of this source code is governed by MIT license that can be
 * found in the LICENSE.txt file.
 */

  .globl hb_blob_create_sub_blob
  .p2align 4
  .type hb_blob_create_sub_blob, %function
#ifndef IMPLIB_EXPORT_SHIMS
  .hidden hb_blob_create_sub_blob
#endif
hb_blob_create_sub_blob:
  .cfi_startproc

1:
  // Load address
  // TODO: can we do this faster on newer ARMs?
  ldr ip, 3f
2:
  add ip, pc, ip
  ldr ip, [ip]

  cmp ip, #0

  // Fast path
  bxne ip

  // Slow path
  ldr ip, =11
  push {ip}
  .cfi_adjust_cfa_offset 4
  PUSH_REG(lr)
  bl _libharfbuzz_so_save_regs_and_resolve
  POP_REG(lr)
  add sp, #4
  .cfi_adjust_cfa_offset -4
  bx ip

  // Force constant pool for ldr above
  .ltorg

  .cfi_endproc

3:
  .word _libharfbuzz_so_tramp_table - (2b + 8) + 44

/*
 * Copyright 2018-2025 Yury Gribov
 *
 * The MIT License (MIT)
 *
 * Use of this source code is governed by MIT license that can be
 * found in the LICENSE.txt file.
 */

  .globl hb_blob_destroy
  .p2align 4
  .type hb_blob_destroy, %function
#ifndef IMPLIB_EXPORT_SHIMS
  .hidden hb_blob_destroy
#endif
hb_blob_destroy:
  .cfi_startproc

1:
  // Load address
  // TODO: can we do this faster on newer ARMs?
  ldr ip, 3f
2:
  add ip, pc, ip
  ldr ip, [ip]

  cmp ip, #0

  // Fast path
  bxne ip

  // Slow path
  ldr ip, =12
  push {ip}
  .cfi_adjust_cfa_offset 4
  PUSH_REG(lr)
  bl _libharfbuzz_so_save_regs_and_resolve
  POP_REG(lr)
  add sp, #4
  .cfi_adjust_cfa_offset -4
  bx ip

  // Force constant pool for ldr above
  .ltorg

  .cfi_endproc

3:
  .word _libharfbuzz_so_tramp_table - (2b + 8) + 48

/*
 * Copyright 2018-2025 Yury Gribov
 *
 * The MIT License (MIT)
 *
 * Use of this source code is governed by MIT license that can be
 * found in the LICENSE.txt file.
 */

  .globl hb_blob_get_data
  .p2align 4
  .type hb_blob_get_data, %function
#ifndef IMPLIB_EXPORT_SHIMS
  .hidden hb_blob_get_data
#endif
hb_blob_get_data:
  .cfi_startproc

1:
  // Load address
  // TODO: can we do this faster on newer ARMs?
  ldr ip, 3f
2:
  add ip, pc, ip
  ldr ip, [ip]

  cmp ip, #0

  // Fast path
  bxne ip

  // Slow path
  ldr ip, =13
  push {ip}
  .cfi_adjust_cfa_offset 4
  PUSH_REG(lr)
  bl _libharfbuzz_so_save_regs_and_resolve
  POP_REG(lr)
  add sp, #4
  .cfi_adjust_cfa_offset -4
  bx ip

  // Force constant pool for ldr above
  .ltorg

  .cfi_endproc

3:
  .word _libharfbuzz_so_tramp_table - (2b + 8) + 52

/*
 * Copyright 2018-2025 Yury Gribov
 *
 * The MIT License (MIT)
 *
 * Use of this source code is governed by MIT license that can be
 * found in the LICENSE.txt file.
 */

  .globl hb_blob_get_data_writable
  .p2align 4
  .type hb_blob_get_data_writable, %function
#ifndef IMPLIB_EXPORT_SHIMS
  .hidden hb_blob_get_data_writable
#endif
hb_blob_get_data_writable:
  .cfi_startproc

1:
  // Load address
  // TODO: can we do this faster on newer ARMs?
  ldr ip, 3f
2:
  add ip, pc, ip
  ldr ip, [ip]

  cmp ip, #0

  // Fast path
  bxne ip

  // Slow path
  ldr ip, =14
  push {ip}
  .cfi_adjust_cfa_offset 4
  PUSH_REG(lr)
  bl _libharfbuzz_so_save_regs_and_resolve
  POP_REG(lr)
  add sp, #4
  .cfi_adjust_cfa_offset -4
  bx ip

  // Force constant pool for ldr above
  .ltorg

  .cfi_endproc

3:
  .word _libharfbuzz_so_tramp_table - (2b + 8) + 56

/*
 * Copyright 2018-2025 Yury Gribov
 *
 * The MIT License (MIT)
 *
 * Use of this source code is governed by MIT license that can be
 * found in the LICENSE.txt file.
 */

  .globl hb_blob_get_empty
  .p2align 4
  .type hb_blob_get_empty, %function
#ifndef IMPLIB_EXPORT_SHIMS
  .hidden hb_blob_get_empty
#endif
hb_blob_get_empty:
  .cfi_startproc

1:
  // Load address
  // TODO: can we do this faster on newer ARMs?
  ldr ip, 3f
2:
  add ip, pc, ip
  ldr ip, [ip]

  cmp ip, #0

  // Fast path
  bxne ip

  // Slow path
  ldr ip, =15
  push {ip}
  .cfi_adjust_cfa_offset 4
  PUSH_REG(lr)
  bl _libharfbuzz_so_save_regs_and_resolve
  POP_REG(lr)
  add sp, #4
  .cfi_adjust_cfa_offset -4
  bx ip

  // Force constant pool for ldr above
  .ltorg

  .cfi_endproc

3:
  .word _libharfbuzz_so_tramp_table - (2b + 8) + 60

/*
 * Copyright 2018-2025 Yury Gribov
 *
 * The MIT License (MIT)
 *
 * Use of this source code is governed by MIT license that can be
 * found in the LICENSE.txt file.
 */

  .globl hb_blob_get_length
  .p2align 4
  .type hb_blob_get_length, %function
#ifndef IMPLIB_EXPORT_SHIMS
  .hidden hb_blob_get_length
#endif
hb_blob_get_length:
  .cfi_startproc

1:
  // Load address
  // TODO: can we do this faster on newer ARMs?
  ldr ip, 3f
2:
  add ip, pc, ip
  ldr ip, [ip]

  cmp ip, #0

  // Fast path
  bxne ip

  // Slow path
  ldr ip, =16
  push {ip}
  .cfi_adjust_cfa_offset 4
  PUSH_REG(lr)
  bl _libharfbuzz_so_save_regs_and_resolve
  POP_REG(lr)
  add sp, #4
  .cfi_adjust_cfa_offset -4
  bx ip

  // Force constant pool for ldr above
  .ltorg

  .cfi_endproc

3:
  .word _libharfbuzz_so_tramp_table - (2b + 8) + 64

/*
 * Copyright 2018-2025 Yury Gribov
 *
 * The MIT License (MIT)
 *
 * Use of this source code is governed by MIT license that can be
 * found in the LICENSE.txt file.
 */

  .globl hb_blob_get_user_data
  .p2align 4
  .type hb_blob_get_user_data, %function
#ifndef IMPLIB_EXPORT_SHIMS
  .hidden hb_blob_get_user_data
#endif
hb_blob_get_user_data:
  .cfi_startproc

1:
  // Load address
  // TODO: can we do this faster on newer ARMs?
  ldr ip, 3f
2:
  add ip, pc, ip
  ldr ip, [ip]

  cmp ip, #0

  // Fast path
  bxne ip

  // Slow path
  ldr ip, =17
  push {ip}
  .cfi_adjust_cfa_offset 4
  PUSH_REG(lr)
  bl _libharfbuzz_so_save_regs_and_resolve
  POP_REG(lr)
  add sp, #4
  .cfi_adjust_cfa_offset -4
  bx ip

  // Force constant pool for ldr above
  .ltorg

  .cfi_endproc

3:
  .word _libharfbuzz_so_tramp_table - (2b + 8) + 68

/*
 * Copyright 2018-2025 Yury Gribov
 *
 * The MIT License (MIT)
 *
 * Use of this source code is governed by MIT license that can be
 * found in the LICENSE.txt file.
 */

  .globl hb_blob_is_immutable
  .p2align 4
  .type hb_blob_is_immutable, %function
#ifndef IMPLIB_EXPORT_SHIMS
  .hidden hb_blob_is_immutable
#endif
hb_blob_is_immutable:
  .cfi_startproc

1:
  // Load address
  // TODO: can we do this faster on newer ARMs?
  ldr ip, 3f
2:
  add ip, pc, ip
  ldr ip, [ip]

  cmp ip, #0

  // Fast path
  bxne ip

  // Slow path
  ldr ip, =18
  push {ip}
  .cfi_adjust_cfa_offset 4
  PUSH_REG(lr)
  bl _libharfbuzz_so_save_regs_and_resolve
  POP_REG(lr)
  add sp, #4
  .cfi_adjust_cfa_offset -4
  bx ip

  // Force constant pool for ldr above
  .ltorg

  .cfi_endproc

3:
  .word _libharfbuzz_so_tramp_table - (2b + 8) + 72

/*
 * Copyright 2018-2025 Yury Gribov
 *
 * The MIT License (MIT)
 *
 * Use of this source code is governed by MIT license that can be
 * found in the LICENSE.txt file.
 */

  .globl hb_blob_make_immutable
  .p2align 4
  .type hb_blob_make_immutable, %function
#ifndef IMPLIB_EXPORT_SHIMS
  .hidden hb_blob_make_immutable
#endif
hb_blob_make_immutable:
  .cfi_startproc

1:
  // Load address
  // TODO: can we do this faster on newer ARMs?
  ldr ip, 3f
2:
  add ip, pc, ip
  ldr ip, [ip]

  cmp ip, #0

  // Fast path
  bxne ip

  // Slow path
  ldr ip, =19
  push {ip}
  .cfi_adjust_cfa_offset 4
  PUSH_REG(lr)
  bl _libharfbuzz_so_save_regs_and_resolve
  POP_REG(lr)
  add sp, #4
  .cfi_adjust_cfa_offset -4
  bx ip

  // Force constant pool for ldr above
  .ltorg

  .cfi_endproc

3:
  .word _libharfbuzz_so_tramp_table - (2b + 8) + 76

/*
 * Copyright 2018-2025 Yury Gribov
 *
 * The MIT License (MIT)
 *
 * Use of this source code is governed by MIT license that can be
 * found in the LICENSE.txt file.
 */

  .globl hb_blob_reference
  .p2align 4
  .type hb_blob_reference, %function
#ifndef IMPLIB_EXPORT_SHIMS
  .hidden hb_blob_reference
#endif
hb_blob_reference:
  .cfi_startproc

1:
  // Load address
  // TODO: can we do this faster on newer ARMs?
  ldr ip, 3f
2:
  add ip, pc, ip
  ldr ip, [ip]

  cmp ip, #0

  // Fast path
  bxne ip

  // Slow path
  ldr ip, =20
  push {ip}
  .cfi_adjust_cfa_offset 4
  PUSH_REG(lr)
  bl _libharfbuzz_so_save_regs_and_resolve
  POP_REG(lr)
  add sp, #4
  .cfi_adjust_cfa_offset -4
  bx ip

  // Force constant pool for ldr above
  .ltorg

  .cfi_endproc

3:
  .word _libharfbuzz_so_tramp_table - (2b + 8) + 80

/*
 * Copyright 2018-2025 Yury Gribov
 *
 * The MIT License (MIT)
 *
 * Use of this source code is governed by MIT license that can be
 * found in the LICENSE.txt file.
 */

  .globl hb_blob_set_user_data
  .p2align 4
  .type hb_blob_set_user_data, %function
#ifndef IMPLIB_EXPORT_SHIMS
  .hidden hb_blob_set_user_data
#endif
hb_blob_set_user_data:
  .cfi_startproc

1:
  // Load address
  // TODO: can we do this faster on newer ARMs?
  ldr ip, 3f
2:
  add ip, pc, ip
  ldr ip, [ip]

  cmp ip, #0

  // Fast path
  bxne ip

  // Slow path
  ldr ip, =21
  push {ip}
  .cfi_adjust_cfa_offset 4
  PUSH_REG(lr)
  bl _libharfbuzz_so_save_regs_and_resolve
  POP_REG(lr)
  add sp, #4
  .cfi_adjust_cfa_offset -4
  bx ip

  // Force constant pool for ldr above
  .ltorg

  .cfi_endproc

3:
  .word _libharfbuzz_so_tramp_table - (2b + 8) + 84

/*
 * Copyright 2018-2025 Yury Gribov
 *
 * The MIT License (MIT)
 *
 * Use of this source code is governed by MIT license that can be
 * found in the LICENSE.txt file.
 */

  .globl hb_buffer_add
  .p2align 4
  .type hb_buffer_add, %function
#ifndef IMPLIB_EXPORT_SHIMS
  .hidden hb_buffer_add
#endif
hb_buffer_add:
  .cfi_startproc

1:
  // Load address
  // TODO: can we do this faster on newer ARMs?
  ldr ip, 3f
2:
  add ip, pc, ip
  ldr ip, [ip]

  cmp ip, #0

  // Fast path
  bxne ip

  // Slow path
  ldr ip, =22
  push {ip}
  .cfi_adjust_cfa_offset 4
  PUSH_REG(lr)
  bl _libharfbuzz_so_save_regs_and_resolve
  POP_REG(lr)
  add sp, #4
  .cfi_adjust_cfa_offset -4
  bx ip

  // Force constant pool for ldr above
  .ltorg

  .cfi_endproc

3:
  .word _libharfbuzz_so_tramp_table - (2b + 8) + 88

/*
 * Copyright 2018-2025 Yury Gribov
 *
 * The MIT License (MIT)
 *
 * Use of this source code is governed by MIT license that can be
 * found in the LICENSE.txt file.
 */

  .globl hb_buffer_add_codepoints
  .p2align 4
  .type hb_buffer_add_codepoints, %function
#ifndef IMPLIB_EXPORT_SHIMS
  .hidden hb_buffer_add_codepoints
#endif
hb_buffer_add_codepoints:
  .cfi_startproc

1:
  // Load address
  // TODO: can we do this faster on newer ARMs?
  ldr ip, 3f
2:
  add ip, pc, ip
  ldr ip, [ip]

  cmp ip, #0

  // Fast path
  bxne ip

  // Slow path
  ldr ip, =23
  push {ip}
  .cfi_adjust_cfa_offset 4
  PUSH_REG(lr)
  bl _libharfbuzz_so_save_regs_and_resolve
  POP_REG(lr)
  add sp, #4
  .cfi_adjust_cfa_offset -4
  bx ip

  // Force constant pool for ldr above
  .ltorg

  .cfi_endproc

3:
  .word _libharfbuzz_so_tramp_table - (2b + 8) + 92

/*
 * Copyright 2018-2025 Yury Gribov
 *
 * The MIT License (MIT)
 *
 * Use of this source code is governed by MIT license that can be
 * found in the LICENSE.txt file.
 */

  .globl hb_buffer_add_latin1
  .p2align 4
  .type hb_buffer_add_latin1, %function
#ifndef IMPLIB_EXPORT_SHIMS
  .hidden hb_buffer_add_latin1
#endif
hb_buffer_add_latin1:
  .cfi_startproc

1:
  // Load address
  // TODO: can we do this faster on newer ARMs?
  ldr ip, 3f
2:
  add ip, pc, ip
  ldr ip, [ip]

  cmp ip, #0

  // Fast path
  bxne ip

  // Slow path
  ldr ip, =24
  push {ip}
  .cfi_adjust_cfa_offset 4
  PUSH_REG(lr)
  bl _libharfbuzz_so_save_regs_and_resolve
  POP_REG(lr)
  add sp, #4
  .cfi_adjust_cfa_offset -4
  bx ip

  // Force constant pool for ldr above
  .ltorg

  .cfi_endproc

3:
  .word _libharfbuzz_so_tramp_table - (2b + 8) + 96

/*
 * Copyright 2018-2025 Yury Gribov
 *
 * The MIT License (MIT)
 *
 * Use of this source code is governed by MIT license that can be
 * found in the LICENSE.txt file.
 */

  .globl hb_buffer_add_utf16
  .p2align 4
  .type hb_buffer_add_utf16, %function
#ifndef IMPLIB_EXPORT_SHIMS
  .hidden hb_buffer_add_utf16
#endif
hb_buffer_add_utf16:
  .cfi_startproc

1:
  // Load address
  // TODO: can we do this faster on newer ARMs?
  ldr ip, 3f
2:
  add ip, pc, ip
  ldr ip, [ip]

  cmp ip, #0

  // Fast path
  bxne ip

  // Slow path
  ldr ip, =25
  push {ip}
  .cfi_adjust_cfa_offset 4
  PUSH_REG(lr)
  bl _libharfbuzz_so_save_regs_and_resolve
  POP_REG(lr)
  add sp, #4
  .cfi_adjust_cfa_offset -4
  bx ip

  // Force constant pool for ldr above
  .ltorg

  .cfi_endproc

3:
  .word _libharfbuzz_so_tramp_table - (2b + 8) + 100

/*
 * Copyright 2018-2025 Yury Gribov
 *
 * The MIT License (MIT)
 *
 * Use of this source code is governed by MIT license that can be
 * found in the LICENSE.txt file.
 */

  .globl hb_buffer_add_utf32
  .p2align 4
  .type hb_buffer_add_utf32, %function
#ifndef IMPLIB_EXPORT_SHIMS
  .hidden hb_buffer_add_utf32
#endif
hb_buffer_add_utf32:
  .cfi_startproc

1:
  // Load address
  // TODO: can we do this faster on newer ARMs?
  ldr ip, 3f
2:
  add ip, pc, ip
  ldr ip, [ip]

  cmp ip, #0

  // Fast path
  bxne ip

  // Slow path
  ldr ip, =26
  push {ip}
  .cfi_adjust_cfa_offset 4
  PUSH_REG(lr)
  bl _libharfbuzz_so_save_regs_and_resolve
  POP_REG(lr)
  add sp, #4
  .cfi_adjust_cfa_offset -4
  bx ip

  // Force constant pool for ldr above
  .ltorg

  .cfi_endproc

3:
  .word _libharfbuzz_so_tramp_table - (2b + 8) + 104

/*
 * Copyright 2018-2025 Yury Gribov
 *
 * The MIT License (MIT)
 *
 * Use of this source code is governed by MIT license that can be
 * found in the LICENSE.txt file.
 */

  .globl hb_buffer_add_utf8
  .p2align 4
  .type hb_buffer_add_utf8, %function
#ifndef IMPLIB_EXPORT_SHIMS
  .hidden hb_buffer_add_utf8
#endif
hb_buffer_add_utf8:
  .cfi_startproc

1:
  // Load address
  // TODO: can we do this faster on newer ARMs?
  ldr ip, 3f
2:
  add ip, pc, ip
  ldr ip, [ip]

  cmp ip, #0

  // Fast path
  bxne ip

  // Slow path
  ldr ip, =27
  push {ip}
  .cfi_adjust_cfa_offset 4
  PUSH_REG(lr)
  bl _libharfbuzz_so_save_regs_and_resolve
  POP_REG(lr)
  add sp, #4
  .cfi_adjust_cfa_offset -4
  bx ip

  // Force constant pool for ldr above
  .ltorg

  .cfi_endproc

3:
  .word _libharfbuzz_so_tramp_table - (2b + 8) + 108

/*
 * Copyright 2018-2025 Yury Gribov
 *
 * The MIT License (MIT)
 *
 * Use of this source code is governed by MIT license that can be
 * found in the LICENSE.txt file.
 */

  .globl hb_buffer_allocation_successful
  .p2align 4
  .type hb_buffer_allocation_successful, %function
#ifndef IMPLIB_EXPORT_SHIMS
  .hidden hb_buffer_allocation_successful
#endif
hb_buffer_allocation_successful:
  .cfi_startproc

1:
  // Load address
  // TODO: can we do this faster on newer ARMs?
  ldr ip, 3f
2:
  add ip, pc, ip
  ldr ip, [ip]

  cmp ip, #0

  // Fast path
  bxne ip

  // Slow path
  ldr ip, =28
  push {ip}
  .cfi_adjust_cfa_offset 4
  PUSH_REG(lr)
  bl _libharfbuzz_so_save_regs_and_resolve
  POP_REG(lr)
  add sp, #4
  .cfi_adjust_cfa_offset -4
  bx ip

  // Force constant pool for ldr above
  .ltorg

  .cfi_endproc

3:
  .word _libharfbuzz_so_tramp_table - (2b + 8) + 112

/*
 * Copyright 2018-2025 Yury Gribov
 *
 * The MIT License (MIT)
 *
 * Use of this source code is governed by MIT license that can be
 * found in the LICENSE.txt file.
 */

  .globl hb_buffer_append
  .p2align 4
  .type hb_buffer_append, %function
#ifndef IMPLIB_EXPORT_SHIMS
  .hidden hb_buffer_append
#endif
hb_buffer_append:
  .cfi_startproc

1:
  // Load address
  // TODO: can we do this faster on newer ARMs?
  ldr ip, 3f
2:
  add ip, pc, ip
  ldr ip, [ip]

  cmp ip, #0

  // Fast path
  bxne ip

  // Slow path
  ldr ip, =29
  push {ip}
  .cfi_adjust_cfa_offset 4
  PUSH_REG(lr)
  bl _libharfbuzz_so_save_regs_and_resolve
  POP_REG(lr)
  add sp, #4
  .cfi_adjust_cfa_offset -4
  bx ip

  // Force constant pool for ldr above
  .ltorg

  .cfi_endproc

3:
  .word _libharfbuzz_so_tramp_table - (2b + 8) + 116

/*
 * Copyright 2018-2025 Yury Gribov
 *
 * The MIT License (MIT)
 *
 * Use of this source code is governed by MIT license that can be
 * found in the LICENSE.txt file.
 */

  .globl hb_buffer_clear_contents
  .p2align 4
  .type hb_buffer_clear_contents, %function
#ifndef IMPLIB_EXPORT_SHIMS
  .hidden hb_buffer_clear_contents
#endif
hb_buffer_clear_contents:
  .cfi_startproc

1:
  // Load address
  // TODO: can we do this faster on newer ARMs?
  ldr ip, 3f
2:
  add ip, pc, ip
  ldr ip, [ip]

  cmp ip, #0

  // Fast path
  bxne ip

  // Slow path
  ldr ip, =30
  push {ip}
  .cfi_adjust_cfa_offset 4
  PUSH_REG(lr)
  bl _libharfbuzz_so_save_regs_and_resolve
  POP_REG(lr)
  add sp, #4
  .cfi_adjust_cfa_offset -4
  bx ip

  // Force constant pool for ldr above
  .ltorg

  .cfi_endproc

3:
  .word _libharfbuzz_so_tramp_table - (2b + 8) + 120

/*
 * Copyright 2018-2025 Yury Gribov
 *
 * The MIT License (MIT)
 *
 * Use of this source code is governed by MIT license that can be
 * found in the LICENSE.txt file.
 */

  .globl hb_buffer_create
  .p2align 4
  .type hb_buffer_create, %function
#ifndef IMPLIB_EXPORT_SHIMS
  .hidden hb_buffer_create
#endif
hb_buffer_create:
  .cfi_startproc

1:
  // Load address
  // TODO: can we do this faster on newer ARMs?
  ldr ip, 3f
2:
  add ip, pc, ip
  ldr ip, [ip]

  cmp ip, #0

  // Fast path
  bxne ip

  // Slow path
  ldr ip, =31
  push {ip}
  .cfi_adjust_cfa_offset 4
  PUSH_REG(lr)
  bl _libharfbuzz_so_save_regs_and_resolve
  POP_REG(lr)
  add sp, #4
  .cfi_adjust_cfa_offset -4
  bx ip

  // Force constant pool for ldr above
  .ltorg

  .cfi_endproc

3:
  .word _libharfbuzz_so_tramp_table - (2b + 8) + 124

/*
 * Copyright 2018-2025 Yury Gribov
 *
 * The MIT License (MIT)
 *
 * Use of this source code is governed by MIT license that can be
 * found in the LICENSE.txt file.
 */

  .globl hb_buffer_create_similar
  .p2align 4
  .type hb_buffer_create_similar, %function
#ifndef IMPLIB_EXPORT_SHIMS
  .hidden hb_buffer_create_similar
#endif
hb_buffer_create_similar:
  .cfi_startproc

1:
  // Load address
  // TODO: can we do this faster on newer ARMs?
  ldr ip, 3f
2:
  add ip, pc, ip
  ldr ip, [ip]

  cmp ip, #0

  // Fast path
  bxne ip

  // Slow path
  ldr ip, =32
  push {ip}
  .cfi_adjust_cfa_offset 4
  PUSH_REG(lr)
  bl _libharfbuzz_so_save_regs_and_resolve
  POP_REG(lr)
  add sp, #4
  .cfi_adjust_cfa_offset -4
  bx ip

  // Force constant pool for ldr above
  .ltorg

  .cfi_endproc

3:
  .word _libharfbuzz_so_tramp_table - (2b + 8) + 128

/*
 * Copyright 2018-2025 Yury Gribov
 *
 * The MIT License (MIT)
 *
 * Use of this source code is governed by MIT license that can be
 * found in the LICENSE.txt file.
 */

  .globl hb_buffer_deserialize_glyphs
  .p2align 4
  .type hb_buffer_deserialize_glyphs, %function
#ifndef IMPLIB_EXPORT_SHIMS
  .hidden hb_buffer_deserialize_glyphs
#endif
hb_buffer_deserialize_glyphs:
  .cfi_startproc

1:
  // Load address
  // TODO: can we do this faster on newer ARMs?
  ldr ip, 3f
2:
  add ip, pc, ip
  ldr ip, [ip]

  cmp ip, #0

  // Fast path
  bxne ip

  // Slow path
  ldr ip, =33
  push {ip}
  .cfi_adjust_cfa_offset 4
  PUSH_REG(lr)
  bl _libharfbuzz_so_save_regs_and_resolve
  POP_REG(lr)
  add sp, #4
  .cfi_adjust_cfa_offset -4
  bx ip

  // Force constant pool for ldr above
  .ltorg

  .cfi_endproc

3:
  .word _libharfbuzz_so_tramp_table - (2b + 8) + 132

/*
 * Copyright 2018-2025 Yury Gribov
 *
 * The MIT License (MIT)
 *
 * Use of this source code is governed by MIT license that can be
 * found in the LICENSE.txt file.
 */

  .globl hb_buffer_deserialize_unicode
  .p2align 4
  .type hb_buffer_deserialize_unicode, %function
#ifndef IMPLIB_EXPORT_SHIMS
  .hidden hb_buffer_deserialize_unicode
#endif
hb_buffer_deserialize_unicode:
  .cfi_startproc

1:
  // Load address
  // TODO: can we do this faster on newer ARMs?
  ldr ip, 3f
2:
  add ip, pc, ip
  ldr ip, [ip]

  cmp ip, #0

  // Fast path
  bxne ip

  // Slow path
  ldr ip, =34
  push {ip}
  .cfi_adjust_cfa_offset 4
  PUSH_REG(lr)
  bl _libharfbuzz_so_save_regs_and_resolve
  POP_REG(lr)
  add sp, #4
  .cfi_adjust_cfa_offset -4
  bx ip

  // Force constant pool for ldr above
  .ltorg

  .cfi_endproc

3:
  .word _libharfbuzz_so_tramp_table - (2b + 8) + 136

/*
 * Copyright 2018-2025 Yury Gribov
 *
 * The MIT License (MIT)
 *
 * Use of this source code is governed by MIT license that can be
 * found in the LICENSE.txt file.
 */

  .globl hb_buffer_destroy
  .p2align 4
  .type hb_buffer_destroy, %function
#ifndef IMPLIB_EXPORT_SHIMS
  .hidden hb_buffer_destroy
#endif
hb_buffer_destroy:
  .cfi_startproc

1:
  // Load address
  // TODO: can we do this faster on newer ARMs?
  ldr ip, 3f
2:
  add ip, pc, ip
  ldr ip, [ip]

  cmp ip, #0

  // Fast path
  bxne ip

  // Slow path
  ldr ip, =35
  push {ip}
  .cfi_adjust_cfa_offset 4
  PUSH_REG(lr)
  bl _libharfbuzz_so_save_regs_and_resolve
  POP_REG(lr)
  add sp, #4
  .cfi_adjust_cfa_offset -4
  bx ip

  // Force constant pool for ldr above
  .ltorg

  .cfi_endproc

3:
  .word _libharfbuzz_so_tramp_table - (2b + 8) + 140

/*
 * Copyright 2018-2025 Yury Gribov
 *
 * The MIT License (MIT)
 *
 * Use of this source code is governed by MIT license that can be
 * found in the LICENSE.txt file.
 */

  .globl hb_buffer_diff
  .p2align 4
  .type hb_buffer_diff, %function
#ifndef IMPLIB_EXPORT_SHIMS
  .hidden hb_buffer_diff
#endif
hb_buffer_diff:
  .cfi_startproc

1:
  // Load address
  // TODO: can we do this faster on newer ARMs?
  ldr ip, 3f
2:
  add ip, pc, ip
  ldr ip, [ip]

  cmp ip, #0

  // Fast path
  bxne ip

  // Slow path
  ldr ip, =36
  push {ip}
  .cfi_adjust_cfa_offset 4
  PUSH_REG(lr)
  bl _libharfbuzz_so_save_regs_and_resolve
  POP_REG(lr)
  add sp, #4
  .cfi_adjust_cfa_offset -4
  bx ip

  // Force constant pool for ldr above
  .ltorg

  .cfi_endproc

3:
  .word _libharfbuzz_so_tramp_table - (2b + 8) + 144

/*
 * Copyright 2018-2025 Yury Gribov
 *
 * The MIT License (MIT)
 *
 * Use of this source code is governed by MIT license that can be
 * found in the LICENSE.txt file.
 */

  .globl hb_buffer_get_cluster_level
  .p2align 4
  .type hb_buffer_get_cluster_level, %function
#ifndef IMPLIB_EXPORT_SHIMS
  .hidden hb_buffer_get_cluster_level
#endif
hb_buffer_get_cluster_level:
  .cfi_startproc

1:
  // Load address
  // TODO: can we do this faster on newer ARMs?
  ldr ip, 3f
2:
  add ip, pc, ip
  ldr ip, [ip]

  cmp ip, #0

  // Fast path
  bxne ip

  // Slow path
  ldr ip, =37
  push {ip}
  .cfi_adjust_cfa_offset 4
  PUSH_REG(lr)
  bl _libharfbuzz_so_save_regs_and_resolve
  POP_REG(lr)
  add sp, #4
  .cfi_adjust_cfa_offset -4
  bx ip

  // Force constant pool for ldr above
  .ltorg

  .cfi_endproc

3:
  .word _libharfbuzz_so_tramp_table - (2b + 8) + 148

/*
 * Copyright 2018-2025 Yury Gribov
 *
 * The MIT License (MIT)
 *
 * Use of this source code is governed by MIT license that can be
 * found in the LICENSE.txt file.
 */

  .globl hb_buffer_get_content_type
  .p2align 4
  .type hb_buffer_get_content_type, %function
#ifndef IMPLIB_EXPORT_SHIMS
  .hidden hb_buffer_get_content_type
#endif
hb_buffer_get_content_type:
  .cfi_startproc

1:
  // Load address
  // TODO: can we do this faster on newer ARMs?
  ldr ip, 3f
2:
  add ip, pc, ip
  ldr ip, [ip]

  cmp ip, #0

  // Fast path
  bxne ip

  // Slow path
  ldr ip, =38
  push {ip}
  .cfi_adjust_cfa_offset 4
  PUSH_REG(lr)
  bl _libharfbuzz_so_save_regs_and_resolve
  POP_REG(lr)
  add sp, #4
  .cfi_adjust_cfa_offset -4
  bx ip

  // Force constant pool for ldr above
  .ltorg

  .cfi_endproc

3:
  .word _libharfbuzz_so_tramp_table - (2b + 8) + 152

/*
 * Copyright 2018-2025 Yury Gribov
 *
 * The MIT License (MIT)
 *
 * Use of this source code is governed by MIT license that can be
 * found in the LICENSE.txt file.
 */

  .globl hb_buffer_get_direction
  .p2align 4
  .type hb_buffer_get_direction, %function
#ifndef IMPLIB_EXPORT_SHIMS
  .hidden hb_buffer_get_direction
#endif
hb_buffer_get_direction:
  .cfi_startproc

1:
  // Load address
  // TODO: can we do this faster on newer ARMs?
  ldr ip, 3f
2:
  add ip, pc, ip
  ldr ip, [ip]

  cmp ip, #0

  // Fast path
  bxne ip

  // Slow path
  ldr ip, =39
  push {ip}
  .cfi_adjust_cfa_offset 4
  PUSH_REG(lr)
  bl _libharfbuzz_so_save_regs_and_resolve
  POP_REG(lr)
  add sp, #4
  .cfi_adjust_cfa_offset -4
  bx ip

  // Force constant pool for ldr above
  .ltorg

  .cfi_endproc

3:
  .word _libharfbuzz_so_tramp_table - (2b + 8) + 156

/*
 * Copyright 2018-2025 Yury Gribov
 *
 * The MIT License (MIT)
 *
 * Use of this source code is governed by MIT license that can be
 * found in the LICENSE.txt file.
 */

  .globl hb_buffer_get_empty
  .p2align 4
  .type hb_buffer_get_empty, %function
#ifndef IMPLIB_EXPORT_SHIMS
  .hidden hb_buffer_get_empty
#endif
hb_buffer_get_empty:
  .cfi_startproc

1:
  // Load address
  // TODO: can we do this faster on newer ARMs?
  ldr ip, 3f
2:
  add ip, pc, ip
  ldr ip, [ip]

  cmp ip, #0

  // Fast path
  bxne ip

  // Slow path
  ldr ip, =40
  push {ip}
  .cfi_adjust_cfa_offset 4
  PUSH_REG(lr)
  bl _libharfbuzz_so_save_regs_and_resolve
  POP_REG(lr)
  add sp, #4
  .cfi_adjust_cfa_offset -4
  bx ip

  // Force constant pool for ldr above
  .ltorg

  .cfi_endproc

3:
  .word _libharfbuzz_so_tramp_table - (2b + 8) + 160

/*
 * Copyright 2018-2025 Yury Gribov
 *
 * The MIT License (MIT)
 *
 * Use of this source code is governed by MIT license that can be
 * found in the LICENSE.txt file.
 */

  .globl hb_buffer_get_flags
  .p2align 4
  .type hb_buffer_get_flags, %function
#ifndef IMPLIB_EXPORT_SHIMS
  .hidden hb_buffer_get_flags
#endif
hb_buffer_get_flags:
  .cfi_startproc

1:
  // Load address
  // TODO: can we do this faster on newer ARMs?
  ldr ip, 3f
2:
  add ip, pc, ip
  ldr ip, [ip]

  cmp ip, #0

  // Fast path
  bxne ip

  // Slow path
  ldr ip, =41
  push {ip}
  .cfi_adjust_cfa_offset 4
  PUSH_REG(lr)
  bl _libharfbuzz_so_save_regs_and_resolve
  POP_REG(lr)
  add sp, #4
  .cfi_adjust_cfa_offset -4
  bx ip

  // Force constant pool for ldr above
  .ltorg

  .cfi_endproc

3:
  .word _libharfbuzz_so_tramp_table - (2b + 8) + 164

/*
 * Copyright 2018-2025 Yury Gribov
 *
 * The MIT License (MIT)
 *
 * Use of this source code is governed by MIT license that can be
 * found in the LICENSE.txt file.
 */

  .globl hb_buffer_get_glyph_infos
  .p2align 4
  .type hb_buffer_get_glyph_infos, %function
#ifndef IMPLIB_EXPORT_SHIMS
  .hidden hb_buffer_get_glyph_infos
#endif
hb_buffer_get_glyph_infos:
  .cfi_startproc

1:
  // Load address
  // TODO: can we do this faster on newer ARMs?
  ldr ip, 3f
2:
  add ip, pc, ip
  ldr ip, [ip]

  cmp ip, #0

  // Fast path
  bxne ip

  // Slow path
  ldr ip, =42
  push {ip}
  .cfi_adjust_cfa_offset 4
  PUSH_REG(lr)
  bl _libharfbuzz_so_save_regs_and_resolve
  POP_REG(lr)
  add sp, #4
  .cfi_adjust_cfa_offset -4
  bx ip

  // Force constant pool for ldr above
  .ltorg

  .cfi_endproc

3:
  .word _libharfbuzz_so_tramp_table - (2b + 8) + 168

/*
 * Copyright 2018-2025 Yury Gribov
 *
 * The MIT License (MIT)
 *
 * Use of this source code is governed by MIT license that can be
 * found in the LICENSE.txt file.
 */

  .globl hb_buffer_get_glyph_positions
  .p2align 4
  .type hb_buffer_get_glyph_positions, %function
#ifndef IMPLIB_EXPORT_SHIMS
  .hidden hb_buffer_get_glyph_positions
#endif
hb_buffer_get_glyph_positions:
  .cfi_startproc

1:
  // Load address
  // TODO: can we do this faster on newer ARMs?
  ldr ip, 3f
2:
  add ip, pc, ip
  ldr ip, [ip]

  cmp ip, #0

  // Fast path
  bxne ip

  // Slow path
  ldr ip, =43
  push {ip}
  .cfi_adjust_cfa_offset 4
  PUSH_REG(lr)
  bl _libharfbuzz_so_save_regs_and_resolve
  POP_REG(lr)
  add sp, #4
  .cfi_adjust_cfa_offset -4
  bx ip

  // Force constant pool for ldr above
  .ltorg

  .cfi_endproc

3:
  .word _libharfbuzz_so_tramp_table - (2b + 8) + 172

/*
 * Copyright 2018-2025 Yury Gribov
 *
 * The MIT License (MIT)
 *
 * Use of this source code is governed by MIT license that can be
 * found in the LICENSE.txt file.
 */

  .globl hb_buffer_get_invisible_glyph
  .p2align 4
  .type hb_buffer_get_invisible_glyph, %function
#ifndef IMPLIB_EXPORT_SHIMS
  .hidden hb_buffer_get_invisible_glyph
#endif
hb_buffer_get_invisible_glyph:
  .cfi_startproc

1:
  // Load address
  // TODO: can we do this faster on newer ARMs?
  ldr ip, 3f
2:
  add ip, pc, ip
  ldr ip, [ip]

  cmp ip, #0

  // Fast path
  bxne ip

  // Slow path
  ldr ip, =44
  push {ip}
  .cfi_adjust_cfa_offset 4
  PUSH_REG(lr)
  bl _libharfbuzz_so_save_regs_and_resolve
  POP_REG(lr)
  add sp, #4
  .cfi_adjust_cfa_offset -4
  bx ip

  // Force constant pool for ldr above
  .ltorg

  .cfi_endproc

3:
  .word _libharfbuzz_so_tramp_table - (2b + 8) + 176

/*
 * Copyright 2018-2025 Yury Gribov
 *
 * The MIT License (MIT)
 *
 * Use of this source code is governed by MIT license that can be
 * found in the LICENSE.txt file.
 */

  .globl hb_buffer_get_language
  .p2align 4
  .type hb_buffer_get_language, %function
#ifndef IMPLIB_EXPORT_SHIMS
  .hidden hb_buffer_get_language
#endif
hb_buffer_get_language:
  .cfi_startproc

1:
  // Load address
  // TODO: can we do this faster on newer ARMs?
  ldr ip, 3f
2:
  add ip, pc, ip
  ldr ip, [ip]

  cmp ip, #0

  // Fast path
  bxne ip

  // Slow path
  ldr ip, =45
  push {ip}
  .cfi_adjust_cfa_offset 4
  PUSH_REG(lr)
  bl _libharfbuzz_so_save_regs_and_resolve
  POP_REG(lr)
  add sp, #4
  .cfi_adjust_cfa_offset -4
  bx ip

  // Force constant pool for ldr above
  .ltorg

  .cfi_endproc

3:
  .word _libharfbuzz_so_tramp_table - (2b + 8) + 180

/*
 * Copyright 2018-2025 Yury Gribov
 *
 * The MIT License (MIT)
 *
 * Use of this source code is governed by MIT license that can be
 * found in the LICENSE.txt file.
 */

  .globl hb_buffer_get_length
  .p2align 4
  .type hb_buffer_get_length, %function
#ifndef IMPLIB_EXPORT_SHIMS
  .hidden hb_buffer_get_length
#endif
hb_buffer_get_length:
  .cfi_startproc

1:
  // Load address
  // TODO: can we do this faster on newer ARMs?
  ldr ip, 3f
2:
  add ip, pc, ip
  ldr ip, [ip]

  cmp ip, #0

  // Fast path
  bxne ip

  // Slow path
  ldr ip, =46
  push {ip}
  .cfi_adjust_cfa_offset 4
  PUSH_REG(lr)
  bl _libharfbuzz_so_save_regs_and_resolve
  POP_REG(lr)
  add sp, #4
  .cfi_adjust_cfa_offset -4
  bx ip

  // Force constant pool for ldr above
  .ltorg

  .cfi_endproc

3:
  .word _libharfbuzz_so_tramp_table - (2b + 8) + 184

/*
 * Copyright 2018-2025 Yury Gribov
 *
 * The MIT License (MIT)
 *
 * Use of this source code is governed by MIT license that can be
 * found in the LICENSE.txt file.
 */

  .globl hb_buffer_get_not_found_glyph
  .p2align 4
  .type hb_buffer_get_not_found_glyph, %function
#ifndef IMPLIB_EXPORT_SHIMS
  .hidden hb_buffer_get_not_found_glyph
#endif
hb_buffer_get_not_found_glyph:
  .cfi_startproc

1:
  // Load address
  // TODO: can we do this faster on newer ARMs?
  ldr ip, 3f
2:
  add ip, pc, ip
  ldr ip, [ip]

  cmp ip, #0

  // Fast path
  bxne ip

  // Slow path
  ldr ip, =47
  push {ip}
  .cfi_adjust_cfa_offset 4
  PUSH_REG(lr)
  bl _libharfbuzz_so_save_regs_and_resolve
  POP_REG(lr)
  add sp, #4
  .cfi_adjust_cfa_offset -4
  bx ip

  // Force constant pool for ldr above
  .ltorg

  .cfi_endproc

3:
  .word _libharfbuzz_so_tramp_table - (2b + 8) + 188

/*
 * Copyright 2018-2025 Yury Gribov
 *
 * The MIT License (MIT)
 *
 * Use of this source code is governed by MIT license that can be
 * found in the LICENSE.txt file.
 */

  .globl hb_buffer_get_not_found_variation_selector_glyph
  .p2align 4
  .type hb_buffer_get_not_found_variation_selector_glyph, %function
#ifndef IMPLIB_EXPORT_SHIMS
  .hidden hb_buffer_get_not_found_variation_selector_glyph
#endif
hb_buffer_get_not_found_variation_selector_glyph:
  .cfi_startproc

1:
  // Load address
  // TODO: can we do this faster on newer ARMs?
  ldr ip, 3f
2:
  add ip, pc, ip
  ldr ip, [ip]

  cmp ip, #0

  // Fast path
  bxne ip

  // Slow path
  ldr ip, =48
  push {ip}
  .cfi_adjust_cfa_offset 4
  PUSH_REG(lr)
  bl _libharfbuzz_so_save_regs_and_resolve
  POP_REG(lr)
  add sp, #4
  .cfi_adjust_cfa_offset -4
  bx ip

  // Force constant pool for ldr above
  .ltorg

  .cfi_endproc

3:
  .word _libharfbuzz_so_tramp_table - (2b + 8) + 192

/*
 * Copyright 2018-2025 Yury Gribov
 *
 * The MIT License (MIT)
 *
 * Use of this source code is governed by MIT license that can be
 * found in the LICENSE.txt file.
 */

  .globl hb_buffer_get_random_state
  .p2align 4
  .type hb_buffer_get_random_state, %function
#ifndef IMPLIB_EXPORT_SHIMS
  .hidden hb_buffer_get_random_state
#endif
hb_buffer_get_random_state:
  .cfi_startproc

1:
  // Load address
  // TODO: can we do this faster on newer ARMs?
  ldr ip, 3f
2:
  add ip, pc, ip
  ldr ip, [ip]

  cmp ip, #0

  // Fast path
  bxne ip

  // Slow path
  ldr ip, =49
  push {ip}
  .cfi_adjust_cfa_offset 4
  PUSH_REG(lr)
  bl _libharfbuzz_so_save_regs_and_resolve
  POP_REG(lr)
  add sp, #4
  .cfi_adjust_cfa_offset -4
  bx ip

  // Force constant pool for ldr above
  .ltorg

  .cfi_endproc

3:
  .word _libharfbuzz_so_tramp_table - (2b + 8) + 196

/*
 * Copyright 2018-2025 Yury Gribov
 *
 * The MIT License (MIT)
 *
 * Use of this source code is governed by MIT license that can be
 * found in the LICENSE.txt file.
 */

  .globl hb_buffer_get_replacement_codepoint
  .p2align 4
  .type hb_buffer_get_replacement_codepoint, %function
#ifndef IMPLIB_EXPORT_SHIMS
  .hidden hb_buffer_get_replacement_codepoint
#endif
hb_buffer_get_replacement_codepoint:
  .cfi_startproc

1:
  // Load address
  // TODO: can we do this faster on newer ARMs?
  ldr ip, 3f
2:
  add ip, pc, ip
  ldr ip, [ip]

  cmp ip, #0

  // Fast path
  bxne ip

  // Slow path
  ldr ip, =50
  push {ip}
  .cfi_adjust_cfa_offset 4
  PUSH_REG(lr)
  bl _libharfbuzz_so_save_regs_and_resolve
  POP_REG(lr)
  add sp, #4
  .cfi_adjust_cfa_offset -4
  bx ip

  // Force constant pool for ldr above
  .ltorg

  .cfi_endproc

3:
  .word _libharfbuzz_so_tramp_table - (2b + 8) + 200

/*
 * Copyright 2018-2025 Yury Gribov
 *
 * The MIT License (MIT)
 *
 * Use of this source code is governed by MIT license that can be
 * found in the LICENSE.txt file.
 */

  .globl hb_buffer_get_script
  .p2align 4
  .type hb_buffer_get_script, %function
#ifndef IMPLIB_EXPORT_SHIMS
  .hidden hb_buffer_get_script
#endif
hb_buffer_get_script:
  .cfi_startproc

1:
  // Load address
  // TODO: can we do this faster on newer ARMs?
  ldr ip, 3f
2:
  add ip, pc, ip
  ldr ip, [ip]

  cmp ip, #0

  // Fast path
  bxne ip

  // Slow path
  ldr ip, =51
  push {ip}
  .cfi_adjust_cfa_offset 4
  PUSH_REG(lr)
  bl _libharfbuzz_so_save_regs_and_resolve
  POP_REG(lr)
  add sp, #4
  .cfi_adjust_cfa_offset -4
  bx ip

  // Force constant pool for ldr above
  .ltorg

  .cfi_endproc

3:
  .word _libharfbuzz_so_tramp_table - (2b + 8) + 204

/*
 * Copyright 2018-2025 Yury Gribov
 *
 * The MIT License (MIT)
 *
 * Use of this source code is governed by MIT license that can be
 * found in the LICENSE.txt file.
 */

  .globl hb_buffer_get_segment_properties
  .p2align 4
  .type hb_buffer_get_segment_properties, %function
#ifndef IMPLIB_EXPORT_SHIMS
  .hidden hb_buffer_get_segment_properties
#endif
hb_buffer_get_segment_properties:
  .cfi_startproc

1:
  // Load address
  // TODO: can we do this faster on newer ARMs?
  ldr ip, 3f
2:
  add ip, pc, ip
  ldr ip, [ip]

  cmp ip, #0

  // Fast path
  bxne ip

  // Slow path
  ldr ip, =52
  push {ip}
  .cfi_adjust_cfa_offset 4
  PUSH_REG(lr)
  bl _libharfbuzz_so_save_regs_and_resolve
  POP_REG(lr)
  add sp, #4
  .cfi_adjust_cfa_offset -4
  bx ip

  // Force constant pool for ldr above
  .ltorg

  .cfi_endproc

3:
  .word _libharfbuzz_so_tramp_table - (2b + 8) + 208

/*
 * Copyright 2018-2025 Yury Gribov
 *
 * The MIT License (MIT)
 *
 * Use of this source code is governed by MIT license that can be
 * found in the LICENSE.txt file.
 */

  .globl hb_buffer_get_unicode_funcs
  .p2align 4
  .type hb_buffer_get_unicode_funcs, %function
#ifndef IMPLIB_EXPORT_SHIMS
  .hidden hb_buffer_get_unicode_funcs
#endif
hb_buffer_get_unicode_funcs:
  .cfi_startproc

1:
  // Load address
  // TODO: can we do this faster on newer ARMs?
  ldr ip, 3f
2:
  add ip, pc, ip
  ldr ip, [ip]

  cmp ip, #0

  // Fast path
  bxne ip

  // Slow path
  ldr ip, =53
  push {ip}
  .cfi_adjust_cfa_offset 4
  PUSH_REG(lr)
  bl _libharfbuzz_so_save_regs_and_resolve
  POP_REG(lr)
  add sp, #4
  .cfi_adjust_cfa_offset -4
  bx ip

  // Force constant pool for ldr above
  .ltorg

  .cfi_endproc

3:
  .word _libharfbuzz_so_tramp_table - (2b + 8) + 212

/*
 * Copyright 2018-2025 Yury Gribov
 *
 * The MIT License (MIT)
 *
 * Use of this source code is governed by MIT license that can be
 * found in the LICENSE.txt file.
 */

  .globl hb_buffer_get_user_data
  .p2align 4
  .type hb_buffer_get_user_data, %function
#ifndef IMPLIB_EXPORT_SHIMS
  .hidden hb_buffer_get_user_data
#endif
hb_buffer_get_user_data:
  .cfi_startproc

1:
  // Load address
  // TODO: can we do this faster on newer ARMs?
  ldr ip, 3f
2:
  add ip, pc, ip
  ldr ip, [ip]

  cmp ip, #0

  // Fast path
  bxne ip

  // Slow path
  ldr ip, =54
  push {ip}
  .cfi_adjust_cfa_offset 4
  PUSH_REG(lr)
  bl _libharfbuzz_so_save_regs_and_resolve
  POP_REG(lr)
  add sp, #4
  .cfi_adjust_cfa_offset -4
  bx ip

  // Force constant pool for ldr above
  .ltorg

  .cfi_endproc

3:
  .word _libharfbuzz_so_tramp_table - (2b + 8) + 216

/*
 * Copyright 2018-2025 Yury Gribov
 *
 * The MIT License (MIT)
 *
 * Use of this source code is governed by MIT license that can be
 * found in the LICENSE.txt file.
 */

  .globl hb_buffer_guess_segment_properties
  .p2align 4
  .type hb_buffer_guess_segment_properties, %function
#ifndef IMPLIB_EXPORT_SHIMS
  .hidden hb_buffer_guess_segment_properties
#endif
hb_buffer_guess_segment_properties:
  .cfi_startproc

1:
  // Load address
  // TODO: can we do this faster on newer ARMs?
  ldr ip, 3f
2:
  add ip, pc, ip
  ldr ip, [ip]

  cmp ip, #0

  // Fast path
  bxne ip

  // Slow path
  ldr ip, =55
  push {ip}
  .cfi_adjust_cfa_offset 4
  PUSH_REG(lr)
  bl _libharfbuzz_so_save_regs_and_resolve
  POP_REG(lr)
  add sp, #4
  .cfi_adjust_cfa_offset -4
  bx ip

  // Force constant pool for ldr above
  .ltorg

  .cfi_endproc

3:
  .word _libharfbuzz_so_tramp_table - (2b + 8) + 220

/*
 * Copyright 2018-2025 Yury Gribov
 *
 * The MIT License (MIT)
 *
 * Use of this source code is governed by MIT license that can be
 * found in the LICENSE.txt file.
 */

  .globl hb_buffer_has_positions
  .p2align 4
  .type hb_buffer_has_positions, %function
#ifndef IMPLIB_EXPORT_SHIMS
  .hidden hb_buffer_has_positions
#endif
hb_buffer_has_positions:
  .cfi_startproc

1:
  // Load address
  // TODO: can we do this faster on newer ARMs?
  ldr ip, 3f
2:
  add ip, pc, ip
  ldr ip, [ip]

  cmp ip, #0

  // Fast path
  bxne ip

  // Slow path
  ldr ip, =56
  push {ip}
  .cfi_adjust_cfa_offset 4
  PUSH_REG(lr)
  bl _libharfbuzz_so_save_regs_and_resolve
  POP_REG(lr)
  add sp, #4
  .cfi_adjust_cfa_offset -4
  bx ip

  // Force constant pool for ldr above
  .ltorg

  .cfi_endproc

3:
  .word _libharfbuzz_so_tramp_table - (2b + 8) + 224

/*
 * Copyright 2018-2025 Yury Gribov
 *
 * The MIT License (MIT)
 *
 * Use of this source code is governed by MIT license that can be
 * found in the LICENSE.txt file.
 */

  .globl hb_buffer_normalize_glyphs
  .p2align 4
  .type hb_buffer_normalize_glyphs, %function
#ifndef IMPLIB_EXPORT_SHIMS
  .hidden hb_buffer_normalize_glyphs
#endif
hb_buffer_normalize_glyphs:
  .cfi_startproc

1:
  // Load address
  // TODO: can we do this faster on newer ARMs?
  ldr ip, 3f
2:
  add ip, pc, ip
  ldr ip, [ip]

  cmp ip, #0

  // Fast path
  bxne ip

  // Slow path
  ldr ip, =57
  push {ip}
  .cfi_adjust_cfa_offset 4
  PUSH_REG(lr)
  bl _libharfbuzz_so_save_regs_and_resolve
  POP_REG(lr)
  add sp, #4
  .cfi_adjust_cfa_offset -4
  bx ip

  // Force constant pool for ldr above
  .ltorg

  .cfi_endproc

3:
  .word _libharfbuzz_so_tramp_table - (2b + 8) + 228

/*
 * Copyright 2018-2025 Yury Gribov
 *
 * The MIT License (MIT)
 *
 * Use of this source code is governed by MIT license that can be
 * found in the LICENSE.txt file.
 */

  .globl hb_buffer_pre_allocate
  .p2align 4
  .type hb_buffer_pre_allocate, %function
#ifndef IMPLIB_EXPORT_SHIMS
  .hidden hb_buffer_pre_allocate
#endif
hb_buffer_pre_allocate:
  .cfi_startproc

1:
  // Load address
  // TODO: can we do this faster on newer ARMs?
  ldr ip, 3f
2:
  add ip, pc, ip
  ldr ip, [ip]

  cmp ip, #0

  // Fast path
  bxne ip

  // Slow path
  ldr ip, =58
  push {ip}
  .cfi_adjust_cfa_offset 4
  PUSH_REG(lr)
  bl _libharfbuzz_so_save_regs_and_resolve
  POP_REG(lr)
  add sp, #4
  .cfi_adjust_cfa_offset -4
  bx ip

  // Force constant pool for ldr above
  .ltorg

  .cfi_endproc

3:
  .word _libharfbuzz_so_tramp_table - (2b + 8) + 232

/*
 * Copyright 2018-2025 Yury Gribov
 *
 * The MIT License (MIT)
 *
 * Use of this source code is governed by MIT license that can be
 * found in the LICENSE.txt file.
 */

  .globl hb_buffer_reference
  .p2align 4
  .type hb_buffer_reference, %function
#ifndef IMPLIB_EXPORT_SHIMS
  .hidden hb_buffer_reference
#endif
hb_buffer_reference:
  .cfi_startproc

1:
  // Load address
  // TODO: can we do this faster on newer ARMs?
  ldr ip, 3f
2:
  add ip, pc, ip
  ldr ip, [ip]

  cmp ip, #0

  // Fast path
  bxne ip

  // Slow path
  ldr ip, =59
  push {ip}
  .cfi_adjust_cfa_offset 4
  PUSH_REG(lr)
  bl _libharfbuzz_so_save_regs_and_resolve
  POP_REG(lr)
  add sp, #4
  .cfi_adjust_cfa_offset -4
  bx ip

  // Force constant pool for ldr above
  .ltorg

  .cfi_endproc

3:
  .word _libharfbuzz_so_tramp_table - (2b + 8) + 236

/*
 * Copyright 2018-2025 Yury Gribov
 *
 * The MIT License (MIT)
 *
 * Use of this source code is governed by MIT license that can be
 * found in the LICENSE.txt file.
 */

  .globl hb_buffer_reset
  .p2align 4
  .type hb_buffer_reset, %function
#ifndef IMPLIB_EXPORT_SHIMS
  .hidden hb_buffer_reset
#endif
hb_buffer_reset:
  .cfi_startproc

1:
  // Load address
  // TODO: can we do this faster on newer ARMs?
  ldr ip, 3f
2:
  add ip, pc, ip
  ldr ip, [ip]

  cmp ip, #0

  // Fast path
  bxne ip

  // Slow path
  ldr ip, =60
  push {ip}
  .cfi_adjust_cfa_offset 4
  PUSH_REG(lr)
  bl _libharfbuzz_so_save_regs_and_resolve
  POP_REG(lr)
  add sp, #4
  .cfi_adjust_cfa_offset -4
  bx ip

  // Force constant pool for ldr above
  .ltorg

  .cfi_endproc

3:
  .word _libharfbuzz_so_tramp_table - (2b + 8) + 240

/*
 * Copyright 2018-2025 Yury Gribov
 *
 * The MIT License (MIT)
 *
 * Use of this source code is governed by MIT license that can be
 * found in the LICENSE.txt file.
 */

  .globl hb_buffer_reverse
  .p2align 4
  .type hb_buffer_reverse, %function
#ifndef IMPLIB_EXPORT_SHIMS
  .hidden hb_buffer_reverse
#endif
hb_buffer_reverse:
  .cfi_startproc

1:
  // Load address
  // TODO: can we do this faster on newer ARMs?
  ldr ip, 3f
2:
  add ip, pc, ip
  ldr ip, [ip]

  cmp ip, #0

  // Fast path
  bxne ip

  // Slow path
  ldr ip, =61
  push {ip}
  .cfi_adjust_cfa_offset 4
  PUSH_REG(lr)
  bl _libharfbuzz_so_save_regs_and_resolve
  POP_REG(lr)
  add sp, #4
  .cfi_adjust_cfa_offset -4
  bx ip

  // Force constant pool for ldr above
  .ltorg

  .cfi_endproc

3:
  .word _libharfbuzz_so_tramp_table - (2b + 8) + 244

/*
 * Copyright 2018-2025 Yury Gribov
 *
 * The MIT License (MIT)
 *
 * Use of this source code is governed by MIT license that can be
 * found in the LICENSE.txt file.
 */

  .globl hb_buffer_reverse_clusters
  .p2align 4
  .type hb_buffer_reverse_clusters, %function
#ifndef IMPLIB_EXPORT_SHIMS
  .hidden hb_buffer_reverse_clusters
#endif
hb_buffer_reverse_clusters:
  .cfi_startproc

1:
  // Load address
  // TODO: can we do this faster on newer ARMs?
  ldr ip, 3f
2:
  add ip, pc, ip
  ldr ip, [ip]

  cmp ip, #0

  // Fast path
  bxne ip

  // Slow path
  ldr ip, =62
  push {ip}
  .cfi_adjust_cfa_offset 4
  PUSH_REG(lr)
  bl _libharfbuzz_so_save_regs_and_resolve
  POP_REG(lr)
  add sp, #4
  .cfi_adjust_cfa_offset -4
  bx ip

  // Force constant pool for ldr above
  .ltorg

  .cfi_endproc

3:
  .word _libharfbuzz_so_tramp_table - (2b + 8) + 248

/*
 * Copyright 2018-2025 Yury Gribov
 *
 * The MIT License (MIT)
 *
 * Use of this source code is governed by MIT license that can be
 * found in the LICENSE.txt file.
 */

  .globl hb_buffer_reverse_range
  .p2align 4
  .type hb_buffer_reverse_range, %function
#ifndef IMPLIB_EXPORT_SHIMS
  .hidden hb_buffer_reverse_range
#endif
hb_buffer_reverse_range:
  .cfi_startproc

1:
  // Load address
  // TODO: can we do this faster on newer ARMs?
  ldr ip, 3f
2:
  add ip, pc, ip
  ldr ip, [ip]

  cmp ip, #0

  // Fast path
  bxne ip

  // Slow path
  ldr ip, =63
  push {ip}
  .cfi_adjust_cfa_offset 4
  PUSH_REG(lr)
  bl _libharfbuzz_so_save_regs_and_resolve
  POP_REG(lr)
  add sp, #4
  .cfi_adjust_cfa_offset -4
  bx ip

  // Force constant pool for ldr above
  .ltorg

  .cfi_endproc

3:
  .word _libharfbuzz_so_tramp_table - (2b + 8) + 252

/*
 * Copyright 2018-2025 Yury Gribov
 *
 * The MIT License (MIT)
 *
 * Use of this source code is governed by MIT license that can be
 * found in the LICENSE.txt file.
 */

  .globl hb_buffer_serialize
  .p2align 4
  .type hb_buffer_serialize, %function
#ifndef IMPLIB_EXPORT_SHIMS
  .hidden hb_buffer_serialize
#endif
hb_buffer_serialize:
  .cfi_startproc

1:
  // Load address
  // TODO: can we do this faster on newer ARMs?
  ldr ip, 3f
2:
  add ip, pc, ip
  ldr ip, [ip]

  cmp ip, #0

  // Fast path
  bxne ip

  // Slow path
  ldr ip, =64
  push {ip}
  .cfi_adjust_cfa_offset 4
  PUSH_REG(lr)
  bl _libharfbuzz_so_save_regs_and_resolve
  POP_REG(lr)
  add sp, #4
  .cfi_adjust_cfa_offset -4
  bx ip

  // Force constant pool for ldr above
  .ltorg

  .cfi_endproc

3:
  .word _libharfbuzz_so_tramp_table - (2b + 8) + 256

/*
 * Copyright 2018-2025 Yury Gribov
 *
 * The MIT License (MIT)
 *
 * Use of this source code is governed by MIT license that can be
 * found in the LICENSE.txt file.
 */

  .globl hb_buffer_serialize_format_from_string
  .p2align 4
  .type hb_buffer_serialize_format_from_string, %function
#ifndef IMPLIB_EXPORT_SHIMS
  .hidden hb_buffer_serialize_format_from_string
#endif
hb_buffer_serialize_format_from_string:
  .cfi_startproc

1:
  // Load address
  // TODO: can we do this faster on newer ARMs?
  ldr ip, 3f
2:
  add ip, pc, ip
  ldr ip, [ip]

  cmp ip, #0

  // Fast path
  bxne ip

  // Slow path
  ldr ip, =65
  push {ip}
  .cfi_adjust_cfa_offset 4
  PUSH_REG(lr)
  bl _libharfbuzz_so_save_regs_and_resolve
  POP_REG(lr)
  add sp, #4
  .cfi_adjust_cfa_offset -4
  bx ip

  // Force constant pool for ldr above
  .ltorg

  .cfi_endproc

3:
  .word _libharfbuzz_so_tramp_table - (2b + 8) + 260

/*
 * Copyright 2018-2025 Yury Gribov
 *
 * The MIT License (MIT)
 *
 * Use of this source code is governed by MIT license that can be
 * found in the LICENSE.txt file.
 */

  .globl hb_buffer_serialize_format_to_string
  .p2align 4
  .type hb_buffer_serialize_format_to_string, %function
#ifndef IMPLIB_EXPORT_SHIMS
  .hidden hb_buffer_serialize_format_to_string
#endif
hb_buffer_serialize_format_to_string:
  .cfi_startproc

1:
  // Load address
  // TODO: can we do this faster on newer ARMs?
  ldr ip, 3f
2:
  add ip, pc, ip
  ldr ip, [ip]

  cmp ip, #0

  // Fast path
  bxne ip

  // Slow path
  ldr ip, =66
  push {ip}
  .cfi_adjust_cfa_offset 4
  PUSH_REG(lr)
  bl _libharfbuzz_so_save_regs_and_resolve
  POP_REG(lr)
  add sp, #4
  .cfi_adjust_cfa_offset -4
  bx ip

  // Force constant pool for ldr above
  .ltorg

  .cfi_endproc

3:
  .word _libharfbuzz_so_tramp_table - (2b + 8) + 264

/*
 * Copyright 2018-2025 Yury Gribov
 *
 * The MIT License (MIT)
 *
 * Use of this source code is governed by MIT license that can be
 * found in the LICENSE.txt file.
 */

  .globl hb_buffer_serialize_glyphs
  .p2align 4
  .type hb_buffer_serialize_glyphs, %function
#ifndef IMPLIB_EXPORT_SHIMS
  .hidden hb_buffer_serialize_glyphs
#endif
hb_buffer_serialize_glyphs:
  .cfi_startproc

1:
  // Load address
  // TODO: can we do this faster on newer ARMs?
  ldr ip, 3f
2:
  add ip, pc, ip
  ldr ip, [ip]

  cmp ip, #0

  // Fast path
  bxne ip

  // Slow path
  ldr ip, =67
  push {ip}
  .cfi_adjust_cfa_offset 4
  PUSH_REG(lr)
  bl _libharfbuzz_so_save_regs_and_resolve
  POP_REG(lr)
  add sp, #4
  .cfi_adjust_cfa_offset -4
  bx ip

  // Force constant pool for ldr above
  .ltorg

  .cfi_endproc

3:
  .word _libharfbuzz_so_tramp_table - (2b + 8) + 268

/*
 * Copyright 2018-2025 Yury Gribov
 *
 * The MIT License (MIT)
 *
 * Use of this source code is governed by MIT license that can be
 * found in the LICENSE.txt file.
 */

  .globl hb_buffer_serialize_list_formats
  .p2align 4
  .type hb_buffer_serialize_list_formats, %function
#ifndef IMPLIB_EXPORT_SHIMS
  .hidden hb_buffer_serialize_list_formats
#endif
hb_buffer_serialize_list_formats:
  .cfi_startproc

1:
  // Load address
  // TODO: can we do this faster on newer ARMs?
  ldr ip, 3f
2:
  add ip, pc, ip
  ldr ip, [ip]

  cmp ip, #0

  // Fast path
  bxne ip

  // Slow path
  ldr ip, =68
  push {ip}
  .cfi_adjust_cfa_offset 4
  PUSH_REG(lr)
  bl _libharfbuzz_so_save_regs_and_resolve
  POP_REG(lr)
  add sp, #4
  .cfi_adjust_cfa_offset -4
  bx ip

  // Force constant pool for ldr above
  .ltorg

  .cfi_endproc

3:
  .word _libharfbuzz_so_tramp_table - (2b + 8) + 272

/*
 * Copyright 2018-2025 Yury Gribov
 *
 * The MIT License (MIT)
 *
 * Use of this source code is governed by MIT license that can be
 * found in the LICENSE.txt file.
 */

  .globl hb_buffer_serialize_unicode
  .p2align 4
  .type hb_buffer_serialize_unicode, %function
#ifndef IMPLIB_EXPORT_SHIMS
  .hidden hb_buffer_serialize_unicode
#endif
hb_buffer_serialize_unicode:
  .cfi_startproc

1:
  // Load address
  // TODO: can we do this faster on newer ARMs?
  ldr ip, 3f
2:
  add ip, pc, ip
  ldr ip, [ip]

  cmp ip, #0

  // Fast path
  bxne ip

  // Slow path
  ldr ip, =69
  push {ip}
  .cfi_adjust_cfa_offset 4
  PUSH_REG(lr)
  bl _libharfbuzz_so_save_regs_and_resolve
  POP_REG(lr)
  add sp, #4
  .cfi_adjust_cfa_offset -4
  bx ip

  // Force constant pool for ldr above
  .ltorg

  .cfi_endproc

3:
  .word _libharfbuzz_so_tramp_table - (2b + 8) + 276

/*
 * Copyright 2018-2025 Yury Gribov
 *
 * The MIT License (MIT)
 *
 * Use of this source code is governed by MIT license that can be
 * found in the LICENSE.txt file.
 */

  .globl hb_buffer_set_cluster_level
  .p2align 4
  .type hb_buffer_set_cluster_level, %function
#ifndef IMPLIB_EXPORT_SHIMS
  .hidden hb_buffer_set_cluster_level
#endif
hb_buffer_set_cluster_level:
  .cfi_startproc

1:
  // Load address
  // TODO: can we do this faster on newer ARMs?
  ldr ip, 3f
2:
  add ip, pc, ip
  ldr ip, [ip]

  cmp ip, #0

  // Fast path
  bxne ip

  // Slow path
  ldr ip, =70
  push {ip}
  .cfi_adjust_cfa_offset 4
  PUSH_REG(lr)
  bl _libharfbuzz_so_save_regs_and_resolve
  POP_REG(lr)
  add sp, #4
  .cfi_adjust_cfa_offset -4
  bx ip

  // Force constant pool for ldr above
  .ltorg

  .cfi_endproc

3:
  .word _libharfbuzz_so_tramp_table - (2b + 8) + 280

/*
 * Copyright 2018-2025 Yury Gribov
 *
 * The MIT License (MIT)
 *
 * Use of this source code is governed by MIT license that can be
 * found in the LICENSE.txt file.
 */

  .globl hb_buffer_set_content_type
  .p2align 4
  .type hb_buffer_set_content_type, %function
#ifndef IMPLIB_EXPORT_SHIMS
  .hidden hb_buffer_set_content_type
#endif
hb_buffer_set_content_type:
  .cfi_startproc

1:
  // Load address
  // TODO: can we do this faster on newer ARMs?
  ldr ip, 3f
2:
  add ip, pc, ip
  ldr ip, [ip]

  cmp ip, #0

  // Fast path
  bxne ip

  // Slow path
  ldr ip, =71
  push {ip}
  .cfi_adjust_cfa_offset 4
  PUSH_REG(lr)
  bl _libharfbuzz_so_save_regs_and_resolve
  POP_REG(lr)
  add sp, #4
  .cfi_adjust_cfa_offset -4
  bx ip

  // Force constant pool for ldr above
  .ltorg

  .cfi_endproc

3:
  .word _libharfbuzz_so_tramp_table - (2b + 8) + 284

/*
 * Copyright 2018-2025 Yury Gribov
 *
 * The MIT License (MIT)
 *
 * Use of this source code is governed by MIT license that can be
 * found in the LICENSE.txt file.
 */

  .globl hb_buffer_set_direction
  .p2align 4
  .type hb_buffer_set_direction, %function
#ifndef IMPLIB_EXPORT_SHIMS
  .hidden hb_buffer_set_direction
#endif
hb_buffer_set_direction:
  .cfi_startproc

1:
  // Load address
  // TODO: can we do this faster on newer ARMs?
  ldr ip, 3f
2:
  add ip, pc, ip
  ldr ip, [ip]

  cmp ip, #0

  // Fast path
  bxne ip

  // Slow path
  ldr ip, =72
  push {ip}
  .cfi_adjust_cfa_offset 4
  PUSH_REG(lr)
  bl _libharfbuzz_so_save_regs_and_resolve
  POP_REG(lr)
  add sp, #4
  .cfi_adjust_cfa_offset -4
  bx ip

  // Force constant pool for ldr above
  .ltorg

  .cfi_endproc

3:
  .word _libharfbuzz_so_tramp_table - (2b + 8) + 288

/*
 * Copyright 2018-2025 Yury Gribov
 *
 * The MIT License (MIT)
 *
 * Use of this source code is governed by MIT license that can be
 * found in the LICENSE.txt file.
 */

  .globl hb_buffer_set_flags
  .p2align 4
  .type hb_buffer_set_flags, %function
#ifndef IMPLIB_EXPORT_SHIMS
  .hidden hb_buffer_set_flags
#endif
hb_buffer_set_flags:
  .cfi_startproc

1:
  // Load address
  // TODO: can we do this faster on newer ARMs?
  ldr ip, 3f
2:
  add ip, pc, ip
  ldr ip, [ip]

  cmp ip, #0

  // Fast path
  bxne ip

  // Slow path
  ldr ip, =73
  push {ip}
  .cfi_adjust_cfa_offset 4
  PUSH_REG(lr)
  bl _libharfbuzz_so_save_regs_and_resolve
  POP_REG(lr)
  add sp, #4
  .cfi_adjust_cfa_offset -4
  bx ip

  // Force constant pool for ldr above
  .ltorg

  .cfi_endproc

3:
  .word _libharfbuzz_so_tramp_table - (2b + 8) + 292

/*
 * Copyright 2018-2025 Yury Gribov
 *
 * The MIT License (MIT)
 *
 * Use of this source code is governed by MIT license that can be
 * found in the LICENSE.txt file.
 */

  .globl hb_buffer_set_invisible_glyph
  .p2align 4
  .type hb_buffer_set_invisible_glyph, %function
#ifndef IMPLIB_EXPORT_SHIMS
  .hidden hb_buffer_set_invisible_glyph
#endif
hb_buffer_set_invisible_glyph:
  .cfi_startproc

1:
  // Load address
  // TODO: can we do this faster on newer ARMs?
  ldr ip, 3f
2:
  add ip, pc, ip
  ldr ip, [ip]

  cmp ip, #0

  // Fast path
  bxne ip

  // Slow path
  ldr ip, =74
  push {ip}
  .cfi_adjust_cfa_offset 4
  PUSH_REG(lr)
  bl _libharfbuzz_so_save_regs_and_resolve
  POP_REG(lr)
  add sp, #4
  .cfi_adjust_cfa_offset -4
  bx ip

  // Force constant pool for ldr above
  .ltorg

  .cfi_endproc

3:
  .word _libharfbuzz_so_tramp_table - (2b + 8) + 296

/*
 * Copyright 2018-2025 Yury Gribov
 *
 * The MIT License (MIT)
 *
 * Use of this source code is governed by MIT license that can be
 * found in the LICENSE.txt file.
 */

  .globl hb_buffer_set_language
  .p2align 4
  .type hb_buffer_set_language, %function
#ifndef IMPLIB_EXPORT_SHIMS
  .hidden hb_buffer_set_language
#endif
hb_buffer_set_language:
  .cfi_startproc

1:
  // Load address
  // TODO: can we do this faster on newer ARMs?
  ldr ip, 3f
2:
  add ip, pc, ip
  ldr ip, [ip]

  cmp ip, #0

  // Fast path
  bxne ip

  // Slow path
  ldr ip, =75
  push {ip}
  .cfi_adjust_cfa_offset 4
  PUSH_REG(lr)
  bl _libharfbuzz_so_save_regs_and_resolve
  POP_REG(lr)
  add sp, #4
  .cfi_adjust_cfa_offset -4
  bx ip

  // Force constant pool for ldr above
  .ltorg

  .cfi_endproc

3:
  .word _libharfbuzz_so_tramp_table - (2b + 8) + 300

/*
 * Copyright 2018-2025 Yury Gribov
 *
 * The MIT License (MIT)
 *
 * Use of this source code is governed by MIT license that can be
 * found in the LICENSE.txt file.
 */

  .globl hb_buffer_set_length
  .p2align 4
  .type hb_buffer_set_length, %function
#ifndef IMPLIB_EXPORT_SHIMS
  .hidden hb_buffer_set_length
#endif
hb_buffer_set_length:
  .cfi_startproc

1:
  // Load address
  // TODO: can we do this faster on newer ARMs?
  ldr ip, 3f
2:
  add ip, pc, ip
  ldr ip, [ip]

  cmp ip, #0

  // Fast path
  bxne ip

  // Slow path
  ldr ip, =76
  push {ip}
  .cfi_adjust_cfa_offset 4
  PUSH_REG(lr)
  bl _libharfbuzz_so_save_regs_and_resolve
  POP_REG(lr)
  add sp, #4
  .cfi_adjust_cfa_offset -4
  bx ip

  // Force constant pool for ldr above
  .ltorg

  .cfi_endproc

3:
  .word _libharfbuzz_so_tramp_table - (2b + 8) + 304

/*
 * Copyright 2018-2025 Yury Gribov
 *
 * The MIT License (MIT)
 *
 * Use of this source code is governed by MIT license that can be
 * found in the LICENSE.txt file.
 */

  .globl hb_buffer_set_message_func
  .p2align 4
  .type hb_buffer_set_message_func, %function
#ifndef IMPLIB_EXPORT_SHIMS
  .hidden hb_buffer_set_message_func
#endif
hb_buffer_set_message_func:
  .cfi_startproc

1:
  // Load address
  // TODO: can we do this faster on newer ARMs?
  ldr ip, 3f
2:
  add ip, pc, ip
  ldr ip, [ip]

  cmp ip, #0

  // Fast path
  bxne ip

  // Slow path
  ldr ip, =77
  push {ip}
  .cfi_adjust_cfa_offset 4
  PUSH_REG(lr)
  bl _libharfbuzz_so_save_regs_and_resolve
  POP_REG(lr)
  add sp, #4
  .cfi_adjust_cfa_offset -4
  bx ip

  // Force constant pool for ldr above
  .ltorg

  .cfi_endproc

3:
  .word _libharfbuzz_so_tramp_table - (2b + 8) + 308

/*
 * Copyright 2018-2025 Yury Gribov
 *
 * The MIT License (MIT)
 *
 * Use of this source code is governed by MIT license that can be
 * found in the LICENSE.txt file.
 */

  .globl hb_buffer_set_not_found_glyph
  .p2align 4
  .type hb_buffer_set_not_found_glyph, %function
#ifndef IMPLIB_EXPORT_SHIMS
  .hidden hb_buffer_set_not_found_glyph
#endif
hb_buffer_set_not_found_glyph:
  .cfi_startproc

1:
  // Load address
  // TODO: can we do this faster on newer ARMs?
  ldr ip, 3f
2:
  add ip, pc, ip
  ldr ip, [ip]

  cmp ip, #0

  // Fast path
  bxne ip

  // Slow path
  ldr ip, =78
  push {ip}
  .cfi_adjust_cfa_offset 4
  PUSH_REG(lr)
  bl _libharfbuzz_so_save_regs_and_resolve
  POP_REG(lr)
  add sp, #4
  .cfi_adjust_cfa_offset -4
  bx ip

  // Force constant pool for ldr above
  .ltorg

  .cfi_endproc

3:
  .word _libharfbuzz_so_tramp_table - (2b + 8) + 312

/*
 * Copyright 2018-2025 Yury Gribov
 *
 * The MIT License (MIT)
 *
 * Use of this source code is governed by MIT license that can be
 * found in the LICENSE.txt file.
 */

  .globl hb_buffer_set_not_found_variation_selector_glyph
  .p2align 4
  .type hb_buffer_set_not_found_variation_selector_glyph, %function
#ifndef IMPLIB_EXPORT_SHIMS
  .hidden hb_buffer_set_not_found_variation_selector_glyph
#endif
hb_buffer_set_not_found_variation_selector_glyph:
  .cfi_startproc

1:
  // Load address
  // TODO: can we do this faster on newer ARMs?
  ldr ip, 3f
2:
  add ip, pc, ip
  ldr ip, [ip]

  cmp ip, #0

  // Fast path
  bxne ip

  // Slow path
  ldr ip, =79
  push {ip}
  .cfi_adjust_cfa_offset 4
  PUSH_REG(lr)
  bl _libharfbuzz_so_save_regs_and_resolve
  POP_REG(lr)
  add sp, #4
  .cfi_adjust_cfa_offset -4
  bx ip

  // Force constant pool for ldr above
  .ltorg

  .cfi_endproc

3:
  .word _libharfbuzz_so_tramp_table - (2b + 8) + 316

/*
 * Copyright 2018-2025 Yury Gribov
 *
 * The MIT License (MIT)
 *
 * Use of this source code is governed by MIT license that can be
 * found in the LICENSE.txt file.
 */

  .globl hb_buffer_set_random_state
  .p2align 4
  .type hb_buffer_set_random_state, %function
#ifndef IMPLIB_EXPORT_SHIMS
  .hidden hb_buffer_set_random_state
#endif
hb_buffer_set_random_state:
  .cfi_startproc

1:
  // Load address
  // TODO: can we do this faster on newer ARMs?
  ldr ip, 3f
2:
  add ip, pc, ip
  ldr ip, [ip]

  cmp ip, #0

  // Fast path
  bxne ip

  // Slow path
  ldr ip, =80
  push {ip}
  .cfi_adjust_cfa_offset 4
  PUSH_REG(lr)
  bl _libharfbuzz_so_save_regs_and_resolve
  POP_REG(lr)
  add sp, #4
  .cfi_adjust_cfa_offset -4
  bx ip

  // Force constant pool for ldr above
  .ltorg

  .cfi_endproc

3:
  .word _libharfbuzz_so_tramp_table - (2b + 8) + 320

/*
 * Copyright 2018-2025 Yury Gribov
 *
 * The MIT License (MIT)
 *
 * Use of this source code is governed by MIT license that can be
 * found in the LICENSE.txt file.
 */

  .globl hb_buffer_set_replacement_codepoint
  .p2align 4
  .type hb_buffer_set_replacement_codepoint, %function
#ifndef IMPLIB_EXPORT_SHIMS
  .hidden hb_buffer_set_replacement_codepoint
#endif
hb_buffer_set_replacement_codepoint:
  .cfi_startproc

1:
  // Load address
  // TODO: can we do this faster on newer ARMs?
  ldr ip, 3f
2:
  add ip, pc, ip
  ldr ip, [ip]

  cmp ip, #0

  // Fast path
  bxne ip

  // Slow path
  ldr ip, =81
  push {ip}
  .cfi_adjust_cfa_offset 4
  PUSH_REG(lr)
  bl _libharfbuzz_so_save_regs_and_resolve
  POP_REG(lr)
  add sp, #4
  .cfi_adjust_cfa_offset -4
  bx ip

  // Force constant pool for ldr above
  .ltorg

  .cfi_endproc

3:
  .word _libharfbuzz_so_tramp_table - (2b + 8) + 324

/*
 * Copyright 2018-2025 Yury Gribov
 *
 * The MIT License (MIT)
 *
 * Use of this source code is governed by MIT license that can be
 * found in the LICENSE.txt file.
 */

  .globl hb_buffer_set_script
  .p2align 4
  .type hb_buffer_set_script, %function
#ifndef IMPLIB_EXPORT_SHIMS
  .hidden hb_buffer_set_script
#endif
hb_buffer_set_script:
  .cfi_startproc

1:
  // Load address
  // TODO: can we do this faster on newer ARMs?
  ldr ip, 3f
2:
  add ip, pc, ip
  ldr ip, [ip]

  cmp ip, #0

  // Fast path
  bxne ip

  // Slow path
  ldr ip, =82
  push {ip}
  .cfi_adjust_cfa_offset 4
  PUSH_REG(lr)
  bl _libharfbuzz_so_save_regs_and_resolve
  POP_REG(lr)
  add sp, #4
  .cfi_adjust_cfa_offset -4
  bx ip

  // Force constant pool for ldr above
  .ltorg

  .cfi_endproc

3:
  .word _libharfbuzz_so_tramp_table - (2b + 8) + 328

/*
 * Copyright 2018-2025 Yury Gribov
 *
 * The MIT License (MIT)
 *
 * Use of this source code is governed by MIT license that can be
 * found in the LICENSE.txt file.
 */

  .globl hb_buffer_set_segment_properties
  .p2align 4
  .type hb_buffer_set_segment_properties, %function
#ifndef IMPLIB_EXPORT_SHIMS
  .hidden hb_buffer_set_segment_properties
#endif
hb_buffer_set_segment_properties:
  .cfi_startproc

1:
  // Load address
  // TODO: can we do this faster on newer ARMs?
  ldr ip, 3f
2:
  add ip, pc, ip
  ldr ip, [ip]

  cmp ip, #0

  // Fast path
  bxne ip

  // Slow path
  ldr ip, =83
  push {ip}
  .cfi_adjust_cfa_offset 4
  PUSH_REG(lr)
  bl _libharfbuzz_so_save_regs_and_resolve
  POP_REG(lr)
  add sp, #4
  .cfi_adjust_cfa_offset -4
  bx ip

  // Force constant pool for ldr above
  .ltorg

  .cfi_endproc

3:
  .word _libharfbuzz_so_tramp_table - (2b + 8) + 332

/*
 * Copyright 2018-2025 Yury Gribov
 *
 * The MIT License (MIT)
 *
 * Use of this source code is governed by MIT license that can be
 * found in the LICENSE.txt file.
 */

  .globl hb_buffer_set_unicode_funcs
  .p2align 4
  .type hb_buffer_set_unicode_funcs, %function
#ifndef IMPLIB_EXPORT_SHIMS
  .hidden hb_buffer_set_unicode_funcs
#endif
hb_buffer_set_unicode_funcs:
  .cfi_startproc

1:
  // Load address
  // TODO: can we do this faster on newer ARMs?
  ldr ip, 3f
2:
  add ip, pc, ip
  ldr ip, [ip]

  cmp ip, #0

  // Fast path
  bxne ip

  // Slow path
  ldr ip, =84
  push {ip}
  .cfi_adjust_cfa_offset 4
  PUSH_REG(lr)
  bl _libharfbuzz_so_save_regs_and_resolve
  POP_REG(lr)
  add sp, #4
  .cfi_adjust_cfa_offset -4
  bx ip

  // Force constant pool for ldr above
  .ltorg

  .cfi_endproc

3:
  .word _libharfbuzz_so_tramp_table - (2b + 8) + 336

/*
 * Copyright 2018-2025 Yury Gribov
 *
 * The MIT License (MIT)
 *
 * Use of this source code is governed by MIT license that can be
 * found in the LICENSE.txt file.
 */

  .globl hb_buffer_set_user_data
  .p2align 4
  .type hb_buffer_set_user_data, %function
#ifndef IMPLIB_EXPORT_SHIMS
  .hidden hb_buffer_set_user_data
#endif
hb_buffer_set_user_data:
  .cfi_startproc

1:
  // Load address
  // TODO: can we do this faster on newer ARMs?
  ldr ip, 3f
2:
  add ip, pc, ip
  ldr ip, [ip]

  cmp ip, #0

  // Fast path
  bxne ip

  // Slow path
  ldr ip, =85
  push {ip}
  .cfi_adjust_cfa_offset 4
  PUSH_REG(lr)
  bl _libharfbuzz_so_save_regs_and_resolve
  POP_REG(lr)
  add sp, #4
  .cfi_adjust_cfa_offset -4
  bx ip

  // Force constant pool for ldr above
  .ltorg

  .cfi_endproc

3:
  .word _libharfbuzz_so_tramp_table - (2b + 8) + 340

/*
 * Copyright 2018-2025 Yury Gribov
 *
 * The MIT License (MIT)
 *
 * Use of this source code is governed by MIT license that can be
 * found in the LICENSE.txt file.
 */

  .globl hb_calloc
  .p2align 4
  .type hb_calloc, %function
#ifndef IMPLIB_EXPORT_SHIMS
  .hidden hb_calloc
#endif
hb_calloc:
  .cfi_startproc

1:
  // Load address
  // TODO: can we do this faster on newer ARMs?
  ldr ip, 3f
2:
  add ip, pc, ip
  ldr ip, [ip]

  cmp ip, #0

  // Fast path
  bxne ip

  // Slow path
  ldr ip, =86
  push {ip}
  .cfi_adjust_cfa_offset 4
  PUSH_REG(lr)
  bl _libharfbuzz_so_save_regs_and_resolve
  POP_REG(lr)
  add sp, #4
  .cfi_adjust_cfa_offset -4
  bx ip

  // Force constant pool for ldr above
  .ltorg

  .cfi_endproc

3:
  .word _libharfbuzz_so_tramp_table - (2b + 8) + 344

/*
 * Copyright 2018-2025 Yury Gribov
 *
 * The MIT License (MIT)
 *
 * Use of this source code is governed by MIT license that can be
 * found in the LICENSE.txt file.
 */

  .globl hb_color_get_alpha
  .p2align 4
  .type hb_color_get_alpha, %function
#ifndef IMPLIB_EXPORT_SHIMS
  .hidden hb_color_get_alpha
#endif
hb_color_get_alpha:
  .cfi_startproc

1:
  // Load address
  // TODO: can we do this faster on newer ARMs?
  ldr ip, 3f
2:
  add ip, pc, ip
  ldr ip, [ip]

  cmp ip, #0

  // Fast path
  bxne ip

  // Slow path
  ldr ip, =87
  push {ip}
  .cfi_adjust_cfa_offset 4
  PUSH_REG(lr)
  bl _libharfbuzz_so_save_regs_and_resolve
  POP_REG(lr)
  add sp, #4
  .cfi_adjust_cfa_offset -4
  bx ip

  // Force constant pool for ldr above
  .ltorg

  .cfi_endproc

3:
  .word _libharfbuzz_so_tramp_table - (2b + 8) + 348

/*
 * Copyright 2018-2025 Yury Gribov
 *
 * The MIT License (MIT)
 *
 * Use of this source code is governed by MIT license that can be
 * found in the LICENSE.txt file.
 */

  .globl hb_color_get_blue
  .p2align 4
  .type hb_color_get_blue, %function
#ifndef IMPLIB_EXPORT_SHIMS
  .hidden hb_color_get_blue
#endif
hb_color_get_blue:
  .cfi_startproc

1:
  // Load address
  // TODO: can we do this faster on newer ARMs?
  ldr ip, 3f
2:
  add ip, pc, ip
  ldr ip, [ip]

  cmp ip, #0

  // Fast path
  bxne ip

  // Slow path
  ldr ip, =88
  push {ip}
  .cfi_adjust_cfa_offset 4
  PUSH_REG(lr)
  bl _libharfbuzz_so_save_regs_and_resolve
  POP_REG(lr)
  add sp, #4
  .cfi_adjust_cfa_offset -4
  bx ip

  // Force constant pool for ldr above
  .ltorg

  .cfi_endproc

3:
  .word _libharfbuzz_so_tramp_table - (2b + 8) + 352

/*
 * Copyright 2018-2025 Yury Gribov
 *
 * The MIT License (MIT)
 *
 * Use of this source code is governed by MIT license that can be
 * found in the LICENSE.txt file.
 */

  .globl hb_color_get_green
  .p2align 4
  .type hb_color_get_green, %function
#ifndef IMPLIB_EXPORT_SHIMS
  .hidden hb_color_get_green
#endif
hb_color_get_green:
  .cfi_startproc

1:
  // Load address
  // TODO: can we do this faster on newer ARMs?
  ldr ip, 3f
2:
  add ip, pc, ip
  ldr ip, [ip]

  cmp ip, #0

  // Fast path
  bxne ip

  // Slow path
  ldr ip, =89
  push {ip}
  .cfi_adjust_cfa_offset 4
  PUSH_REG(lr)
  bl _libharfbuzz_so_save_regs_and_resolve
  POP_REG(lr)
  add sp, #4
  .cfi_adjust_cfa_offset -4
  bx ip

  // Force constant pool for ldr above
  .ltorg

  .cfi_endproc

3:
  .word _libharfbuzz_so_tramp_table - (2b + 8) + 356

/*
 * Copyright 2018-2025 Yury Gribov
 *
 * The MIT License (MIT)
 *
 * Use of this source code is governed by MIT license that can be
 * found in the LICENSE.txt file.
 */

  .globl hb_color_get_red
  .p2align 4
  .type hb_color_get_red, %function
#ifndef IMPLIB_EXPORT_SHIMS
  .hidden hb_color_get_red
#endif
hb_color_get_red:
  .cfi_startproc

1:
  // Load address
  // TODO: can we do this faster on newer ARMs?
  ldr ip, 3f
2:
  add ip, pc, ip
  ldr ip, [ip]

  cmp ip, #0

  // Fast path
  bxne ip

  // Slow path
  ldr ip, =90
  push {ip}
  .cfi_adjust_cfa_offset 4
  PUSH_REG(lr)
  bl _libharfbuzz_so_save_regs_and_resolve
  POP_REG(lr)
  add sp, #4
  .cfi_adjust_cfa_offset -4
  bx ip

  // Force constant pool for ldr above
  .ltorg

  .cfi_endproc

3:
  .word _libharfbuzz_so_tramp_table - (2b + 8) + 360

/*
 * Copyright 2018-2025 Yury Gribov
 *
 * The MIT License (MIT)
 *
 * Use of this source code is governed by MIT license that can be
 * found in the LICENSE.txt file.
 */

  .globl hb_color_line_get_color_stops
  .p2align 4
  .type hb_color_line_get_color_stops, %function
#ifndef IMPLIB_EXPORT_SHIMS
  .hidden hb_color_line_get_color_stops
#endif
hb_color_line_get_color_stops:
  .cfi_startproc

1:
  // Load address
  // TODO: can we do this faster on newer ARMs?
  ldr ip, 3f
2:
  add ip, pc, ip
  ldr ip, [ip]

  cmp ip, #0

  // Fast path
  bxne ip

  // Slow path
  ldr ip, =91
  push {ip}
  .cfi_adjust_cfa_offset 4
  PUSH_REG(lr)
  bl _libharfbuzz_so_save_regs_and_resolve
  POP_REG(lr)
  add sp, #4
  .cfi_adjust_cfa_offset -4
  bx ip

  // Force constant pool for ldr above
  .ltorg

  .cfi_endproc

3:
  .word _libharfbuzz_so_tramp_table - (2b + 8) + 364

/*
 * Copyright 2018-2025 Yury Gribov
 *
 * The MIT License (MIT)
 *
 * Use of this source code is governed by MIT license that can be
 * found in the LICENSE.txt file.
 */

  .globl hb_color_line_get_extend
  .p2align 4
  .type hb_color_line_get_extend, %function
#ifndef IMPLIB_EXPORT_SHIMS
  .hidden hb_color_line_get_extend
#endif
hb_color_line_get_extend:
  .cfi_startproc

1:
  // Load address
  // TODO: can we do this faster on newer ARMs?
  ldr ip, 3f
2:
  add ip, pc, ip
  ldr ip, [ip]

  cmp ip, #0

  // Fast path
  bxne ip

  // Slow path
  ldr ip, =92
  push {ip}
  .cfi_adjust_cfa_offset 4
  PUSH_REG(lr)
  bl _libharfbuzz_so_save_regs_and_resolve
  POP_REG(lr)
  add sp, #4
  .cfi_adjust_cfa_offset -4
  bx ip

  // Force constant pool for ldr above
  .ltorg

  .cfi_endproc

3:
  .word _libharfbuzz_so_tramp_table - (2b + 8) + 368

/*
 * Copyright 2018-2025 Yury Gribov
 *
 * The MIT License (MIT)
 *
 * Use of this source code is governed by MIT license that can be
 * found in the LICENSE.txt file.
 */

  .globl hb_direction_from_string
  .p2align 4
  .type hb_direction_from_string, %function
#ifndef IMPLIB_EXPORT_SHIMS
  .hidden hb_direction_from_string
#endif
hb_direction_from_string:
  .cfi_startproc

1:
  // Load address
  // TODO: can we do this faster on newer ARMs?
  ldr ip, 3f
2:
  add ip, pc, ip
  ldr ip, [ip]

  cmp ip, #0

  // Fast path
  bxne ip

  // Slow path
  ldr ip, =93
  push {ip}
  .cfi_adjust_cfa_offset 4
  PUSH_REG(lr)
  bl _libharfbuzz_so_save_regs_and_resolve
  POP_REG(lr)
  add sp, #4
  .cfi_adjust_cfa_offset -4
  bx ip

  // Force constant pool for ldr above
  .ltorg

  .cfi_endproc

3:
  .word _libharfbuzz_so_tramp_table - (2b + 8) + 372

/*
 * Copyright 2018-2025 Yury Gribov
 *
 * The MIT License (MIT)
 *
 * Use of this source code is governed by MIT license that can be
 * found in the LICENSE.txt file.
 */

  .globl hb_direction_to_string
  .p2align 4
  .type hb_direction_to_string, %function
#ifndef IMPLIB_EXPORT_SHIMS
  .hidden hb_direction_to_string
#endif
hb_direction_to_string:
  .cfi_startproc

1:
  // Load address
  // TODO: can we do this faster on newer ARMs?
  ldr ip, 3f
2:
  add ip, pc, ip
  ldr ip, [ip]

  cmp ip, #0

  // Fast path
  bxne ip

  // Slow path
  ldr ip, =94
  push {ip}
  .cfi_adjust_cfa_offset 4
  PUSH_REG(lr)
  bl _libharfbuzz_so_save_regs_and_resolve
  POP_REG(lr)
  add sp, #4
  .cfi_adjust_cfa_offset -4
  bx ip

  // Force constant pool for ldr above
  .ltorg

  .cfi_endproc

3:
  .word _libharfbuzz_so_tramp_table - (2b + 8) + 376

/*
 * Copyright 2018-2025 Yury Gribov
 *
 * The MIT License (MIT)
 *
 * Use of this source code is governed by MIT license that can be
 * found in the LICENSE.txt file.
 */

  .globl hb_draw_close_path
  .p2align 4
  .type hb_draw_close_path, %function
#ifndef IMPLIB_EXPORT_SHIMS
  .hidden hb_draw_close_path
#endif
hb_draw_close_path:
  .cfi_startproc

1:
  // Load address
  // TODO: can we do this faster on newer ARMs?
  ldr ip, 3f
2:
  add ip, pc, ip
  ldr ip, [ip]

  cmp ip, #0

  // Fast path
  bxne ip

  // Slow path
  ldr ip, =95
  push {ip}
  .cfi_adjust_cfa_offset 4
  PUSH_REG(lr)
  bl _libharfbuzz_so_save_regs_and_resolve
  POP_REG(lr)
  add sp, #4
  .cfi_adjust_cfa_offset -4
  bx ip

  // Force constant pool for ldr above
  .ltorg

  .cfi_endproc

3:
  .word _libharfbuzz_so_tramp_table - (2b + 8) + 380

/*
 * Copyright 2018-2025 Yury Gribov
 *
 * The MIT License (MIT)
 *
 * Use of this source code is governed by MIT license that can be
 * found in the LICENSE.txt file.
 */

  .globl hb_draw_cubic_to
  .p2align 4
  .type hb_draw_cubic_to, %function
#ifndef IMPLIB_EXPORT_SHIMS
  .hidden hb_draw_cubic_to
#endif
hb_draw_cubic_to:
  .cfi_startproc

1:
  // Load address
  // TODO: can we do this faster on newer ARMs?
  ldr ip, 3f
2:
  add ip, pc, ip
  ldr ip, [ip]

  cmp ip, #0

  // Fast path
  bxne ip

  // Slow path
  ldr ip, =96
  push {ip}
  .cfi_adjust_cfa_offset 4
  PUSH_REG(lr)
  bl _libharfbuzz_so_save_regs_and_resolve
  POP_REG(lr)
  add sp, #4
  .cfi_adjust_cfa_offset -4
  bx ip

  // Force constant pool for ldr above
  .ltorg

  .cfi_endproc

3:
  .word _libharfbuzz_so_tramp_table - (2b + 8) + 384

/*
 * Copyright 2018-2025 Yury Gribov
 *
 * The MIT License (MIT)
 *
 * Use of this source code is governed by MIT license that can be
 * found in the LICENSE.txt file.
 */

  .globl hb_draw_funcs_create
  .p2align 4
  .type hb_draw_funcs_create, %function
#ifndef IMPLIB_EXPORT_SHIMS
  .hidden hb_draw_funcs_create
#endif
hb_draw_funcs_create:
  .cfi_startproc

1:
  // Load address
  // TODO: can we do this faster on newer ARMs?
  ldr ip, 3f
2:
  add ip, pc, ip
  ldr ip, [ip]

  cmp ip, #0

  // Fast path
  bxne ip

  // Slow path
  ldr ip, =97
  push {ip}
  .cfi_adjust_cfa_offset 4
  PUSH_REG(lr)
  bl _libharfbuzz_so_save_regs_and_resolve
  POP_REG(lr)
  add sp, #4
  .cfi_adjust_cfa_offset -4
  bx ip

  // Force constant pool for ldr above
  .ltorg

  .cfi_endproc

3:
  .word _libharfbuzz_so_tramp_table - (2b + 8) + 388

/*
 * Copyright 2018-2025 Yury Gribov
 *
 * The MIT License (MIT)
 *
 * Use of this source code is governed by MIT license that can be
 * found in the LICENSE.txt file.
 */

  .globl hb_draw_funcs_destroy
  .p2align 4
  .type hb_draw_funcs_destroy, %function
#ifndef IMPLIB_EXPORT_SHIMS
  .hidden hb_draw_funcs_destroy
#endif
hb_draw_funcs_destroy:
  .cfi_startproc

1:
  // Load address
  // TODO: can we do this faster on newer ARMs?
  ldr ip, 3f
2:
  add ip, pc, ip
  ldr ip, [ip]

  cmp ip, #0

  // Fast path
  bxne ip

  // Slow path
  ldr ip, =98
  push {ip}
  .cfi_adjust_cfa_offset 4
  PUSH_REG(lr)
  bl _libharfbuzz_so_save_regs_and_resolve
  POP_REG(lr)
  add sp, #4
  .cfi_adjust_cfa_offset -4
  bx ip

  // Force constant pool for ldr above
  .ltorg

  .cfi_endproc

3:
  .word _libharfbuzz_so_tramp_table - (2b + 8) + 392

/*
 * Copyright 2018-2025 Yury Gribov
 *
 * The MIT License (MIT)
 *
 * Use of this source code is governed by MIT license that can be
 * found in the LICENSE.txt file.
 */

  .globl hb_draw_funcs_get_empty
  .p2align 4
  .type hb_draw_funcs_get_empty, %function
#ifndef IMPLIB_EXPORT_SHIMS
  .hidden hb_draw_funcs_get_empty
#endif
hb_draw_funcs_get_empty:
  .cfi_startproc

1:
  // Load address
  // TODO: can we do this faster on newer ARMs?
  ldr ip, 3f
2:
  add ip, pc, ip
  ldr ip, [ip]

  cmp ip, #0

  // Fast path
  bxne ip

  // Slow path
  ldr ip, =99
  push {ip}
  .cfi_adjust_cfa_offset 4
  PUSH_REG(lr)
  bl _libharfbuzz_so_save_regs_and_resolve
  POP_REG(lr)
  add sp, #4
  .cfi_adjust_cfa_offset -4
  bx ip

  // Force constant pool for ldr above
  .ltorg

  .cfi_endproc

3:
  .word _libharfbuzz_so_tramp_table - (2b + 8) + 396

/*
 * Copyright 2018-2025 Yury Gribov
 *
 * The MIT License (MIT)
 *
 * Use of this source code is governed by MIT license that can be
 * found in the LICENSE.txt file.
 */

  .globl hb_draw_funcs_get_user_data
  .p2align 4
  .type hb_draw_funcs_get_user_data, %function
#ifndef IMPLIB_EXPORT_SHIMS
  .hidden hb_draw_funcs_get_user_data
#endif
hb_draw_funcs_get_user_data:
  .cfi_startproc

1:
  // Load address
  // TODO: can we do this faster on newer ARMs?
  ldr ip, 3f
2:
  add ip, pc, ip
  ldr ip, [ip]

  cmp ip, #0

  // Fast path
  bxne ip

  // Slow path
  ldr ip, =100
  push {ip}
  .cfi_adjust_cfa_offset 4
  PUSH_REG(lr)
  bl _libharfbuzz_so_save_regs_and_resolve
  POP_REG(lr)
  add sp, #4
  .cfi_adjust_cfa_offset -4
  bx ip

  // Force constant pool for ldr above
  .ltorg

  .cfi_endproc

3:
  .word _libharfbuzz_so_tramp_table - (2b + 8) + 400

/*
 * Copyright 2018-2025 Yury Gribov
 *
 * The MIT License (MIT)
 *
 * Use of this source code is governed by MIT license that can be
 * found in the LICENSE.txt file.
 */

  .globl hb_draw_funcs_is_immutable
  .p2align 4
  .type hb_draw_funcs_is_immutable, %function
#ifndef IMPLIB_EXPORT_SHIMS
  .hidden hb_draw_funcs_is_immutable
#endif
hb_draw_funcs_is_immutable:
  .cfi_startproc

1:
  // Load address
  // TODO: can we do this faster on newer ARMs?
  ldr ip, 3f
2:
  add ip, pc, ip
  ldr ip, [ip]

  cmp ip, #0

  // Fast path
  bxne ip

  // Slow path
  ldr ip, =101
  push {ip}
  .cfi_adjust_cfa_offset 4
  PUSH_REG(lr)
  bl _libharfbuzz_so_save_regs_and_resolve
  POP_REG(lr)
  add sp, #4
  .cfi_adjust_cfa_offset -4
  bx ip

  // Force constant pool for ldr above
  .ltorg

  .cfi_endproc

3:
  .word _libharfbuzz_so_tramp_table - (2b + 8) + 404

/*
 * Copyright 2018-2025 Yury Gribov
 *
 * The MIT License (MIT)
 *
 * Use of this source code is governed by MIT license that can be
 * found in the LICENSE.txt file.
 */

  .globl hb_draw_funcs_make_immutable
  .p2align 4
  .type hb_draw_funcs_make_immutable, %function
#ifndef IMPLIB_EXPORT_SHIMS
  .hidden hb_draw_funcs_make_immutable
#endif
hb_draw_funcs_make_immutable:
  .cfi_startproc

1:
  // Load address
  // TODO: can we do this faster on newer ARMs?
  ldr ip, 3f
2:
  add ip, pc, ip
  ldr ip, [ip]

  cmp ip, #0

  // Fast path
  bxne ip

  // Slow path
  ldr ip, =102
  push {ip}
  .cfi_adjust_cfa_offset 4
  PUSH_REG(lr)
  bl _libharfbuzz_so_save_regs_and_resolve
  POP_REG(lr)
  add sp, #4
  .cfi_adjust_cfa_offset -4
  bx ip

  // Force constant pool for ldr above
  .ltorg

  .cfi_endproc

3:
  .word _libharfbuzz_so_tramp_table - (2b + 8) + 408

/*
 * Copyright 2018-2025 Yury Gribov
 *
 * The MIT License (MIT)
 *
 * Use of this source code is governed by MIT license that can be
 * found in the LICENSE.txt file.
 */

  .globl hb_draw_funcs_reference
  .p2align 4
  .type hb_draw_funcs_reference, %function
#ifndef IMPLIB_EXPORT_SHIMS
  .hidden hb_draw_funcs_reference
#endif
hb_draw_funcs_reference:
  .cfi_startproc

1:
  // Load address
  // TODO: can we do this faster on newer ARMs?
  ldr ip, 3f
2:
  add ip, pc, ip
  ldr ip, [ip]

  cmp ip, #0

  // Fast path
  bxne ip

  // Slow path
  ldr ip, =103
  push {ip}
  .cfi_adjust_cfa_offset 4
  PUSH_REG(lr)
  bl _libharfbuzz_so_save_regs_and_resolve
  POP_REG(lr)
  add sp, #4
  .cfi_adjust_cfa_offset -4
  bx ip

  // Force constant pool for ldr above
  .ltorg

  .cfi_endproc

3:
  .word _libharfbuzz_so_tramp_table - (2b + 8) + 412

/*
 * Copyright 2018-2025 Yury Gribov
 *
 * The MIT License (MIT)
 *
 * Use of this source code is governed by MIT license that can be
 * found in the LICENSE.txt file.
 */

  .globl hb_draw_funcs_set_close_path_func
  .p2align 4
  .type hb_draw_funcs_set_close_path_func, %function
#ifndef IMPLIB_EXPORT_SHIMS
  .hidden hb_draw_funcs_set_close_path_func
#endif
hb_draw_funcs_set_close_path_func:
  .cfi_startproc

1:
  // Load address
  // TODO: can we do this faster on newer ARMs?
  ldr ip, 3f
2:
  add ip, pc, ip
  ldr ip, [ip]

  cmp ip, #0

  // Fast path
  bxne ip

  // Slow path
  ldr ip, =104
  push {ip}
  .cfi_adjust_cfa_offset 4
  PUSH_REG(lr)
  bl _libharfbuzz_so_save_regs_and_resolve
  POP_REG(lr)
  add sp, #4
  .cfi_adjust_cfa_offset -4
  bx ip

  // Force constant pool for ldr above
  .ltorg

  .cfi_endproc

3:
  .word _libharfbuzz_so_tramp_table - (2b + 8) + 416

/*
 * Copyright 2018-2025 Yury Gribov
 *
 * The MIT License (MIT)
 *
 * Use of this source code is governed by MIT license that can be
 * found in the LICENSE.txt file.
 */

  .globl hb_draw_funcs_set_cubic_to_func
  .p2align 4
  .type hb_draw_funcs_set_cubic_to_func, %function
#ifndef IMPLIB_EXPORT_SHIMS
  .hidden hb_draw_funcs_set_cubic_to_func
#endif
hb_draw_funcs_set_cubic_to_func:
  .cfi_startproc

1:
  // Load address
  // TODO: can we do this faster on newer ARMs?
  ldr ip, 3f
2:
  add ip, pc, ip
  ldr ip, [ip]

  cmp ip, #0

  // Fast path
  bxne ip

  // Slow path
  ldr ip, =105
  push {ip}
  .cfi_adjust_cfa_offset 4
  PUSH_REG(lr)
  bl _libharfbuzz_so_save_regs_and_resolve
  POP_REG(lr)
  add sp, #4
  .cfi_adjust_cfa_offset -4
  bx ip

  // Force constant pool for ldr above
  .ltorg

  .cfi_endproc

3:
  .word _libharfbuzz_so_tramp_table - (2b + 8) + 420

/*
 * Copyright 2018-2025 Yury Gribov
 *
 * The MIT License (MIT)
 *
 * Use of this source code is governed by MIT license that can be
 * found in the LICENSE.txt file.
 */

  .globl hb_draw_funcs_set_line_to_func
  .p2align 4
  .type hb_draw_funcs_set_line_to_func, %function
#ifndef IMPLIB_EXPORT_SHIMS
  .hidden hb_draw_funcs_set_line_to_func
#endif
hb_draw_funcs_set_line_to_func:
  .cfi_startproc

1:
  // Load address
  // TODO: can we do this faster on newer ARMs?
  ldr ip, 3f
2:
  add ip, pc, ip
  ldr ip, [ip]

  cmp ip, #0

  // Fast path
  bxne ip

  // Slow path
  ldr ip, =106
  push {ip}
  .cfi_adjust_cfa_offset 4
  PUSH_REG(lr)
  bl _libharfbuzz_so_save_regs_and_resolve
  POP_REG(lr)
  add sp, #4
  .cfi_adjust_cfa_offset -4
  bx ip

  // Force constant pool for ldr above
  .ltorg

  .cfi_endproc

3:
  .word _libharfbuzz_so_tramp_table - (2b + 8) + 424

/*
 * Copyright 2018-2025 Yury Gribov
 *
 * The MIT License (MIT)
 *
 * Use of this source code is governed by MIT license that can be
 * found in the LICENSE.txt file.
 */

  .globl hb_draw_funcs_set_move_to_func
  .p2align 4
  .type hb_draw_funcs_set_move_to_func, %function
#ifndef IMPLIB_EXPORT_SHIMS
  .hidden hb_draw_funcs_set_move_to_func
#endif
hb_draw_funcs_set_move_to_func:
  .cfi_startproc

1:
  // Load address
  // TODO: can we do this faster on newer ARMs?
  ldr ip, 3f
2:
  add ip, pc, ip
  ldr ip, [ip]

  cmp ip, #0

  // Fast path
  bxne ip

  // Slow path
  ldr ip, =107
  push {ip}
  .cfi_adjust_cfa_offset 4
  PUSH_REG(lr)
  bl _libharfbuzz_so_save_regs_and_resolve
  POP_REG(lr)
  add sp, #4
  .cfi_adjust_cfa_offset -4
  bx ip

  // Force constant pool for ldr above
  .ltorg

  .cfi_endproc

3:
  .word _libharfbuzz_so_tramp_table - (2b + 8) + 428

/*
 * Copyright 2018-2025 Yury Gribov
 *
 * The MIT License (MIT)
 *
 * Use of this source code is governed by MIT license that can be
 * found in the LICENSE.txt file.
 */

  .globl hb_draw_funcs_set_quadratic_to_func
  .p2align 4
  .type hb_draw_funcs_set_quadratic_to_func, %function
#ifndef IMPLIB_EXPORT_SHIMS
  .hidden hb_draw_funcs_set_quadratic_to_func
#endif
hb_draw_funcs_set_quadratic_to_func:
  .cfi_startproc

1:
  // Load address
  // TODO: can we do this faster on newer ARMs?
  ldr ip, 3f
2:
  add ip, pc, ip
  ldr ip, [ip]

  cmp ip, #0

  // Fast path
  bxne ip

  // Slow path
  ldr ip, =108
  push {ip}
  .cfi_adjust_cfa_offset 4
  PUSH_REG(lr)
  bl _libharfbuzz_so_save_regs_and_resolve
  POP_REG(lr)
  add sp, #4
  .cfi_adjust_cfa_offset -4
  bx ip

  // Force constant pool for ldr above
  .ltorg

  .cfi_endproc

3:
  .word _libharfbuzz_so_tramp_table - (2b + 8) + 432

/*
 * Copyright 2018-2025 Yury Gribov
 *
 * The MIT License (MIT)
 *
 * Use of this source code is governed by MIT license that can be
 * found in the LICENSE.txt file.
 */

  .globl hb_draw_funcs_set_user_data
  .p2align 4
  .type hb_draw_funcs_set_user_data, %function
#ifndef IMPLIB_EXPORT_SHIMS
  .hidden hb_draw_funcs_set_user_data
#endif
hb_draw_funcs_set_user_data:
  .cfi_startproc

1:
  // Load address
  // TODO: can we do this faster on newer ARMs?
  ldr ip, 3f
2:
  add ip, pc, ip
  ldr ip, [ip]

  cmp ip, #0

  // Fast path
  bxne ip

  // Slow path
  ldr ip, =109
  push {ip}
  .cfi_adjust_cfa_offset 4
  PUSH_REG(lr)
  bl _libharfbuzz_so_save_regs_and_resolve
  POP_REG(lr)
  add sp, #4
  .cfi_adjust_cfa_offset -4
  bx ip

  // Force constant pool for ldr above
  .ltorg

  .cfi_endproc

3:
  .word _libharfbuzz_so_tramp_table - (2b + 8) + 436

/*
 * Copyright 2018-2025 Yury Gribov
 *
 * The MIT License (MIT)
 *
 * Use of this source code is governed by MIT license that can be
 * found in the LICENSE.txt file.
 */

  .globl hb_draw_line_to
  .p2align 4
  .type hb_draw_line_to, %function
#ifndef IMPLIB_EXPORT_SHIMS
  .hidden hb_draw_line_to
#endif
hb_draw_line_to:
  .cfi_startproc

1:
  // Load address
  // TODO: can we do this faster on newer ARMs?
  ldr ip, 3f
2:
  add ip, pc, ip
  ldr ip, [ip]

  cmp ip, #0

  // Fast path
  bxne ip

  // Slow path
  ldr ip, =110
  push {ip}
  .cfi_adjust_cfa_offset 4
  PUSH_REG(lr)
  bl _libharfbuzz_so_save_regs_and_resolve
  POP_REG(lr)
  add sp, #4
  .cfi_adjust_cfa_offset -4
  bx ip

  // Force constant pool for ldr above
  .ltorg

  .cfi_endproc

3:
  .word _libharfbuzz_so_tramp_table - (2b + 8) + 440

/*
 * Copyright 2018-2025 Yury Gribov
 *
 * The MIT License (MIT)
 *
 * Use of this source code is governed by MIT license that can be
 * found in the LICENSE.txt file.
 */

  .globl hb_draw_move_to
  .p2align 4
  .type hb_draw_move_to, %function
#ifndef IMPLIB_EXPORT_SHIMS
  .hidden hb_draw_move_to
#endif
hb_draw_move_to:
  .cfi_startproc

1:
  // Load address
  // TODO: can we do this faster on newer ARMs?
  ldr ip, 3f
2:
  add ip, pc, ip
  ldr ip, [ip]

  cmp ip, #0

  // Fast path
  bxne ip

  // Slow path
  ldr ip, =111
  push {ip}
  .cfi_adjust_cfa_offset 4
  PUSH_REG(lr)
  bl _libharfbuzz_so_save_regs_and_resolve
  POP_REG(lr)
  add sp, #4
  .cfi_adjust_cfa_offset -4
  bx ip

  // Force constant pool for ldr above
  .ltorg

  .cfi_endproc

3:
  .word _libharfbuzz_so_tramp_table - (2b + 8) + 444

/*
 * Copyright 2018-2025 Yury Gribov
 *
 * The MIT License (MIT)
 *
 * Use of this source code is governed by MIT license that can be
 * found in the LICENSE.txt file.
 */

  .globl hb_draw_quadratic_to
  .p2align 4
  .type hb_draw_quadratic_to, %function
#ifndef IMPLIB_EXPORT_SHIMS
  .hidden hb_draw_quadratic_to
#endif
hb_draw_quadratic_to:
  .cfi_startproc

1:
  // Load address
  // TODO: can we do this faster on newer ARMs?
  ldr ip, 3f
2:
  add ip, pc, ip
  ldr ip, [ip]

  cmp ip, #0

  // Fast path
  bxne ip

  // Slow path
  ldr ip, =112
  push {ip}
  .cfi_adjust_cfa_offset 4
  PUSH_REG(lr)
  bl _libharfbuzz_so_save_regs_and_resolve
  POP_REG(lr)
  add sp, #4
  .cfi_adjust_cfa_offset -4
  bx ip

  // Force constant pool for ldr above
  .ltorg

  .cfi_endproc

3:
  .word _libharfbuzz_so_tramp_table - (2b + 8) + 448

/*
 * Copyright 2018-2025 Yury Gribov
 *
 * The MIT License (MIT)
 *
 * Use of this source code is governed by MIT license that can be
 * found in the LICENSE.txt file.
 */

  .globl hb_face_builder_add_table
  .p2align 4
  .type hb_face_builder_add_table, %function
#ifndef IMPLIB_EXPORT_SHIMS
  .hidden hb_face_builder_add_table
#endif
hb_face_builder_add_table:
  .cfi_startproc

1:
  // Load address
  // TODO: can we do this faster on newer ARMs?
  ldr ip, 3f
2:
  add ip, pc, ip
  ldr ip, [ip]

  cmp ip, #0

  // Fast path
  bxne ip

  // Slow path
  ldr ip, =113
  push {ip}
  .cfi_adjust_cfa_offset 4
  PUSH_REG(lr)
  bl _libharfbuzz_so_save_regs_and_resolve
  POP_REG(lr)
  add sp, #4
  .cfi_adjust_cfa_offset -4
  bx ip

  // Force constant pool for ldr above
  .ltorg

  .cfi_endproc

3:
  .word _libharfbuzz_so_tramp_table - (2b + 8) + 452

/*
 * Copyright 2018-2025 Yury Gribov
 *
 * The MIT License (MIT)
 *
 * Use of this source code is governed by MIT license that can be
 * found in the LICENSE.txt file.
 */

  .globl hb_face_builder_create
  .p2align 4
  .type hb_face_builder_create, %function
#ifndef IMPLIB_EXPORT_SHIMS
  .hidden hb_face_builder_create
#endif
hb_face_builder_create:
  .cfi_startproc

1:
  // Load address
  // TODO: can we do this faster on newer ARMs?
  ldr ip, 3f
2:
  add ip, pc, ip
  ldr ip, [ip]

  cmp ip, #0

  // Fast path
  bxne ip

  // Slow path
  ldr ip, =114
  push {ip}
  .cfi_adjust_cfa_offset 4
  PUSH_REG(lr)
  bl _libharfbuzz_so_save_regs_and_resolve
  POP_REG(lr)
  add sp, #4
  .cfi_adjust_cfa_offset -4
  bx ip

  // Force constant pool for ldr above
  .ltorg

  .cfi_endproc

3:
  .word _libharfbuzz_so_tramp_table - (2b + 8) + 456

/*
 * Copyright 2018-2025 Yury Gribov
 *
 * The MIT License (MIT)
 *
 * Use of this source code is governed by MIT license that can be
 * found in the LICENSE.txt file.
 */

  .globl hb_face_builder_sort_tables
  .p2align 4
  .type hb_face_builder_sort_tables, %function
#ifndef IMPLIB_EXPORT_SHIMS
  .hidden hb_face_builder_sort_tables
#endif
hb_face_builder_sort_tables:
  .cfi_startproc

1:
  // Load address
  // TODO: can we do this faster on newer ARMs?
  ldr ip, 3f
2:
  add ip, pc, ip
  ldr ip, [ip]

  cmp ip, #0

  // Fast path
  bxne ip

  // Slow path
  ldr ip, =115
  push {ip}
  .cfi_adjust_cfa_offset 4
  PUSH_REG(lr)
  bl _libharfbuzz_so_save_regs_and_resolve
  POP_REG(lr)
  add sp, #4
  .cfi_adjust_cfa_offset -4
  bx ip

  // Force constant pool for ldr above
  .ltorg

  .cfi_endproc

3:
  .word _libharfbuzz_so_tramp_table - (2b + 8) + 460

/*
 * Copyright 2018-2025 Yury Gribov
 *
 * The MIT License (MIT)
 *
 * Use of this source code is governed by MIT license that can be
 * found in the LICENSE.txt file.
 */

  .globl hb_face_collect_nominal_glyph_mapping
  .p2align 4
  .type hb_face_collect_nominal_glyph_mapping, %function
#ifndef IMPLIB_EXPORT_SHIMS
  .hidden hb_face_collect_nominal_glyph_mapping
#endif
hb_face_collect_nominal_glyph_mapping:
  .cfi_startproc

1:
  // Load address
  // TODO: can we do this faster on newer ARMs?
  ldr ip, 3f
2:
  add ip, pc, ip
  ldr ip, [ip]

  cmp ip, #0

  // Fast path
  bxne ip

  // Slow path
  ldr ip, =116
  push {ip}
  .cfi_adjust_cfa_offset 4
  PUSH_REG(lr)
  bl _libharfbuzz_so_save_regs_and_resolve
  POP_REG(lr)
  add sp, #4
  .cfi_adjust_cfa_offset -4
  bx ip

  // Force constant pool for ldr above
  .ltorg

  .cfi_endproc

3:
  .word _libharfbuzz_so_tramp_table - (2b + 8) + 464

/*
 * Copyright 2018-2025 Yury Gribov
 *
 * The MIT License (MIT)
 *
 * Use of this source code is governed by MIT license that can be
 * found in the LICENSE.txt file.
 */

  .globl hb_face_collect_unicodes
  .p2align 4
  .type hb_face_collect_unicodes, %function
#ifndef IMPLIB_EXPORT_SHIMS
  .hidden hb_face_collect_unicodes
#endif
hb_face_collect_unicodes:
  .cfi_startproc

1:
  // Load address
  // TODO: can we do this faster on newer ARMs?
  ldr ip, 3f
2:
  add ip, pc, ip
  ldr ip, [ip]

  cmp ip, #0

  // Fast path
  bxne ip

  // Slow path
  ldr ip, =117
  push {ip}
  .cfi_adjust_cfa_offset 4
  PUSH_REG(lr)
  bl _libharfbuzz_so_save_regs_and_resolve
  POP_REG(lr)
  add sp, #4
  .cfi_adjust_cfa_offset -4
  bx ip

  // Force constant pool for ldr above
  .ltorg

  .cfi_endproc

3:
  .word _libharfbuzz_so_tramp_table - (2b + 8) + 468

/*
 * Copyright 2018-2025 Yury Gribov
 *
 * The MIT License (MIT)
 *
 * Use of this source code is governed by MIT license that can be
 * found in the LICENSE.txt file.
 */

  .globl hb_face_collect_variation_selectors
  .p2align 4
  .type hb_face_collect_variation_selectors, %function
#ifndef IMPLIB_EXPORT_SHIMS
  .hidden hb_face_collect_variation_selectors
#endif
hb_face_collect_variation_selectors:
  .cfi_startproc

1:
  // Load address
  // TODO: can we do this faster on newer ARMs?
  ldr ip, 3f
2:
  add ip, pc, ip
  ldr ip, [ip]

  cmp ip, #0

  // Fast path
  bxne ip

  // Slow path
  ldr ip, =118
  push {ip}
  .cfi_adjust_cfa_offset 4
  PUSH_REG(lr)
  bl _libharfbuzz_so_save_regs_and_resolve
  POP_REG(lr)
  add sp, #4
  .cfi_adjust_cfa_offset -4
  bx ip

  // Force constant pool for ldr above
  .ltorg

  .cfi_endproc

3:
  .word _libharfbuzz_so_tramp_table - (2b + 8) + 472

/*
 * Copyright 2018-2025 Yury Gribov
 *
 * The MIT License (MIT)
 *
 * Use of this source code is governed by MIT license that can be
 * found in the LICENSE.txt file.
 */

  .globl hb_face_collect_variation_unicodes
  .p2align 4
  .type hb_face_collect_variation_unicodes, %function
#ifndef IMPLIB_EXPORT_SHIMS
  .hidden hb_face_collect_variation_unicodes
#endif
hb_face_collect_variation_unicodes:
  .cfi_startproc

1:
  // Load address
  // TODO: can we do this faster on newer ARMs?
  ldr ip, 3f
2:
  add ip, pc, ip
  ldr ip, [ip]

  cmp ip, #0

  // Fast path
  bxne ip

  // Slow path
  ldr ip, =119
  push {ip}
  .cfi_adjust_cfa_offset 4
  PUSH_REG(lr)
  bl _libharfbuzz_so_save_regs_and_resolve
  POP_REG(lr)
  add sp, #4
  .cfi_adjust_cfa_offset -4
  bx ip

  // Force constant pool for ldr above
  .ltorg

  .cfi_endproc

3:
  .word _libharfbuzz_so_tramp_table - (2b + 8) + 476

/*
 * Copyright 2018-2025 Yury Gribov
 *
 * The MIT License (MIT)
 *
 * Use of this source code is governed by MIT license that can be
 * found in the LICENSE.txt file.
 */

  .globl hb_face_count
  .p2align 4
  .type hb_face_count, %function
#ifndef IMPLIB_EXPORT_SHIMS
  .hidden hb_face_count
#endif
hb_face_count:
  .cfi_startproc

1:
  // Load address
  // TODO: can we do this faster on newer ARMs?
  ldr ip, 3f
2:
  add ip, pc, ip
  ldr ip, [ip]

  cmp ip, #0

  // Fast path
  bxne ip

  // Slow path
  ldr ip, =120
  push {ip}
  .cfi_adjust_cfa_offset 4
  PUSH_REG(lr)
  bl _libharfbuzz_so_save_regs_and_resolve
  POP_REG(lr)
  add sp, #4
  .cfi_adjust_cfa_offset -4
  bx ip

  // Force constant pool for ldr above
  .ltorg

  .cfi_endproc

3:
  .word _libharfbuzz_so_tramp_table - (2b + 8) + 480

/*
 * Copyright 2018-2025 Yury Gribov
 *
 * The MIT License (MIT)
 *
 * Use of this source code is governed by MIT license that can be
 * found in the LICENSE.txt file.
 */

  .globl hb_face_create
  .p2align 4
  .type hb_face_create, %function
#ifndef IMPLIB_EXPORT_SHIMS
  .hidden hb_face_create
#endif
hb_face_create:
  .cfi_startproc

1:
  // Load address
  // TODO: can we do this faster on newer ARMs?
  ldr ip, 3f
2:
  add ip, pc, ip
  ldr ip, [ip]

  cmp ip, #0

  // Fast path
  bxne ip

  // Slow path
  ldr ip, =121
  push {ip}
  .cfi_adjust_cfa_offset 4
  PUSH_REG(lr)
  bl _libharfbuzz_so_save_regs_and_resolve
  POP_REG(lr)
  add sp, #4
  .cfi_adjust_cfa_offset -4
  bx ip

  // Force constant pool for ldr above
  .ltorg

  .cfi_endproc

3:
  .word _libharfbuzz_so_tramp_table - (2b + 8) + 484

/*
 * Copyright 2018-2025 Yury Gribov
 *
 * The MIT License (MIT)
 *
 * Use of this source code is governed by MIT license that can be
 * found in the LICENSE.txt file.
 */

  .globl hb_face_create_for_tables
  .p2align 4
  .type hb_face_create_for_tables, %function
#ifndef IMPLIB_EXPORT_SHIMS
  .hidden hb_face_create_for_tables
#endif
hb_face_create_for_tables:
  .cfi_startproc

1:
  // Load address
  // TODO: can we do this faster on newer ARMs?
  ldr ip, 3f
2:
  add ip, pc, ip
  ldr ip, [ip]

  cmp ip, #0

  // Fast path
  bxne ip

  // Slow path
  ldr ip, =122
  push {ip}
  .cfi_adjust_cfa_offset 4
  PUSH_REG(lr)
  bl _libharfbuzz_so_save_regs_and_resolve
  POP_REG(lr)
  add sp, #4
  .cfi_adjust_cfa_offset -4
  bx ip

  // Force constant pool for ldr above
  .ltorg

  .cfi_endproc

3:
  .word _libharfbuzz_so_tramp_table - (2b + 8) + 488

/*
 * Copyright 2018-2025 Yury Gribov
 *
 * The MIT License (MIT)
 *
 * Use of this source code is governed by MIT license that can be
 * found in the LICENSE.txt file.
 */

  .globl hb_face_create_from_file_or_fail
  .p2align 4
  .type hb_face_create_from_file_or_fail, %function
#ifndef IMPLIB_EXPORT_SHIMS
  .hidden hb_face_create_from_file_or_fail
#endif
hb_face_create_from_file_or_fail:
  .cfi_startproc

1:
  // Load address
  // TODO: can we do this faster on newer ARMs?
  ldr ip, 3f
2:
  add ip, pc, ip
  ldr ip, [ip]

  cmp ip, #0

  // Fast path
  bxne ip

  // Slow path
  ldr ip, =123
  push {ip}
  .cfi_adjust_cfa_offset 4
  PUSH_REG(lr)
  bl _libharfbuzz_so_save_regs_and_resolve
  POP_REG(lr)
  add sp, #4
  .cfi_adjust_cfa_offset -4
  bx ip

  // Force constant pool for ldr above
  .ltorg

  .cfi_endproc

3:
  .word _libharfbuzz_so_tramp_table - (2b + 8) + 492

/*
 * Copyright 2018-2025 Yury Gribov
 *
 * The MIT License (MIT)
 *
 * Use of this source code is governed by MIT license that can be
 * found in the LICENSE.txt file.
 */

  .globl hb_face_create_from_file_or_fail_using
  .p2align 4
  .type hb_face_create_from_file_or_fail_using, %function
#ifndef IMPLIB_EXPORT_SHIMS
  .hidden hb_face_create_from_file_or_fail_using
#endif
hb_face_create_from_file_or_fail_using:
  .cfi_startproc

1:
  // Load address
  // TODO: can we do this faster on newer ARMs?
  ldr ip, 3f
2:
  add ip, pc, ip
  ldr ip, [ip]

  cmp ip, #0

  // Fast path
  bxne ip

  // Slow path
  ldr ip, =124
  push {ip}
  .cfi_adjust_cfa_offset 4
  PUSH_REG(lr)
  bl _libharfbuzz_so_save_regs_and_resolve
  POP_REG(lr)
  add sp, #4
  .cfi_adjust_cfa_offset -4
  bx ip

  // Force constant pool for ldr above
  .ltorg

  .cfi_endproc

3:
  .word _libharfbuzz_so_tramp_table - (2b + 8) + 496

/*
 * Copyright 2018-2025 Yury Gribov
 *
 * The MIT License (MIT)
 *
 * Use of this source code is governed by MIT license that can be
 * found in the LICENSE.txt file.
 */

  .globl hb_face_create_or_fail
  .p2align 4
  .type hb_face_create_or_fail, %function
#ifndef IMPLIB_EXPORT_SHIMS
  .hidden hb_face_create_or_fail
#endif
hb_face_create_or_fail:
  .cfi_startproc

1:
  // Load address
  // TODO: can we do this faster on newer ARMs?
  ldr ip, 3f
2:
  add ip, pc, ip
  ldr ip, [ip]

  cmp ip, #0

  // Fast path
  bxne ip

  // Slow path
  ldr ip, =125
  push {ip}
  .cfi_adjust_cfa_offset 4
  PUSH_REG(lr)
  bl _libharfbuzz_so_save_regs_and_resolve
  POP_REG(lr)
  add sp, #4
  .cfi_adjust_cfa_offset -4
  bx ip

  // Force constant pool for ldr above
  .ltorg

  .cfi_endproc

3:
  .word _libharfbuzz_so_tramp_table - (2b + 8) + 500

/*
 * Copyright 2018-2025 Yury Gribov
 *
 * The MIT License (MIT)
 *
 * Use of this source code is governed by MIT license that can be
 * found in the LICENSE.txt file.
 */

  .globl hb_face_create_or_fail_using
  .p2align 4
  .type hb_face_create_or_fail_using, %function
#ifndef IMPLIB_EXPORT_SHIMS
  .hidden hb_face_create_or_fail_using
#endif
hb_face_create_or_fail_using:
  .cfi_startproc

1:
  // Load address
  // TODO: can we do this faster on newer ARMs?
  ldr ip, 3f
2:
  add ip, pc, ip
  ldr ip, [ip]

  cmp ip, #0

  // Fast path
  bxne ip

  // Slow path
  ldr ip, =126
  push {ip}
  .cfi_adjust_cfa_offset 4
  PUSH_REG(lr)
  bl _libharfbuzz_so_save_regs_and_resolve
  POP_REG(lr)
  add sp, #4
  .cfi_adjust_cfa_offset -4
  bx ip

  // Force constant pool for ldr above
  .ltorg

  .cfi_endproc

3:
  .word _libharfbuzz_so_tramp_table - (2b + 8) + 504

/*
 * Copyright 2018-2025 Yury Gribov
 *
 * The MIT License (MIT)
 *
 * Use of this source code is governed by MIT license that can be
 * found in the LICENSE.txt file.
 */

  .globl hb_face_destroy
  .p2align 4
  .type hb_face_destroy, %function
#ifndef IMPLIB_EXPORT_SHIMS
  .hidden hb_face_destroy
#endif
hb_face_destroy:
  .cfi_startproc

1:
  // Load address
  // TODO: can we do this faster on newer ARMs?
  ldr ip, 3f
2:
  add ip, pc, ip
  ldr ip, [ip]

  cmp ip, #0

  // Fast path
  bxne ip

  // Slow path
  ldr ip, =127
  push {ip}
  .cfi_adjust_cfa_offset 4
  PUSH_REG(lr)
  bl _libharfbuzz_so_save_regs_and_resolve
  POP_REG(lr)
  add sp, #4
  .cfi_adjust_cfa_offset -4
  bx ip

  // Force constant pool for ldr above
  .ltorg

  .cfi_endproc

3:
  .word _libharfbuzz_so_tramp_table - (2b + 8) + 508

/*
 * Copyright 2018-2025 Yury Gribov
 *
 * The MIT License (MIT)
 *
 * Use of this source code is governed by MIT license that can be
 * found in the LICENSE.txt file.
 */

  .globl hb_face_get_empty
  .p2align 4
  .type hb_face_get_empty, %function
#ifndef IMPLIB_EXPORT_SHIMS
  .hidden hb_face_get_empty
#endif
hb_face_get_empty:
  .cfi_startproc

1:
  // Load address
  // TODO: can we do this faster on newer ARMs?
  ldr ip, 3f
2:
  add ip, pc, ip
  ldr ip, [ip]

  cmp ip, #0

  // Fast path
  bxne ip

  // Slow path
  ldr ip, =128
  push {ip}
  .cfi_adjust_cfa_offset 4
  PUSH_REG(lr)
  bl _libharfbuzz_so_save_regs_and_resolve
  POP_REG(lr)
  add sp, #4
  .cfi_adjust_cfa_offset -4
  bx ip

  // Force constant pool for ldr above
  .ltorg

  .cfi_endproc

3:
  .word _libharfbuzz_so_tramp_table - (2b + 8) + 512

/*
 * Copyright 2018-2025 Yury Gribov
 *
 * The MIT License (MIT)
 *
 * Use of this source code is governed by MIT license that can be
 * found in the LICENSE.txt file.
 */

  .globl hb_face_get_glyph_count
  .p2align 4
  .type hb_face_get_glyph_count, %function
#ifndef IMPLIB_EXPORT_SHIMS
  .hidden hb_face_get_glyph_count
#endif
hb_face_get_glyph_count:
  .cfi_startproc

1:
  // Load address
  // TODO: can we do this faster on newer ARMs?
  ldr ip, 3f
2:
  add ip, pc, ip
  ldr ip, [ip]

  cmp ip, #0

  // Fast path
  bxne ip

  // Slow path
  ldr ip, =129
  push {ip}
  .cfi_adjust_cfa_offset 4
  PUSH_REG(lr)
  bl _libharfbuzz_so_save_regs_and_resolve
  POP_REG(lr)
  add sp, #4
  .cfi_adjust_cfa_offset -4
  bx ip

  // Force constant pool for ldr above
  .ltorg

  .cfi_endproc

3:
  .word _libharfbuzz_so_tramp_table - (2b + 8) + 516

/*
 * Copyright 2018-2025 Yury Gribov
 *
 * The MIT License (MIT)
 *
 * Use of this source code is governed by MIT license that can be
 * found in the LICENSE.txt file.
 */

  .globl hb_face_get_index
  .p2align 4
  .type hb_face_get_index, %function
#ifndef IMPLIB_EXPORT_SHIMS
  .hidden hb_face_get_index
#endif
hb_face_get_index:
  .cfi_startproc

1:
  // Load address
  // TODO: can we do this faster on newer ARMs?
  ldr ip, 3f
2:
  add ip, pc, ip
  ldr ip, [ip]

  cmp ip, #0

  // Fast path
  bxne ip

  // Slow path
  ldr ip, =130
  push {ip}
  .cfi_adjust_cfa_offset 4
  PUSH_REG(lr)
  bl _libharfbuzz_so_save_regs_and_resolve
  POP_REG(lr)
  add sp, #4
  .cfi_adjust_cfa_offset -4
  bx ip

  // Force constant pool for ldr above
  .ltorg

  .cfi_endproc

3:
  .word _libharfbuzz_so_tramp_table - (2b + 8) + 520

/*
 * Copyright 2018-2025 Yury Gribov
 *
 * The MIT License (MIT)
 *
 * Use of this source code is governed by MIT license that can be
 * found in the LICENSE.txt file.
 */

  .globl hb_face_get_table_tags
  .p2align 4
  .type hb_face_get_table_tags, %function
#ifndef IMPLIB_EXPORT_SHIMS
  .hidden hb_face_get_table_tags
#endif
hb_face_get_table_tags:
  .cfi_startproc

1:
  // Load address
  // TODO: can we do this faster on newer ARMs?
  ldr ip, 3f
2:
  add ip, pc, ip
  ldr ip, [ip]

  cmp ip, #0

  // Fast path
  bxne ip

  // Slow path
  ldr ip, =131
  push {ip}
  .cfi_adjust_cfa_offset 4
  PUSH_REG(lr)
  bl _libharfbuzz_so_save_regs_and_resolve
  POP_REG(lr)
  add sp, #4
  .cfi_adjust_cfa_offset -4
  bx ip

  // Force constant pool for ldr above
  .ltorg

  .cfi_endproc

3:
  .word _libharfbuzz_so_tramp_table - (2b + 8) + 524

/*
 * Copyright 2018-2025 Yury Gribov
 *
 * The MIT License (MIT)
 *
 * Use of this source code is governed by MIT license that can be
 * found in the LICENSE.txt file.
 */

  .globl hb_face_get_upem
  .p2align 4
  .type hb_face_get_upem, %function
#ifndef IMPLIB_EXPORT_SHIMS
  .hidden hb_face_get_upem
#endif
hb_face_get_upem:
  .cfi_startproc

1:
  // Load address
  // TODO: can we do this faster on newer ARMs?
  ldr ip, 3f
2:
  add ip, pc, ip
  ldr ip, [ip]

  cmp ip, #0

  // Fast path
  bxne ip

  // Slow path
  ldr ip, =132
  push {ip}
  .cfi_adjust_cfa_offset 4
  PUSH_REG(lr)
  bl _libharfbuzz_so_save_regs_and_resolve
  POP_REG(lr)
  add sp, #4
  .cfi_adjust_cfa_offset -4
  bx ip

  // Force constant pool for ldr above
  .ltorg

  .cfi_endproc

3:
  .word _libharfbuzz_so_tramp_table - (2b + 8) + 528

/*
 * Copyright 2018-2025 Yury Gribov
 *
 * The MIT License (MIT)
 *
 * Use of this source code is governed by MIT license that can be
 * found in the LICENSE.txt file.
 */

  .globl hb_face_get_user_data
  .p2align 4
  .type hb_face_get_user_data, %function
#ifndef IMPLIB_EXPORT_SHIMS
  .hidden hb_face_get_user_data
#endif
hb_face_get_user_data:
  .cfi_startproc

1:
  // Load address
  // TODO: can we do this faster on newer ARMs?
  ldr ip, 3f
2:
  add ip, pc, ip
  ldr ip, [ip]

  cmp ip, #0

  // Fast path
  bxne ip

  // Slow path
  ldr ip, =133
  push {ip}
  .cfi_adjust_cfa_offset 4
  PUSH_REG(lr)
  bl _libharfbuzz_so_save_regs_and_resolve
  POP_REG(lr)
  add sp, #4
  .cfi_adjust_cfa_offset -4
  bx ip

  // Force constant pool for ldr above
  .ltorg

  .cfi_endproc

3:
  .word _libharfbuzz_so_tramp_table - (2b + 8) + 532

/*
 * Copyright 2018-2025 Yury Gribov
 *
 * The MIT License (MIT)
 *
 * Use of this source code is governed by MIT license that can be
 * found in the LICENSE.txt file.
 */

  .globl hb_face_is_immutable
  .p2align 4
  .type hb_face_is_immutable, %function
#ifndef IMPLIB_EXPORT_SHIMS
  .hidden hb_face_is_immutable
#endif
hb_face_is_immutable:
  .cfi_startproc

1:
  // Load address
  // TODO: can we do this faster on newer ARMs?
  ldr ip, 3f
2:
  add ip, pc, ip
  ldr ip, [ip]

  cmp ip, #0

  // Fast path
  bxne ip

  // Slow path
  ldr ip, =134
  push {ip}
  .cfi_adjust_cfa_offset 4
  PUSH_REG(lr)
  bl _libharfbuzz_so_save_regs_and_resolve
  POP_REG(lr)
  add sp, #4
  .cfi_adjust_cfa_offset -4
  bx ip

  // Force constant pool for ldr above
  .ltorg

  .cfi_endproc

3:
  .word _libharfbuzz_so_tramp_table - (2b + 8) + 536

/*
 * Copyright 2018-2025 Yury Gribov
 *
 * The MIT License (MIT)
 *
 * Use of this source code is governed by MIT license that can be
 * found in the LICENSE.txt file.
 */

  .globl hb_face_list_loaders
  .p2align 4
  .type hb_face_list_loaders, %function
#ifndef IMPLIB_EXPORT_SHIMS
  .hidden hb_face_list_loaders
#endif
hb_face_list_loaders:
  .cfi_startproc

1:
  // Load address
  // TODO: can we do this faster on newer ARMs?
  ldr ip, 3f
2:
  add ip, pc, ip
  ldr ip, [ip]

  cmp ip, #0

  // Fast path
  bxne ip

  // Slow path
  ldr ip, =135
  push {ip}
  .cfi_adjust_cfa_offset 4
  PUSH_REG(lr)
  bl _libharfbuzz_so_save_regs_and_resolve
  POP_REG(lr)
  add sp, #4
  .cfi_adjust_cfa_offset -4
  bx ip

  // Force constant pool for ldr above
  .ltorg

  .cfi_endproc

3:
  .word _libharfbuzz_so_tramp_table - (2b + 8) + 540

/*
 * Copyright 2018-2025 Yury Gribov
 *
 * The MIT License (MIT)
 *
 * Use of this source code is governed by MIT license that can be
 * found in the LICENSE.txt file.
 */

  .globl hb_face_make_immutable
  .p2align 4
  .type hb_face_make_immutable, %function
#ifndef IMPLIB_EXPORT_SHIMS
  .hidden hb_face_make_immutable
#endif
hb_face_make_immutable:
  .cfi_startproc

1:
  // Load address
  // TODO: can we do this faster on newer ARMs?
  ldr ip, 3f
2:
  add ip, pc, ip
  ldr ip, [ip]

  cmp ip, #0

  // Fast path
  bxne ip

  // Slow path
  ldr ip, =136
  push {ip}
  .cfi_adjust_cfa_offset 4
  PUSH_REG(lr)
  bl _libharfbuzz_so_save_regs_and_resolve
  POP_REG(lr)
  add sp, #4
  .cfi_adjust_cfa_offset -4
  bx ip

  // Force constant pool for ldr above
  .ltorg

  .cfi_endproc

3:
  .word _libharfbuzz_so_tramp_table - (2b + 8) + 544

/*
 * Copyright 2018-2025 Yury Gribov
 *
 * The MIT License (MIT)
 *
 * Use of this source code is governed by MIT license that can be
 * found in the LICENSE.txt file.
 */

  .globl hb_face_reference
  .p2align 4
  .type hb_face_reference, %function
#ifndef IMPLIB_EXPORT_SHIMS
  .hidden hb_face_reference
#endif
hb_face_reference:
  .cfi_startproc

1:
  // Load address
  // TODO: can we do this faster on newer ARMs?
  ldr ip, 3f
2:
  add ip, pc, ip
  ldr ip, [ip]

  cmp ip, #0

  // Fast path
  bxne ip

  // Slow path
  ldr ip, =137
  push {ip}
  .cfi_adjust_cfa_offset 4
  PUSH_REG(lr)
  bl _libharfbuzz_so_save_regs_and_resolve
  POP_REG(lr)
  add sp, #4
  .cfi_adjust_cfa_offset -4
  bx ip

  // Force constant pool for ldr above
  .ltorg

  .cfi_endproc

3:
  .word _libharfbuzz_so_tramp_table - (2b + 8) + 548

/*
 * Copyright 2018-2025 Yury Gribov
 *
 * The MIT License (MIT)
 *
 * Use of this source code is governed by MIT license that can be
 * found in the LICENSE.txt file.
 */

  .globl hb_face_reference_blob
  .p2align 4
  .type hb_face_reference_blob, %function
#ifndef IMPLIB_EXPORT_SHIMS
  .hidden hb_face_reference_blob
#endif
hb_face_reference_blob:
  .cfi_startproc

1:
  // Load address
  // TODO: can we do this faster on newer ARMs?
  ldr ip, 3f
2:
  add ip, pc, ip
  ldr ip, [ip]

  cmp ip, #0

  // Fast path
  bxne ip

  // Slow path
  ldr ip, =138
  push {ip}
  .cfi_adjust_cfa_offset 4
  PUSH_REG(lr)
  bl _libharfbuzz_so_save_regs_and_resolve
  POP_REG(lr)
  add sp, #4
  .cfi_adjust_cfa_offset -4
  bx ip

  // Force constant pool for ldr above
  .ltorg

  .cfi_endproc

3:
  .word _libharfbuzz_so_tramp_table - (2b + 8) + 552

/*
 * Copyright 2018-2025 Yury Gribov
 *
 * The MIT License (MIT)
 *
 * Use of this source code is governed by MIT license that can be
 * found in the LICENSE.txt file.
 */

  .globl hb_face_reference_table
  .p2align 4
  .type hb_face_reference_table, %function
#ifndef IMPLIB_EXPORT_SHIMS
  .hidden hb_face_reference_table
#endif
hb_face_reference_table:
  .cfi_startproc

1:
  // Load address
  // TODO: can we do this faster on newer ARMs?
  ldr ip, 3f
2:
  add ip, pc, ip
  ldr ip, [ip]

  cmp ip, #0

  // Fast path
  bxne ip

  // Slow path
  ldr ip, =139
  push {ip}
  .cfi_adjust_cfa_offset 4
  PUSH_REG(lr)
  bl _libharfbuzz_so_save_regs_and_resolve
  POP_REG(lr)
  add sp, #4
  .cfi_adjust_cfa_offset -4
  bx ip

  // Force constant pool for ldr above
  .ltorg

  .cfi_endproc

3:
  .word _libharfbuzz_so_tramp_table - (2b + 8) + 556

/*
 * Copyright 2018-2025 Yury Gribov
 *
 * The MIT License (MIT)
 *
 * Use of this source code is governed by MIT license that can be
 * found in the LICENSE.txt file.
 */

  .globl hb_face_set_get_table_tags_func
  .p2align 4
  .type hb_face_set_get_table_tags_func, %function
#ifndef IMPLIB_EXPORT_SHIMS
  .hidden hb_face_set_get_table_tags_func
#endif
hb_face_set_get_table_tags_func:
  .cfi_startproc

1:
  // Load address
  // TODO: can we do this faster on newer ARMs?
  ldr ip, 3f
2:
  add ip, pc, ip
  ldr ip, [ip]

  cmp ip, #0

  // Fast path
  bxne ip

  // Slow path
  ldr ip, =140
  push {ip}
  .cfi_adjust_cfa_offset 4
  PUSH_REG(lr)
  bl _libharfbuzz_so_save_regs_and_resolve
  POP_REG(lr)
  add sp, #4
  .cfi_adjust_cfa_offset -4
  bx ip

  // Force constant pool for ldr above
  .ltorg

  .cfi_endproc

3:
  .word _libharfbuzz_so_tramp_table - (2b + 8) + 560

/*
 * Copyright 2018-2025 Yury Gribov
 *
 * The MIT License (MIT)
 *
 * Use of this source code is governed by MIT license that can be
 * found in the LICENSE.txt file.
 */

  .globl hb_face_set_glyph_count
  .p2align 4
  .type hb_face_set_glyph_count, %function
#ifndef IMPLIB_EXPORT_SHIMS
  .hidden hb_face_set_glyph_count
#endif
hb_face_set_glyph_count:
  .cfi_startproc

1:
  // Load address
  // TODO: can we do this faster on newer ARMs?
  ldr ip, 3f
2:
  add ip, pc, ip
  ldr ip, [ip]

  cmp ip, #0

  // Fast path
  bxne ip

  // Slow path
  ldr ip, =141
  push {ip}
  .cfi_adjust_cfa_offset 4
  PUSH_REG(lr)
  bl _libharfbuzz_so_save_regs_and_resolve
  POP_REG(lr)
  add sp, #4
  .cfi_adjust_cfa_offset -4
  bx ip

  // Force constant pool for ldr above
  .ltorg

  .cfi_endproc

3:
  .word _libharfbuzz_so_tramp_table - (2b + 8) + 564

/*
 * Copyright 2018-2025 Yury Gribov
 *
 * The MIT License (MIT)
 *
 * Use of this source code is governed by MIT license that can be
 * found in the LICENSE.txt file.
 */

  .globl hb_face_set_index
  .p2align 4
  .type hb_face_set_index, %function
#ifndef IMPLIB_EXPORT_SHIMS
  .hidden hb_face_set_index
#endif
hb_face_set_index:
  .cfi_startproc

1:
  // Load address
  // TODO: can we do this faster on newer ARMs?
  ldr ip, 3f
2:
  add ip, pc, ip
  ldr ip, [ip]

  cmp ip, #0

  // Fast path
  bxne ip

  // Slow path
  ldr ip, =142
  push {ip}
  .cfi_adjust_cfa_offset 4
  PUSH_REG(lr)
  bl _libharfbuzz_so_save_regs_and_resolve
  POP_REG(lr)
  add sp, #4
  .cfi_adjust_cfa_offset -4
  bx ip

  // Force constant pool for ldr above
  .ltorg

  .cfi_endproc

3:
  .word _libharfbuzz_so_tramp_table - (2b + 8) + 568

/*
 * Copyright 2018-2025 Yury Gribov
 *
 * The MIT License (MIT)
 *
 * Use of this source code is governed by MIT license that can be
 * found in the LICENSE.txt file.
 */

  .globl hb_face_set_upem
  .p2align 4
  .type hb_face_set_upem, %function
#ifndef IMPLIB_EXPORT_SHIMS
  .hidden hb_face_set_upem
#endif
hb_face_set_upem:
  .cfi_startproc

1:
  // Load address
  // TODO: can we do this faster on newer ARMs?
  ldr ip, 3f
2:
  add ip, pc, ip
  ldr ip, [ip]

  cmp ip, #0

  // Fast path
  bxne ip

  // Slow path
  ldr ip, =143
  push {ip}
  .cfi_adjust_cfa_offset 4
  PUSH_REG(lr)
  bl _libharfbuzz_so_save_regs_and_resolve
  POP_REG(lr)
  add sp, #4
  .cfi_adjust_cfa_offset -4
  bx ip

  // Force constant pool for ldr above
  .ltorg

  .cfi_endproc

3:
  .word _libharfbuzz_so_tramp_table - (2b + 8) + 572

/*
 * Copyright 2018-2025 Yury Gribov
 *
 * The MIT License (MIT)
 *
 * Use of this source code is governed by MIT license that can be
 * found in the LICENSE.txt file.
 */

  .globl hb_face_set_user_data
  .p2align 4
  .type hb_face_set_user_data, %function
#ifndef IMPLIB_EXPORT_SHIMS
  .hidden hb_face_set_user_data
#endif
hb_face_set_user_data:
  .cfi_startproc

1:
  // Load address
  // TODO: can we do this faster on newer ARMs?
  ldr ip, 3f
2:
  add ip, pc, ip
  ldr ip, [ip]

  cmp ip, #0

  // Fast path
  bxne ip

  // Slow path
  ldr ip, =144
  push {ip}
  .cfi_adjust_cfa_offset 4
  PUSH_REG(lr)
  bl _libharfbuzz_so_save_regs_and_resolve
  POP_REG(lr)
  add sp, #4
  .cfi_adjust_cfa_offset -4
  bx ip

  // Force constant pool for ldr above
  .ltorg

  .cfi_endproc

3:
  .word _libharfbuzz_so_tramp_table - (2b + 8) + 576

/*
 * Copyright 2018-2025 Yury Gribov
 *
 * The MIT License (MIT)
 *
 * Use of this source code is governed by MIT license that can be
 * found in the LICENSE.txt file.
 */

  .globl hb_feature_from_string
  .p2align 4
  .type hb_feature_from_string, %function
#ifndef IMPLIB_EXPORT_SHIMS
  .hidden hb_feature_from_string
#endif
hb_feature_from_string:
  .cfi_startproc

1:
  // Load address
  // TODO: can we do this faster on newer ARMs?
  ldr ip, 3f
2:
  add ip, pc, ip
  ldr ip, [ip]

  cmp ip, #0

  // Fast path
  bxne ip

  // Slow path
  ldr ip, =145
  push {ip}
  .cfi_adjust_cfa_offset 4
  PUSH_REG(lr)
  bl _libharfbuzz_so_save_regs_and_resolve
  POP_REG(lr)
  add sp, #4
  .cfi_adjust_cfa_offset -4
  bx ip

  // Force constant pool for ldr above
  .ltorg

  .cfi_endproc

3:
  .word _libharfbuzz_so_tramp_table - (2b + 8) + 580

/*
 * Copyright 2018-2025 Yury Gribov
 *
 * The MIT License (MIT)
 *
 * Use of this source code is governed by MIT license that can be
 * found in the LICENSE.txt file.
 */

  .globl hb_feature_to_string
  .p2align 4
  .type hb_feature_to_string, %function
#ifndef IMPLIB_EXPORT_SHIMS
  .hidden hb_feature_to_string
#endif
hb_feature_to_string:
  .cfi_startproc

1:
  // Load address
  // TODO: can we do this faster on newer ARMs?
  ldr ip, 3f
2:
  add ip, pc, ip
  ldr ip, [ip]

  cmp ip, #0

  // Fast path
  bxne ip

  // Slow path
  ldr ip, =146
  push {ip}
  .cfi_adjust_cfa_offset 4
  PUSH_REG(lr)
  bl _libharfbuzz_so_save_regs_and_resolve
  POP_REG(lr)
  add sp, #4
  .cfi_adjust_cfa_offset -4
  bx ip

  // Force constant pool for ldr above
  .ltorg

  .cfi_endproc

3:
  .word _libharfbuzz_so_tramp_table - (2b + 8) + 584

/*
 * Copyright 2018-2025 Yury Gribov
 *
 * The MIT License (MIT)
 *
 * Use of this source code is governed by MIT license that can be
 * found in the LICENSE.txt file.
 */

  .globl hb_font_add_glyph_origin_for_direction
  .p2align 4
  .type hb_font_add_glyph_origin_for_direction, %function
#ifndef IMPLIB_EXPORT_SHIMS
  .hidden hb_font_add_glyph_origin_for_direction
#endif
hb_font_add_glyph_origin_for_direction:
  .cfi_startproc

1:
  // Load address
  // TODO: can we do this faster on newer ARMs?
  ldr ip, 3f
2:
  add ip, pc, ip
  ldr ip, [ip]

  cmp ip, #0

  // Fast path
  bxne ip

  // Slow path
  ldr ip, =147
  push {ip}
  .cfi_adjust_cfa_offset 4
  PUSH_REG(lr)
  bl _libharfbuzz_so_save_regs_and_resolve
  POP_REG(lr)
  add sp, #4
  .cfi_adjust_cfa_offset -4
  bx ip

  // Force constant pool for ldr above
  .ltorg

  .cfi_endproc

3:
  .word _libharfbuzz_so_tramp_table - (2b + 8) + 588

/*
 * Copyright 2018-2025 Yury Gribov
 *
 * The MIT License (MIT)
 *
 * Use of this source code is governed by MIT license that can be
 * found in the LICENSE.txt file.
 */

  .globl hb_font_changed
  .p2align 4
  .type hb_font_changed, %function
#ifndef IMPLIB_EXPORT_SHIMS
  .hidden hb_font_changed
#endif
hb_font_changed:
  .cfi_startproc

1:
  // Load address
  // TODO: can we do this faster on newer ARMs?
  ldr ip, 3f
2:
  add ip, pc, ip
  ldr ip, [ip]

  cmp ip, #0

  // Fast path
  bxne ip

  // Slow path
  ldr ip, =148
  push {ip}
  .cfi_adjust_cfa_offset 4
  PUSH_REG(lr)
  bl _libharfbuzz_so_save_regs_and_resolve
  POP_REG(lr)
  add sp, #4
  .cfi_adjust_cfa_offset -4
  bx ip

  // Force constant pool for ldr above
  .ltorg

  .cfi_endproc

3:
  .word _libharfbuzz_so_tramp_table - (2b + 8) + 592

/*
 * Copyright 2018-2025 Yury Gribov
 *
 * The MIT License (MIT)
 *
 * Use of this source code is governed by MIT license that can be
 * found in the LICENSE.txt file.
 */

  .globl hb_font_create
  .p2align 4
  .type hb_font_create, %function
#ifndef IMPLIB_EXPORT_SHIMS
  .hidden hb_font_create
#endif
hb_font_create:
  .cfi_startproc

1:
  // Load address
  // TODO: can we do this faster on newer ARMs?
  ldr ip, 3f
2:
  add ip, pc, ip
  ldr ip, [ip]

  cmp ip, #0

  // Fast path
  bxne ip

  // Slow path
  ldr ip, =149
  push {ip}
  .cfi_adjust_cfa_offset 4
  PUSH_REG(lr)
  bl _libharfbuzz_so_save_regs_and_resolve
  POP_REG(lr)
  add sp, #4
  .cfi_adjust_cfa_offset -4
  bx ip

  // Force constant pool for ldr above
  .ltorg

  .cfi_endproc

3:
  .word _libharfbuzz_so_tramp_table - (2b + 8) + 596

/*
 * Copyright 2018-2025 Yury Gribov
 *
 * The MIT License (MIT)
 *
 * Use of this source code is governed by MIT license that can be
 * found in the LICENSE.txt file.
 */

  .globl hb_font_create_sub_font
  .p2align 4
  .type hb_font_create_sub_font, %function
#ifndef IMPLIB_EXPORT_SHIMS
  .hidden hb_font_create_sub_font
#endif
hb_font_create_sub_font:
  .cfi_startproc

1:
  // Load address
  // TODO: can we do this faster on newer ARMs?
  ldr ip, 3f
2:
  add ip, pc, ip
  ldr ip, [ip]

  cmp ip, #0

  // Fast path
  bxne ip

  // Slow path
  ldr ip, =150
  push {ip}
  .cfi_adjust_cfa_offset 4
  PUSH_REG(lr)
  bl _libharfbuzz_so_save_regs_and_resolve
  POP_REG(lr)
  add sp, #4
  .cfi_adjust_cfa_offset -4
  bx ip

  // Force constant pool for ldr above
  .ltorg

  .cfi_endproc

3:
  .word _libharfbuzz_so_tramp_table - (2b + 8) + 600

/*
 * Copyright 2018-2025 Yury Gribov
 *
 * The MIT License (MIT)
 *
 * Use of this source code is governed by MIT license that can be
 * found in the LICENSE.txt file.
 */

  .globl hb_font_destroy
  .p2align 4
  .type hb_font_destroy, %function
#ifndef IMPLIB_EXPORT_SHIMS
  .hidden hb_font_destroy
#endif
hb_font_destroy:
  .cfi_startproc

1:
  // Load address
  // TODO: can we do this faster on newer ARMs?
  ldr ip, 3f
2:
  add ip, pc, ip
  ldr ip, [ip]

  cmp ip, #0

  // Fast path
  bxne ip

  // Slow path
  ldr ip, =151
  push {ip}
  .cfi_adjust_cfa_offset 4
  PUSH_REG(lr)
  bl _libharfbuzz_so_save_regs_and_resolve
  POP_REG(lr)
  add sp, #4
  .cfi_adjust_cfa_offset -4
  bx ip

  // Force constant pool for ldr above
  .ltorg

  .cfi_endproc

3:
  .word _libharfbuzz_so_tramp_table - (2b + 8) + 604

/*
 * Copyright 2018-2025 Yury Gribov
 *
 * The MIT License (MIT)
 *
 * Use of this source code is governed by MIT license that can be
 * found in the LICENSE.txt file.
 */

  .globl hb_font_draw_glyph
  .p2align 4
  .type hb_font_draw_glyph, %function
#ifndef IMPLIB_EXPORT_SHIMS
  .hidden hb_font_draw_glyph
#endif
hb_font_draw_glyph:
  .cfi_startproc

1:
  // Load address
  // TODO: can we do this faster on newer ARMs?
  ldr ip, 3f
2:
  add ip, pc, ip
  ldr ip, [ip]

  cmp ip, #0

  // Fast path
  bxne ip

  // Slow path
  ldr ip, =152
  push {ip}
  .cfi_adjust_cfa_offset 4
  PUSH_REG(lr)
  bl _libharfbuzz_so_save_regs_and_resolve
  POP_REG(lr)
  add sp, #4
  .cfi_adjust_cfa_offset -4
  bx ip

  // Force constant pool for ldr above
  .ltorg

  .cfi_endproc

3:
  .word _libharfbuzz_so_tramp_table - (2b + 8) + 608

/*
 * Copyright 2018-2025 Yury Gribov
 *
 * The MIT License (MIT)
 *
 * Use of this source code is governed by MIT license that can be
 * found in the LICENSE.txt file.
 */

  .globl hb_font_draw_glyph_or_fail
  .p2align 4
  .type hb_font_draw_glyph_or_fail, %function
#ifndef IMPLIB_EXPORT_SHIMS
  .hidden hb_font_draw_glyph_or_fail
#endif
hb_font_draw_glyph_or_fail:
  .cfi_startproc

1:
  // Load address
  // TODO: can we do this faster on newer ARMs?
  ldr ip, 3f
2:
  add ip, pc, ip
  ldr ip, [ip]

  cmp ip, #0

  // Fast path
  bxne ip

  // Slow path
  ldr ip, =153
  push {ip}
  .cfi_adjust_cfa_offset 4
  PUSH_REG(lr)
  bl _libharfbuzz_so_save_regs_and_resolve
  POP_REG(lr)
  add sp, #4
  .cfi_adjust_cfa_offset -4
  bx ip

  // Force constant pool for ldr above
  .ltorg

  .cfi_endproc

3:
  .word _libharfbuzz_so_tramp_table - (2b + 8) + 612

/*
 * Copyright 2018-2025 Yury Gribov
 *
 * The MIT License (MIT)
 *
 * Use of this source code is governed by MIT license that can be
 * found in the LICENSE.txt file.
 */

  .globl hb_font_funcs_create
  .p2align 4
  .type hb_font_funcs_create, %function
#ifndef IMPLIB_EXPORT_SHIMS
  .hidden hb_font_funcs_create
#endif
hb_font_funcs_create:
  .cfi_startproc

1:
  // Load address
  // TODO: can we do this faster on newer ARMs?
  ldr ip, 3f
2:
  add ip, pc, ip
  ldr ip, [ip]

  cmp ip, #0

  // Fast path
  bxne ip

  // Slow path
  ldr ip, =154
  push {ip}
  .cfi_adjust_cfa_offset 4
  PUSH_REG(lr)
  bl _libharfbuzz_so_save_regs_and_resolve
  POP_REG(lr)
  add sp, #4
  .cfi_adjust_cfa_offset -4
  bx ip

  // Force constant pool for ldr above
  .ltorg

  .cfi_endproc

3:
  .word _libharfbuzz_so_tramp_table - (2b + 8) + 616

/*
 * Copyright 2018-2025 Yury Gribov
 *
 * The MIT License (MIT)
 *
 * Use of this source code is governed by MIT license that can be
 * found in the LICENSE.txt file.
 */

  .globl hb_font_funcs_destroy
  .p2align 4
  .type hb_font_funcs_destroy, %function
#ifndef IMPLIB_EXPORT_SHIMS
  .hidden hb_font_funcs_destroy
#endif
hb_font_funcs_destroy:
  .cfi_startproc

1:
  // Load address
  // TODO: can we do this faster on newer ARMs?
  ldr ip, 3f
2:
  add ip, pc, ip
  ldr ip, [ip]

  cmp ip, #0

  // Fast path
  bxne ip

  // Slow path
  ldr ip, =155
  push {ip}
  .cfi_adjust_cfa_offset 4
  PUSH_REG(lr)
  bl _libharfbuzz_so_save_regs_and_resolve
  POP_REG(lr)
  add sp, #4
  .cfi_adjust_cfa_offset -4
  bx ip

  // Force constant pool for ldr above
  .ltorg

  .cfi_endproc

3:
  .word _libharfbuzz_so_tramp_table - (2b + 8) + 620

/*
 * Copyright 2018-2025 Yury Gribov
 *
 * The MIT License (MIT)
 *
 * Use of this source code is governed by MIT license that can be
 * found in the LICENSE.txt file.
 */

  .globl hb_font_funcs_get_empty
  .p2align 4
  .type hb_font_funcs_get_empty, %function
#ifndef IMPLIB_EXPORT_SHIMS
  .hidden hb_font_funcs_get_empty
#endif
hb_font_funcs_get_empty:
  .cfi_startproc

1:
  // Load address
  // TODO: can we do this faster on newer ARMs?
  ldr ip, 3f
2:
  add ip, pc, ip
  ldr ip, [ip]

  cmp ip, #0

  // Fast path
  bxne ip

  // Slow path
  ldr ip, =156
  push {ip}
  .cfi_adjust_cfa_offset 4
  PUSH_REG(lr)
  bl _libharfbuzz_so_save_regs_and_resolve
  POP_REG(lr)
  add sp, #4
  .cfi_adjust_cfa_offset -4
  bx ip

  // Force constant pool for ldr above
  .ltorg

  .cfi_endproc

3:
  .word _libharfbuzz_so_tramp_table - (2b + 8) + 624

/*
 * Copyright 2018-2025 Yury Gribov
 *
 * The MIT License (MIT)
 *
 * Use of this source code is governed by MIT license that can be
 * found in the LICENSE.txt file.
 */

  .globl hb_font_funcs_get_user_data
  .p2align 4
  .type hb_font_funcs_get_user_data, %function
#ifndef IMPLIB_EXPORT_SHIMS
  .hidden hb_font_funcs_get_user_data
#endif
hb_font_funcs_get_user_data:
  .cfi_startproc

1:
  // Load address
  // TODO: can we do this faster on newer ARMs?
  ldr ip, 3f
2:
  add ip, pc, ip
  ldr ip, [ip]

  cmp ip, #0

  // Fast path
  bxne ip

  // Slow path
  ldr ip, =157
  push {ip}
  .cfi_adjust_cfa_offset 4
  PUSH_REG(lr)
  bl _libharfbuzz_so_save_regs_and_resolve
  POP_REG(lr)
  add sp, #4
  .cfi_adjust_cfa_offset -4
  bx ip

  // Force constant pool for ldr above
  .ltorg

  .cfi_endproc

3:
  .word _libharfbuzz_so_tramp_table - (2b + 8) + 628

/*
 * Copyright 2018-2025 Yury Gribov
 *
 * The MIT License (MIT)
 *
 * Use of this source code is governed by MIT license that can be
 * found in the LICENSE.txt file.
 */

  .globl hb_font_funcs_is_immutable
  .p2align 4
  .type hb_font_funcs_is_immutable, %function
#ifndef IMPLIB_EXPORT_SHIMS
  .hidden hb_font_funcs_is_immutable
#endif
hb_font_funcs_is_immutable:
  .cfi_startproc

1:
  // Load address
  // TODO: can we do this faster on newer ARMs?
  ldr ip, 3f
2:
  add ip, pc, ip
  ldr ip, [ip]

  cmp ip, #0

  // Fast path
  bxne ip

  // Slow path
  ldr ip, =158
  push {ip}
  .cfi_adjust_cfa_offset 4
  PUSH_REG(lr)
  bl _libharfbuzz_so_save_regs_and_resolve
  POP_REG(lr)
  add sp, #4
  .cfi_adjust_cfa_offset -4
  bx ip

  // Force constant pool for ldr above
  .ltorg

  .cfi_endproc

3:
  .word _libharfbuzz_so_tramp_table - (2b + 8) + 632

/*
 * Copyright 2018-2025 Yury Gribov
 *
 * The MIT License (MIT)
 *
 * Use of this source code is governed by MIT license that can be
 * found in the LICENSE.txt file.
 */

  .globl hb_font_funcs_make_immutable
  .p2align 4
  .type hb_font_funcs_make_immutable, %function
#ifndef IMPLIB_EXPORT_SHIMS
  .hidden hb_font_funcs_make_immutable
#endif
hb_font_funcs_make_immutable:
  .cfi_startproc

1:
  // Load address
  // TODO: can we do this faster on newer ARMs?
  ldr ip, 3f
2:
  add ip, pc, ip
  ldr ip, [ip]

  cmp ip, #0

  // Fast path
  bxne ip

  // Slow path
  ldr ip, =159
  push {ip}
  .cfi_adjust_cfa_offset 4
  PUSH_REG(lr)
  bl _libharfbuzz_so_save_regs_and_resolve
  POP_REG(lr)
  add sp, #4
  .cfi_adjust_cfa_offset -4
  bx ip

  // Force constant pool for ldr above
  .ltorg

  .cfi_endproc

3:
  .word _libharfbuzz_so_tramp_table - (2b + 8) + 636

/*
 * Copyright 2018-2025 Yury Gribov
 *
 * The MIT License (MIT)
 *
 * Use of this source code is governed by MIT license that can be
 * found in the LICENSE.txt file.
 */

  .globl hb_font_funcs_reference
  .p2align 4
  .type hb_font_funcs_reference, %function
#ifndef IMPLIB_EXPORT_SHIMS
  .hidden hb_font_funcs_reference
#endif
hb_font_funcs_reference:
  .cfi_startproc

1:
  // Load address
  // TODO: can we do this faster on newer ARMs?
  ldr ip, 3f
2:
  add ip, pc, ip
  ldr ip, [ip]

  cmp ip, #0

  // Fast path
  bxne ip

  // Slow path
  ldr ip, =160
  push {ip}
  .cfi_adjust_cfa_offset 4
  PUSH_REG(lr)
  bl _libharfbuzz_so_save_regs_and_resolve
  POP_REG(lr)
  add sp, #4
  .cfi_adjust_cfa_offset -4
  bx ip

  // Force constant pool for ldr above
  .ltorg

  .cfi_endproc

3:
  .word _libharfbuzz_so_tramp_table - (2b + 8) + 640

/*
 * Copyright 2018-2025 Yury Gribov
 *
 * The MIT License (MIT)
 *
 * Use of this source code is governed by MIT license that can be
 * found in the LICENSE.txt file.
 */

  .globl hb_font_funcs_set_draw_glyph_func
  .p2align 4
  .type hb_font_funcs_set_draw_glyph_func, %function
#ifndef IMPLIB_EXPORT_SHIMS
  .hidden hb_font_funcs_set_draw_glyph_func
#endif
hb_font_funcs_set_draw_glyph_func:
  .cfi_startproc

1:
  // Load address
  // TODO: can we do this faster on newer ARMs?
  ldr ip, 3f
2:
  add ip, pc, ip
  ldr ip, [ip]

  cmp ip, #0

  // Fast path
  bxne ip

  // Slow path
  ldr ip, =161
  push {ip}
  .cfi_adjust_cfa_offset 4
  PUSH_REG(lr)
  bl _libharfbuzz_so_save_regs_and_resolve
  POP_REG(lr)
  add sp, #4
  .cfi_adjust_cfa_offset -4
  bx ip

  // Force constant pool for ldr above
  .ltorg

  .cfi_endproc

3:
  .word _libharfbuzz_so_tramp_table - (2b + 8) + 644

/*
 * Copyright 2018-2025 Yury Gribov
 *
 * The MIT License (MIT)
 *
 * Use of this source code is governed by MIT license that can be
 * found in the LICENSE.txt file.
 */

  .globl hb_font_funcs_set_draw_glyph_or_fail_func
  .p2align 4
  .type hb_font_funcs_set_draw_glyph_or_fail_func, %function
#ifndef IMPLIB_EXPORT_SHIMS
  .hidden hb_font_funcs_set_draw_glyph_or_fail_func
#endif
hb_font_funcs_set_draw_glyph_or_fail_func:
  .cfi_startproc

1:
  // Load address
  // TODO: can we do this faster on newer ARMs?
  ldr ip, 3f
2:
  add ip, pc, ip
  ldr ip, [ip]

  cmp ip, #0

  // Fast path
  bxne ip

  // Slow path
  ldr ip, =162
  push {ip}
  .cfi_adjust_cfa_offset 4
  PUSH_REG(lr)
  bl _libharfbuzz_so_save_regs_and_resolve
  POP_REG(lr)
  add sp, #4
  .cfi_adjust_cfa_offset -4
  bx ip

  // Force constant pool for ldr above
  .ltorg

  .cfi_endproc

3:
  .word _libharfbuzz_so_tramp_table - (2b + 8) + 648

/*
 * Copyright 2018-2025 Yury Gribov
 *
 * The MIT License (MIT)
 *
 * Use of this source code is governed by MIT license that can be
 * found in the LICENSE.txt file.
 */

  .globl hb_font_funcs_set_font_h_extents_func
  .p2align 4
  .type hb_font_funcs_set_font_h_extents_func, %function
#ifndef IMPLIB_EXPORT_SHIMS
  .hidden hb_font_funcs_set_font_h_extents_func
#endif
hb_font_funcs_set_font_h_extents_func:
  .cfi_startproc

1:
  // Load address
  // TODO: can we do this faster on newer ARMs?
  ldr ip, 3f
2:
  add ip, pc, ip
  ldr ip, [ip]

  cmp ip, #0

  // Fast path
  bxne ip

  // Slow path
  ldr ip, =163
  push {ip}
  .cfi_adjust_cfa_offset 4
  PUSH_REG(lr)
  bl _libharfbuzz_so_save_regs_and_resolve
  POP_REG(lr)
  add sp, #4
  .cfi_adjust_cfa_offset -4
  bx ip

  // Force constant pool for ldr above
  .ltorg

  .cfi_endproc

3:
  .word _libharfbuzz_so_tramp_table - (2b + 8) + 652

/*
 * Copyright 2018-2025 Yury Gribov
 *
 * The MIT License (MIT)
 *
 * Use of this source code is governed by MIT license that can be
 * found in the LICENSE.txt file.
 */

  .globl hb_font_funcs_set_font_v_extents_func
  .p2align 4
  .type hb_font_funcs_set_font_v_extents_func, %function
#ifndef IMPLIB_EXPORT_SHIMS
  .hidden hb_font_funcs_set_font_v_extents_func
#endif
hb_font_funcs_set_font_v_extents_func:
  .cfi_startproc

1:
  // Load address
  // TODO: can we do this faster on newer ARMs?
  ldr ip, 3f
2:
  add ip, pc, ip
  ldr ip, [ip]

  cmp ip, #0

  // Fast path
  bxne ip

  // Slow path
  ldr ip, =164
  push {ip}
  .cfi_adjust_cfa_offset 4
  PUSH_REG(lr)
  bl _libharfbuzz_so_save_regs_and_resolve
  POP_REG(lr)
  add sp, #4
  .cfi_adjust_cfa_offset -4
  bx ip

  // Force constant pool for ldr above
  .ltorg

  .cfi_endproc

3:
  .word _libharfbuzz_so_tramp_table - (2b + 8) + 656

/*
 * Copyright 2018-2025 Yury Gribov
 *
 * The MIT License (MIT)
 *
 * Use of this source code is governed by MIT license that can be
 * found in the LICENSE.txt file.
 */

  .globl hb_font_funcs_set_glyph_contour_point_func
  .p2align 4
  .type hb_font_funcs_set_glyph_contour_point_func, %function
#ifndef IMPLIB_EXPORT_SHIMS
  .hidden hb_font_funcs_set_glyph_contour_point_func
#endif
hb_font_funcs_set_glyph_contour_point_func:
  .cfi_startproc

1:
  // Load address
  // TODO: can we do this faster on newer ARMs?
  ldr ip, 3f
2:
  add ip, pc, ip
  ldr ip, [ip]

  cmp ip, #0

  // Fast path
  bxne ip

  // Slow path
  ldr ip, =165
  push {ip}
  .cfi_adjust_cfa_offset 4
  PUSH_REG(lr)
  bl _libharfbuzz_so_save_regs_and_resolve
  POP_REG(lr)
  add sp, #4
  .cfi_adjust_cfa_offset -4
  bx ip

  // Force constant pool for ldr above
  .ltorg

  .cfi_endproc

3:
  .word _libharfbuzz_so_tramp_table - (2b + 8) + 660

/*
 * Copyright 2018-2025 Yury Gribov
 *
 * The MIT License (MIT)
 *
 * Use of this source code is governed by MIT license that can be
 * found in the LICENSE.txt file.
 */

  .globl hb_font_funcs_set_glyph_extents_func
  .p2align 4
  .type hb_font_funcs_set_glyph_extents_func, %function
#ifndef IMPLIB_EXPORT_SHIMS
  .hidden hb_font_funcs_set_glyph_extents_func
#endif
hb_font_funcs_set_glyph_extents_func:
  .cfi_startproc

1:
  // Load address
  // TODO: can we do this faster on newer ARMs?
  ldr ip, 3f
2:
  add ip, pc, ip
  ldr ip, [ip]

  cmp ip, #0

  // Fast path
  bxne ip

  // Slow path
  ldr ip, =166
  push {ip}
  .cfi_adjust_cfa_offset 4
  PUSH_REG(lr)
  bl _libharfbuzz_so_save_regs_and_resolve
  POP_REG(lr)
  add sp, #4
  .cfi_adjust_cfa_offset -4
  bx ip

  // Force constant pool for ldr above
  .ltorg

  .cfi_endproc

3:
  .word _libharfbuzz_so_tramp_table - (2b + 8) + 664

/*
 * Copyright 2018-2025 Yury Gribov
 *
 * The MIT License (MIT)
 *
 * Use of this source code is governed by MIT license that can be
 * found in the LICENSE.txt file.
 */

  .globl hb_font_funcs_set_glyph_from_name_func
  .p2align 4
  .type hb_font_funcs_set_glyph_from_name_func, %function
#ifndef IMPLIB_EXPORT_SHIMS
  .hidden hb_font_funcs_set_glyph_from_name_func
#endif
hb_font_funcs_set_glyph_from_name_func:
  .cfi_startproc

1:
  // Load address
  // TODO: can we do this faster on newer ARMs?
  ldr ip, 3f
2:
  add ip, pc, ip
  ldr ip, [ip]

  cmp ip, #0

  // Fast path
  bxne ip

  // Slow path
  ldr ip, =167
  push {ip}
  .cfi_adjust_cfa_offset 4
  PUSH_REG(lr)
  bl _libharfbuzz_so_save_regs_and_resolve
  POP_REG(lr)
  add sp, #4
  .cfi_adjust_cfa_offset -4
  bx ip

  // Force constant pool for ldr above
  .ltorg

  .cfi_endproc

3:
  .word _libharfbuzz_so_tramp_table - (2b + 8) + 668

/*
 * Copyright 2018-2025 Yury Gribov
 *
 * The MIT License (MIT)
 *
 * Use of this source code is governed by MIT license that can be
 * found in the LICENSE.txt file.
 */

  .globl hb_font_funcs_set_glyph_func
  .p2align 4
  .type hb_font_funcs_set_glyph_func, %function
#ifndef IMPLIB_EXPORT_SHIMS
  .hidden hb_font_funcs_set_glyph_func
#endif
hb_font_funcs_set_glyph_func:
  .cfi_startproc

1:
  // Load address
  // TODO: can we do this faster on newer ARMs?
  ldr ip, 3f
2:
  add ip, pc, ip
  ldr ip, [ip]

  cmp ip, #0

  // Fast path
  bxne ip

  // Slow path
  ldr ip, =168
  push {ip}
  .cfi_adjust_cfa_offset 4
  PUSH_REG(lr)
  bl _libharfbuzz_so_save_regs_and_resolve
  POP_REG(lr)
  add sp, #4
  .cfi_adjust_cfa_offset -4
  bx ip

  // Force constant pool for ldr above
  .ltorg

  .cfi_endproc

3:
  .word _libharfbuzz_so_tramp_table - (2b + 8) + 672

/*
 * Copyright 2018-2025 Yury Gribov
 *
 * The MIT License (MIT)
 *
 * Use of this source code is governed by MIT license that can be
 * found in the LICENSE.txt file.
 */

  .globl hb_font_funcs_set_glyph_h_advance_func
  .p2align 4
  .type hb_font_funcs_set_glyph_h_advance_func, %function
#ifndef IMPLIB_EXPORT_SHIMS
  .hidden hb_font_funcs_set_glyph_h_advance_func
#endif
hb_font_funcs_set_glyph_h_advance_func:
  .cfi_startproc

1:
  // Load address
  // TODO: can we do this faster on newer ARMs?
  ldr ip, 3f
2:
  add ip, pc, ip
  ldr ip, [ip]

  cmp ip, #0

  // Fast path
  bxne ip

  // Slow path
  ldr ip, =169
  push {ip}
  .cfi_adjust_cfa_offset 4
  PUSH_REG(lr)
  bl _libharfbuzz_so_save_regs_and_resolve
  POP_REG(lr)
  add sp, #4
  .cfi_adjust_cfa_offset -4
  bx ip

  // Force constant pool for ldr above
  .ltorg

  .cfi_endproc

3:
  .word _libharfbuzz_so_tramp_table - (2b + 8) + 676

/*
 * Copyright 2018-2025 Yury Gribov
 *
 * The MIT License (MIT)
 *
 * Use of this source code is governed by MIT license that can be
 * found in the LICENSE.txt file.
 */

  .globl hb_font_funcs_set_glyph_h_advances_func
  .p2align 4
  .type hb_font_funcs_set_glyph_h_advances_func, %function
#ifndef IMPLIB_EXPORT_SHIMS
  .hidden hb_font_funcs_set_glyph_h_advances_func
#endif
hb_font_funcs_set_glyph_h_advances_func:
  .cfi_startproc

1:
  // Load address
  // TODO: can we do this faster on newer ARMs?
  ldr ip, 3f
2:
  add ip, pc, ip
  ldr ip, [ip]

  cmp ip, #0

  // Fast path
  bxne ip

  // Slow path
  ldr ip, =170
  push {ip}
  .cfi_adjust_cfa_offset 4
  PUSH_REG(lr)
  bl _libharfbuzz_so_save_regs_and_resolve
  POP_REG(lr)
  add sp, #4
  .cfi_adjust_cfa_offset -4
  bx ip

  // Force constant pool for ldr above
  .ltorg

  .cfi_endproc

3:
  .word _libharfbuzz_so_tramp_table - (2b + 8) + 680

/*
 * Copyright 2018-2025 Yury Gribov
 *
 * The MIT License (MIT)
 *
 * Use of this source code is governed by MIT license that can be
 * found in the LICENSE.txt file.
 */

  .globl hb_font_funcs_set_glyph_h_kerning_func
  .p2align 4
  .type hb_font_funcs_set_glyph_h_kerning_func, %function
#ifndef IMPLIB_EXPORT_SHIMS
  .hidden hb_font_funcs_set_glyph_h_kerning_func
#endif
hb_font_funcs_set_glyph_h_kerning_func:
  .cfi_startproc

1:
  // Load address
  // TODO: can we do this faster on newer ARMs?
  ldr ip, 3f
2:
  add ip, pc, ip
  ldr ip, [ip]

  cmp ip, #0

  // Fast path
  bxne ip

  // Slow path
  ldr ip, =171
  push {ip}
  .cfi_adjust_cfa_offset 4
  PUSH_REG(lr)
  bl _libharfbuzz_so_save_regs_and_resolve
  POP_REG(lr)
  add sp, #4
  .cfi_adjust_cfa_offset -4
  bx ip

  // Force constant pool for ldr above
  .ltorg

  .cfi_endproc

3:
  .word _libharfbuzz_so_tramp_table - (2b + 8) + 684

/*
 * Copyright 2018-2025 Yury Gribov
 *
 * The MIT License (MIT)
 *
 * Use of this source code is governed by MIT license that can be
 * found in the LICENSE.txt file.
 */

  .globl hb_font_funcs_set_glyph_h_origin_func
  .p2align 4
  .type hb_font_funcs_set_glyph_h_origin_func, %function
#ifndef IMPLIB_EXPORT_SHIMS
  .hidden hb_font_funcs_set_glyph_h_origin_func
#endif
hb_font_funcs_set_glyph_h_origin_func:
  .cfi_startproc

1:
  // Load address
  // TODO: can we do this faster on newer ARMs?
  ldr ip, 3f
2:
  add ip, pc, ip
  ldr ip, [ip]

  cmp ip, #0

  // Fast path
  bxne ip

  // Slow path
  ldr ip, =172
  push {ip}
  .cfi_adjust_cfa_offset 4
  PUSH_REG(lr)
  bl _libharfbuzz_so_save_regs_and_resolve
  POP_REG(lr)
  add sp, #4
  .cfi_adjust_cfa_offset -4
  bx ip

  // Force constant pool for ldr above
  .ltorg

  .cfi_endproc

3:
  .word _libharfbuzz_so_tramp_table - (2b + 8) + 688

/*
 * Copyright 2018-2025 Yury Gribov
 *
 * The MIT License (MIT)
 *
 * Use of this source code is governed by MIT license that can be
 * found in the LICENSE.txt file.
 */

  .globl hb_font_funcs_set_glyph_name_func
  .p2align 4
  .type hb_font_funcs_set_glyph_name_func, %function
#ifndef IMPLIB_EXPORT_SHIMS
  .hidden hb_font_funcs_set_glyph_name_func
#endif
hb_font_funcs_set_glyph_name_func:
  .cfi_startproc

1:
  // Load address
  // TODO: can we do this faster on newer ARMs?
  ldr ip, 3f
2:
  add ip, pc, ip
  ldr ip, [ip]

  cmp ip, #0

  // Fast path
  bxne ip

  // Slow path
  ldr ip, =173
  push {ip}
  .cfi_adjust_cfa_offset 4
  PUSH_REG(lr)
  bl _libharfbuzz_so_save_regs_and_resolve
  POP_REG(lr)
  add sp, #4
  .cfi_adjust_cfa_offset -4
  bx ip

  // Force constant pool for ldr above
  .ltorg

  .cfi_endproc

3:
  .word _libharfbuzz_so_tramp_table - (2b + 8) + 692

/*
 * Copyright 2018-2025 Yury Gribov
 *
 * The MIT License (MIT)
 *
 * Use of this source code is governed by MIT license that can be
 * found in the LICENSE.txt file.
 */

  .globl hb_font_funcs_set_glyph_shape_func
  .p2align 4
  .type hb_font_funcs_set_glyph_shape_func, %function
#ifndef IMPLIB_EXPORT_SHIMS
  .hidden hb_font_funcs_set_glyph_shape_func
#endif
hb_font_funcs_set_glyph_shape_func:
  .cfi_startproc

1:
  // Load address
  // TODO: can we do this faster on newer ARMs?
  ldr ip, 3f
2:
  add ip, pc, ip
  ldr ip, [ip]

  cmp ip, #0

  // Fast path
  bxne ip

  // Slow path
  ldr ip, =174
  push {ip}
  .cfi_adjust_cfa_offset 4
  PUSH_REG(lr)
  bl _libharfbuzz_so_save_regs_and_resolve
  POP_REG(lr)
  add sp, #4
  .cfi_adjust_cfa_offset -4
  bx ip

  // Force constant pool for ldr above
  .ltorg

  .cfi_endproc

3:
  .word _libharfbuzz_so_tramp_table - (2b + 8) + 696

/*
 * Copyright 2018-2025 Yury Gribov
 *
 * The MIT License (MIT)
 *
 * Use of this source code is governed by MIT license that can be
 * found in the LICENSE.txt file.
 */

  .globl hb_font_funcs_set_glyph_v_advance_func
  .p2align 4
  .type hb_font_funcs_set_glyph_v_advance_func, %function
#ifndef IMPLIB_EXPORT_SHIMS
  .hidden hb_font_funcs_set_glyph_v_advance_func
#endif
hb_font_funcs_set_glyph_v_advance_func:
  .cfi_startproc

1:
  // Load address
  // TODO: can we do this faster on newer ARMs?
  ldr ip, 3f
2:
  add ip, pc, ip
  ldr ip, [ip]

  cmp ip, #0

  // Fast path
  bxne ip

  // Slow path
  ldr ip, =175
  push {ip}
  .cfi_adjust_cfa_offset 4
  PUSH_REG(lr)
  bl _libharfbuzz_so_save_regs_and_resolve
  POP_REG(lr)
  add sp, #4
  .cfi_adjust_cfa_offset -4
  bx ip

  // Force constant pool for ldr above
  .ltorg

  .cfi_endproc

3:
  .word _libharfbuzz_so_tramp_table - (2b + 8) + 700

/*
 * Copyright 2018-2025 Yury Gribov
 *
 * The MIT License (MIT)
 *
 * Use of this source code is governed by MIT license that can be
 * found in the LICENSE.txt file.
 */

  .globl hb_font_funcs_set_glyph_v_advances_func
  .p2align 4
  .type hb_font_funcs_set_glyph_v_advances_func, %function
#ifndef IMPLIB_EXPORT_SHIMS
  .hidden hb_font_funcs_set_glyph_v_advances_func
#endif
hb_font_funcs_set_glyph_v_advances_func:
  .cfi_startproc

1:
  // Load address
  // TODO: can we do this faster on newer ARMs?
  ldr ip, 3f
2:
  add ip, pc, ip
  ldr ip, [ip]

  cmp ip, #0

  // Fast path
  bxne ip

  // Slow path
  ldr ip, =176
  push {ip}
  .cfi_adjust_cfa_offset 4
  PUSH_REG(lr)
  bl _libharfbuzz_so_save_regs_and_resolve
  POP_REG(lr)
  add sp, #4
  .cfi_adjust_cfa_offset -4
  bx ip

  // Force constant pool for ldr above
  .ltorg

  .cfi_endproc

3:
  .word _libharfbuzz_so_tramp_table - (2b + 8) + 704

/*
 * Copyright 2018-2025 Yury Gribov
 *
 * The MIT License (MIT)
 *
 * Use of this source code is governed by MIT license that can be
 * found in the LICENSE.txt file.
 */

  .globl hb_font_funcs_set_glyph_v_kerning_func
  .p2align 4
  .type hb_font_funcs_set_glyph_v_kerning_func, %function
#ifndef IMPLIB_EXPORT_SHIMS
  .hidden hb_font_funcs_set_glyph_v_kerning_func
#endif
hb_font_funcs_set_glyph_v_kerning_func:
  .cfi_startproc

1:
  // Load address
  // TODO: can we do this faster on newer ARMs?
  ldr ip, 3f
2:
  add ip, pc, ip
  ldr ip, [ip]

  cmp ip, #0

  // Fast path
  bxne ip

  // Slow path
  ldr ip, =177
  push {ip}
  .cfi_adjust_cfa_offset 4
  PUSH_REG(lr)
  bl _libharfbuzz_so_save_regs_and_resolve
  POP_REG(lr)
  add sp, #4
  .cfi_adjust_cfa_offset -4
  bx ip

  // Force constant pool for ldr above
  .ltorg

  .cfi_endproc

3:
  .word _libharfbuzz_so_tramp_table - (2b + 8) + 708

/*
 * Copyright 2018-2025 Yury Gribov
 *
 * The MIT License (MIT)
 *
 * Use of this source code is governed by MIT license that can be
 * found in the LICENSE.txt file.
 */

  .globl hb_font_funcs_set_glyph_v_origin_func
  .p2align 4
  .type hb_font_funcs_set_glyph_v_origin_func, %function
#ifndef IMPLIB_EXPORT_SHIMS
  .hidden hb_font_funcs_set_glyph_v_origin_func
#endif
hb_font_funcs_set_glyph_v_origin_func:
  .cfi_startproc

1:
  // Load address
  // TODO: can we do this faster on newer ARMs?
  ldr ip, 3f
2:
  add ip, pc, ip
  ldr ip, [ip]

  cmp ip, #0

  // Fast path
  bxne ip

  // Slow path
  ldr ip, =178
  push {ip}
  .cfi_adjust_cfa_offset 4
  PUSH_REG(lr)
  bl _libharfbuzz_so_save_regs_and_resolve
  POP_REG(lr)
  add sp, #4
  .cfi_adjust_cfa_offset -4
  bx ip

  // Force constant pool for ldr above
  .ltorg

  .cfi_endproc

3:
  .word _libharfbuzz_so_tramp_table - (2b + 8) + 712

/*
 * Copyright 2018-2025 Yury Gribov
 *
 * The MIT License (MIT)
 *
 * Use of this source code is governed by MIT license that can be
 * found in the LICENSE.txt file.
 */

  .globl hb_font_funcs_set_nominal_glyph_func
  .p2align 4
  .type hb_font_funcs_set_nominal_glyph_func, %function
#ifndef IMPLIB_EXPORT_SHIMS
  .hidden hb_font_funcs_set_nominal_glyph_func
#endif
hb_font_funcs_set_nominal_glyph_func:
  .cfi_startproc

1:
  // Load address
  // TODO: can we do this faster on newer ARMs?
  ldr ip, 3f
2:
  add ip, pc, ip
  ldr ip, [ip]

  cmp ip, #0

  // Fast path
  bxne ip

  // Slow path
  ldr ip, =179
  push {ip}
  .cfi_adjust_cfa_offset 4
  PUSH_REG(lr)
  bl _libharfbuzz_so_save_regs_and_resolve
  POP_REG(lr)
  add sp, #4
  .cfi_adjust_cfa_offset -4
  bx ip

  // Force constant pool for ldr above
  .ltorg

  .cfi_endproc

3:
  .word _libharfbuzz_so_tramp_table - (2b + 8) + 716

/*
 * Copyright 2018-2025 Yury Gribov
 *
 * The MIT License (MIT)
 *
 * Use of this source code is governed by MIT license that can be
 * found in the LICENSE.txt file.
 */

  .globl hb_font_funcs_set_nominal_glyphs_func
  .p2align 4
  .type hb_font_funcs_set_nominal_glyphs_func, %function
#ifndef IMPLIB_EXPORT_SHIMS
  .hidden hb_font_funcs_set_nominal_glyphs_func
#endif
hb_font_funcs_set_nominal_glyphs_func:
  .cfi_startproc

1:
  // Load address
  // TODO: can we do this faster on newer ARMs?
  ldr ip, 3f
2:
  add ip, pc, ip
  ldr ip, [ip]

  cmp ip, #0

  // Fast path
  bxne ip

  // Slow path
  ldr ip, =180
  push {ip}
  .cfi_adjust_cfa_offset 4
  PUSH_REG(lr)
  bl _libharfbuzz_so_save_regs_and_resolve
  POP_REG(lr)
  add sp, #4
  .cfi_adjust_cfa_offset -4
  bx ip

  // Force constant pool for ldr above
  .ltorg

  .cfi_endproc

3:
  .word _libharfbuzz_so_tramp_table - (2b + 8) + 720

/*
 * Copyright 2018-2025 Yury Gribov
 *
 * The MIT License (MIT)
 *
 * Use of this source code is governed by MIT license that can be
 * found in the LICENSE.txt file.
 */

  .globl hb_font_funcs_set_paint_glyph_func
  .p2align 4
  .type hb_font_funcs_set_paint_glyph_func, %function
#ifndef IMPLIB_EXPORT_SHIMS
  .hidden hb_font_funcs_set_paint_glyph_func
#endif
hb_font_funcs_set_paint_glyph_func:
  .cfi_startproc

1:
  // Load address
  // TODO: can we do this faster on newer ARMs?
  ldr ip, 3f
2:
  add ip, pc, ip
  ldr ip, [ip]

  cmp ip, #0

  // Fast path
  bxne ip

  // Slow path
  ldr ip, =181
  push {ip}
  .cfi_adjust_cfa_offset 4
  PUSH_REG(lr)
  bl _libharfbuzz_so_save_regs_and_resolve
  POP_REG(lr)
  add sp, #4
  .cfi_adjust_cfa_offset -4
  bx ip

  // Force constant pool for ldr above
  .ltorg

  .cfi_endproc

3:
  .word _libharfbuzz_so_tramp_table - (2b + 8) + 724

/*
 * Copyright 2018-2025 Yury Gribov
 *
 * The MIT License (MIT)
 *
 * Use of this source code is governed by MIT license that can be
 * found in the LICENSE.txt file.
 */

  .globl hb_font_funcs_set_paint_glyph_or_fail_func
  .p2align 4
  .type hb_font_funcs_set_paint_glyph_or_fail_func, %function
#ifndef IMPLIB_EXPORT_SHIMS
  .hidden hb_font_funcs_set_paint_glyph_or_fail_func
#endif
hb_font_funcs_set_paint_glyph_or_fail_func:
  .cfi_startproc

1:
  // Load address
  // TODO: can we do this faster on newer ARMs?
  ldr ip, 3f
2:
  add ip, pc, ip
  ldr ip, [ip]

  cmp ip, #0

  // Fast path
  bxne ip

  // Slow path
  ldr ip, =182
  push {ip}
  .cfi_adjust_cfa_offset 4
  PUSH_REG(lr)
  bl _libharfbuzz_so_save_regs_and_resolve
  POP_REG(lr)
  add sp, #4
  .cfi_adjust_cfa_offset -4
  bx ip

  // Force constant pool for ldr above
  .ltorg

  .cfi_endproc

3:
  .word _libharfbuzz_so_tramp_table - (2b + 8) + 728

/*
 * Copyright 2018-2025 Yury Gribov
 *
 * The MIT License (MIT)
 *
 * Use of this source code is governed by MIT license that can be
 * found in the LICENSE.txt file.
 */

  .globl hb_font_funcs_set_user_data
  .p2align 4
  .type hb_font_funcs_set_user_data, %function
#ifndef IMPLIB_EXPORT_SHIMS
  .hidden hb_font_funcs_set_user_data
#endif
hb_font_funcs_set_user_data:
  .cfi_startproc

1:
  // Load address
  // TODO: can we do this faster on newer ARMs?
  ldr ip, 3f
2:
  add ip, pc, ip
  ldr ip, [ip]

  cmp ip, #0

  // Fast path
  bxne ip

  // Slow path
  ldr ip, =183
  push {ip}
  .cfi_adjust_cfa_offset 4
  PUSH_REG(lr)
  bl _libharfbuzz_so_save_regs_and_resolve
  POP_REG(lr)
  add sp, #4
  .cfi_adjust_cfa_offset -4
  bx ip

  // Force constant pool for ldr above
  .ltorg

  .cfi_endproc

3:
  .word _libharfbuzz_so_tramp_table - (2b + 8) + 732

/*
 * Copyright 2018-2025 Yury Gribov
 *
 * The MIT License (MIT)
 *
 * Use of this source code is governed by MIT license that can be
 * found in the LICENSE.txt file.
 */

  .globl hb_font_funcs_set_variation_glyph_func
  .p2align 4
  .type hb_font_funcs_set_variation_glyph_func, %function
#ifndef IMPLIB_EXPORT_SHIMS
  .hidden hb_font_funcs_set_variation_glyph_func
#endif
hb_font_funcs_set_variation_glyph_func:
  .cfi_startproc

1:
  // Load address
  // TODO: can we do this faster on newer ARMs?
  ldr ip, 3f
2:
  add ip, pc, ip
  ldr ip, [ip]

  cmp ip, #0

  // Fast path
  bxne ip

  // Slow path
  ldr ip, =184
  push {ip}
  .cfi_adjust_cfa_offset 4
  PUSH_REG(lr)
  bl _libharfbuzz_so_save_regs_and_resolve
  POP_REG(lr)
  add sp, #4
  .cfi_adjust_cfa_offset -4
  bx ip

  // Force constant pool for ldr above
  .ltorg

  .cfi_endproc

3:
  .word _libharfbuzz_so_tramp_table - (2b + 8) + 736

/*
 * Copyright 2018-2025 Yury Gribov
 *
 * The MIT License (MIT)
 *
 * Use of this source code is governed by MIT license that can be
 * found in the LICENSE.txt file.
 */

  .globl hb_font_get_empty
  .p2align 4
  .type hb_font_get_empty, %function
#ifndef IMPLIB_EXPORT_SHIMS
  .hidden hb_font_get_empty
#endif
hb_font_get_empty:
  .cfi_startproc

1:
  // Load address
  // TODO: can we do this faster on newer ARMs?
  ldr ip, 3f
2:
  add ip, pc, ip
  ldr ip, [ip]

  cmp ip, #0

  // Fast path
  bxne ip

  // Slow path
  ldr ip, =185
  push {ip}
  .cfi_adjust_cfa_offset 4
  PUSH_REG(lr)
  bl _libharfbuzz_so_save_regs_and_resolve
  POP_REG(lr)
  add sp, #4
  .cfi_adjust_cfa_offset -4
  bx ip

  // Force constant pool for ldr above
  .ltorg

  .cfi_endproc

3:
  .word _libharfbuzz_so_tramp_table - (2b + 8) + 740

/*
 * Copyright 2018-2025 Yury Gribov
 *
 * The MIT License (MIT)
 *
 * Use of this source code is governed by MIT license that can be
 * found in the LICENSE.txt file.
 */

  .globl hb_font_get_extents_for_direction
  .p2align 4
  .type hb_font_get_extents_for_direction, %function
#ifndef IMPLIB_EXPORT_SHIMS
  .hidden hb_font_get_extents_for_direction
#endif
hb_font_get_extents_for_direction:
  .cfi_startproc

1:
  // Load address
  // TODO: can we do this faster on newer ARMs?
  ldr ip, 3f
2:
  add ip, pc, ip
  ldr ip, [ip]

  cmp ip, #0

  // Fast path
  bxne ip

  // Slow path
  ldr ip, =186
  push {ip}
  .cfi_adjust_cfa_offset 4
  PUSH_REG(lr)
  bl _libharfbuzz_so_save_regs_and_resolve
  POP_REG(lr)
  add sp, #4
  .cfi_adjust_cfa_offset -4
  bx ip

  // Force constant pool for ldr above
  .ltorg

  .cfi_endproc

3:
  .word _libharfbuzz_so_tramp_table - (2b + 8) + 744

/*
 * Copyright 2018-2025 Yury Gribov
 *
 * The MIT License (MIT)
 *
 * Use of this source code is governed by MIT license that can be
 * found in the LICENSE.txt file.
 */

  .globl hb_font_get_face
  .p2align 4
  .type hb_font_get_face, %function
#ifndef IMPLIB_EXPORT_SHIMS
  .hidden hb_font_get_face
#endif
hb_font_get_face:
  .cfi_startproc

1:
  // Load address
  // TODO: can we do this faster on newer ARMs?
  ldr ip, 3f
2:
  add ip, pc, ip
  ldr ip, [ip]

  cmp ip, #0

  // Fast path
  bxne ip

  // Slow path
  ldr ip, =187
  push {ip}
  .cfi_adjust_cfa_offset 4
  PUSH_REG(lr)
  bl _libharfbuzz_so_save_regs_and_resolve
  POP_REG(lr)
  add sp, #4
  .cfi_adjust_cfa_offset -4
  bx ip

  // Force constant pool for ldr above
  .ltorg

  .cfi_endproc

3:
  .word _libharfbuzz_so_tramp_table - (2b + 8) + 748

/*
 * Copyright 2018-2025 Yury Gribov
 *
 * The MIT License (MIT)
 *
 * Use of this source code is governed by MIT license that can be
 * found in the LICENSE.txt file.
 */

  .globl hb_font_get_glyph
  .p2align 4
  .type hb_font_get_glyph, %function
#ifndef IMPLIB_EXPORT_SHIMS
  .hidden hb_font_get_glyph
#endif
hb_font_get_glyph:
  .cfi_startproc

1:
  // Load address
  // TODO: can we do this faster on newer ARMs?
  ldr ip, 3f
2:
  add ip, pc, ip
  ldr ip, [ip]

  cmp ip, #0

  // Fast path
  bxne ip

  // Slow path
  ldr ip, =188
  push {ip}
  .cfi_adjust_cfa_offset 4
  PUSH_REG(lr)
  bl _libharfbuzz_so_save_regs_and_resolve
  POP_REG(lr)
  add sp, #4
  .cfi_adjust_cfa_offset -4
  bx ip

  // Force constant pool for ldr above
  .ltorg

  .cfi_endproc

3:
  .word _libharfbuzz_so_tramp_table - (2b + 8) + 752

/*
 * Copyright 2018-2025 Yury Gribov
 *
 * The MIT License (MIT)
 *
 * Use of this source code is governed by MIT license that can be
 * found in the LICENSE.txt file.
 */

  .globl hb_font_get_glyph_advance_for_direction
  .p2align 4
  .type hb_font_get_glyph_advance_for_direction, %function
#ifndef IMPLIB_EXPORT_SHIMS
  .hidden hb_font_get_glyph_advance_for_direction
#endif
hb_font_get_glyph_advance_for_direction:
  .cfi_startproc

1:
  // Load address
  // TODO: can we do this faster on newer ARMs?
  ldr ip, 3f
2:
  add ip, pc, ip
  ldr ip, [ip]

  cmp ip, #0

  // Fast path
  bxne ip

  // Slow path
  ldr ip, =189
  push {ip}
  .cfi_adjust_cfa_offset 4
  PUSH_REG(lr)
  bl _libharfbuzz_so_save_regs_and_resolve
  POP_REG(lr)
  add sp, #4
  .cfi_adjust_cfa_offset -4
  bx ip

  // Force constant pool for ldr above
  .ltorg

  .cfi_endproc

3:
  .word _libharfbuzz_so_tramp_table - (2b + 8) + 756

/*
 * Copyright 2018-2025 Yury Gribov
 *
 * The MIT License (MIT)
 *
 * Use of this source code is governed by MIT license that can be
 * found in the LICENSE.txt file.
 */

  .globl hb_font_get_glyph_advances_for_direction
  .p2align 4
  .type hb_font_get_glyph_advances_for_direction, %function
#ifndef IMPLIB_EXPORT_SHIMS
  .hidden hb_font_get_glyph_advances_for_direction
#endif
hb_font_get_glyph_advances_for_direction:
  .cfi_startproc

1:
  // Load address
  // TODO: can we do this faster on newer ARMs?
  ldr ip, 3f
2:
  add ip, pc, ip
  ldr ip, [ip]

  cmp ip, #0

  // Fast path
  bxne ip

  // Slow path
  ldr ip, =190
  push {ip}
  .cfi_adjust_cfa_offset 4
  PUSH_REG(lr)
  bl _libharfbuzz_so_save_regs_and_resolve
  POP_REG(lr)
  add sp, #4
  .cfi_adjust_cfa_offset -4
  bx ip

  // Force constant pool for ldr above
  .ltorg

  .cfi_endproc

3:
  .word _libharfbuzz_so_tramp_table - (2b + 8) + 760

/*
 * Copyright 2018-2025 Yury Gribov
 *
 * The MIT License (MIT)
 *
 * Use of this source code is governed by MIT license that can be
 * found in the LICENSE.txt file.
 */

  .globl hb_font_get_glyph_contour_point
  .p2align 4
  .type hb_font_get_glyph_contour_point, %function
#ifndef IMPLIB_EXPORT_SHIMS
  .hidden hb_font_get_glyph_contour_point
#endif
hb_font_get_glyph_contour_point:
  .cfi_startproc

1:
  // Load address
  // TODO: can we do this faster on newer ARMs?
  ldr ip, 3f
2:
  add ip, pc, ip
  ldr ip, [ip]

  cmp ip, #0

  // Fast path
  bxne ip

  // Slow path
  ldr ip, =191
  push {ip}
  .cfi_adjust_cfa_offset 4
  PUSH_REG(lr)
  bl _libharfbuzz_so_save_regs_and_resolve
  POP_REG(lr)
  add sp, #4
  .cfi_adjust_cfa_offset -4
  bx ip

  // Force constant pool for ldr above
  .ltorg

  .cfi_endproc

3:
  .word _libharfbuzz_so_tramp_table - (2b + 8) + 764

/*
 * Copyright 2018-2025 Yury Gribov
 *
 * The MIT License (MIT)
 *
 * Use of this source code is governed by MIT license that can be
 * found in the LICENSE.txt file.
 */

  .globl hb_font_get_glyph_contour_point_for_origin
  .p2align 4
  .type hb_font_get_glyph_contour_point_for_origin, %function
#ifndef IMPLIB_EXPORT_SHIMS
  .hidden hb_font_get_glyph_contour_point_for_origin
#endif
hb_font_get_glyph_contour_point_for_origin:
  .cfi_startproc

1:
  // Load address
  // TODO: can we do this faster on newer ARMs?
  ldr ip, 3f
2:
  add ip, pc, ip
  ldr ip, [ip]

  cmp ip, #0

  // Fast path
  bxne ip

  // Slow path
  ldr ip, =192
  push {ip}
  .cfi_adjust_cfa_offset 4
  PUSH_REG(lr)
  bl _libharfbuzz_so_save_regs_and_resolve
  POP_REG(lr)
  add sp, #4
  .cfi_adjust_cfa_offset -4
  bx ip

  // Force constant pool for ldr above
  .ltorg

  .cfi_endproc

3:
  .word _libharfbuzz_so_tramp_table - (2b + 8) + 768

/*
 * Copyright 2018-2025 Yury Gribov
 *
 * The MIT License (MIT)
 *
 * Use of this source code is governed by MIT license that can be
 * found in the LICENSE.txt file.
 */

  .globl hb_font_get_glyph_extents
  .p2align 4
  .type hb_font_get_glyph_extents, %function
#ifndef IMPLIB_EXPORT_SHIMS
  .hidden hb_font_get_glyph_extents
#endif
hb_font_get_glyph_extents:
  .cfi_startproc

1:
  // Load address
  // TODO: can we do this faster on newer ARMs?
  ldr ip, 3f
2:
  add ip, pc, ip
  ldr ip, [ip]

  cmp ip, #0

  // Fast path
  bxne ip

  // Slow path
  ldr ip, =193
  push {ip}
  .cfi_adjust_cfa_offset 4
  PUSH_REG(lr)
  bl _libharfbuzz_so_save_regs_and_resolve
  POP_REG(lr)
  add sp, #4
  .cfi_adjust_cfa_offset -4
  bx ip

  // Force constant pool for ldr above
  .ltorg

  .cfi_endproc

3:
  .word _libharfbuzz_so_tramp_table - (2b + 8) + 772

/*
 * Copyright 2018-2025 Yury Gribov
 *
 * The MIT License (MIT)
 *
 * Use of this source code is governed by MIT license that can be
 * found in the LICENSE.txt file.
 */

  .globl hb_font_get_glyph_extents_for_origin
  .p2align 4
  .type hb_font_get_glyph_extents_for_origin, %function
#ifndef IMPLIB_EXPORT_SHIMS
  .hidden hb_font_get_glyph_extents_for_origin
#endif
hb_font_get_glyph_extents_for_origin:
  .cfi_startproc

1:
  // Load address
  // TODO: can we do this faster on newer ARMs?
  ldr ip, 3f
2:
  add ip, pc, ip
  ldr ip, [ip]

  cmp ip, #0

  // Fast path
  bxne ip

  // Slow path
  ldr ip, =194
  push {ip}
  .cfi_adjust_cfa_offset 4
  PUSH_REG(lr)
  bl _libharfbuzz_so_save_regs_and_resolve
  POP_REG(lr)
  add sp, #4
  .cfi_adjust_cfa_offset -4
  bx ip

  // Force constant pool for ldr above
  .ltorg

  .cfi_endproc

3:
  .word _libharfbuzz_so_tramp_table - (2b + 8) + 776

/*
 * Copyright 2018-2025 Yury Gribov
 *
 * The MIT License (MIT)
 *
 * Use of this source code is governed by MIT license that can be
 * found in the LICENSE.txt file.
 */

  .globl hb_font_get_glyph_from_name
  .p2align 4
  .type hb_font_get_glyph_from_name, %function
#ifndef IMPLIB_EXPORT_SHIMS
  .hidden hb_font_get_glyph_from_name
#endif
hb_font_get_glyph_from_name:
  .cfi_startproc

1:
  // Load address
  // TODO: can we do this faster on newer ARMs?
  ldr ip, 3f
2:
  add ip, pc, ip
  ldr ip, [ip]

  cmp ip, #0

  // Fast path
  bxne ip

  // Slow path
  ldr ip, =195
  push {ip}
  .cfi_adjust_cfa_offset 4
  PUSH_REG(lr)
  bl _libharfbuzz_so_save_regs_and_resolve
  POP_REG(lr)
  add sp, #4
  .cfi_adjust_cfa_offset -4
  bx ip

  // Force constant pool for ldr above
  .ltorg

  .cfi_endproc

3:
  .word _libharfbuzz_so_tramp_table - (2b + 8) + 780

/*
 * Copyright 2018-2025 Yury Gribov
 *
 * The MIT License (MIT)
 *
 * Use of this source code is governed by MIT license that can be
 * found in the LICENSE.txt file.
 */

  .globl hb_font_get_glyph_h_advance
  .p2align 4
  .type hb_font_get_glyph_h_advance, %function
#ifndef IMPLIB_EXPORT_SHIMS
  .hidden hb_font_get_glyph_h_advance
#endif
hb_font_get_glyph_h_advance:
  .cfi_startproc

1:
  // Load address
  // TODO: can we do this faster on newer ARMs?
  ldr ip, 3f
2:
  add ip, pc, ip
  ldr ip, [ip]

  cmp ip, #0

  // Fast path
  bxne ip

  // Slow path
  ldr ip, =196
  push {ip}
  .cfi_adjust_cfa_offset 4
  PUSH_REG(lr)
  bl _libharfbuzz_so_save_regs_and_resolve
  POP_REG(lr)
  add sp, #4
  .cfi_adjust_cfa_offset -4
  bx ip

  // Force constant pool for ldr above
  .ltorg

  .cfi_endproc

3:
  .word _libharfbuzz_so_tramp_table - (2b + 8) + 784

/*
 * Copyright 2018-2025 Yury Gribov
 *
 * The MIT License (MIT)
 *
 * Use of this source code is governed by MIT license that can be
 * found in the LICENSE.txt file.
 */

  .globl hb_font_get_glyph_h_advances
  .p2align 4
  .type hb_font_get_glyph_h_advances, %function
#ifndef IMPLIB_EXPORT_SHIMS
  .hidden hb_font_get_glyph_h_advances
#endif
hb_font_get_glyph_h_advances:
  .cfi_startproc

1:
  // Load address
  // TODO: can we do this faster on newer ARMs?
  ldr ip, 3f
2:
  add ip, pc, ip
  ldr ip, [ip]

  cmp ip, #0

  // Fast path
  bxne ip

  // Slow path
  ldr ip, =197
  push {ip}
  .cfi_adjust_cfa_offset 4
  PUSH_REG(lr)
  bl _libharfbuzz_so_save_regs_and_resolve
  POP_REG(lr)
  add sp, #4
  .cfi_adjust_cfa_offset -4
  bx ip

  // Force constant pool for ldr above
  .ltorg

  .cfi_endproc

3:
  .word _libharfbuzz_so_tramp_table - (2b + 8) + 788

/*
 * Copyright 2018-2025 Yury Gribov
 *
 * The MIT License (MIT)
 *
 * Use of this source code is governed by MIT license that can be
 * found in the LICENSE.txt file.
 */

  .globl hb_font_get_glyph_h_kerning
  .p2align 4
  .type hb_font_get_glyph_h_kerning, %function
#ifndef IMPLIB_EXPORT_SHIMS
  .hidden hb_font_get_glyph_h_kerning
#endif
hb_font_get_glyph_h_kerning:
  .cfi_startproc

1:
  // Load address
  // TODO: can we do this faster on newer ARMs?
  ldr ip, 3f
2:
  add ip, pc, ip
  ldr ip, [ip]

  cmp ip, #0

  // Fast path
  bxne ip

  // Slow path
  ldr ip, =198
  push {ip}
  .cfi_adjust_cfa_offset 4
  PUSH_REG(lr)
  bl _libharfbuzz_so_save_regs_and_resolve
  POP_REG(lr)
  add sp, #4
  .cfi_adjust_cfa_offset -4
  bx ip

  // Force constant pool for ldr above
  .ltorg

  .cfi_endproc

3:
  .word _libharfbuzz_so_tramp_table - (2b + 8) + 792

/*
 * Copyright 2018-2025 Yury Gribov
 *
 * The MIT License (MIT)
 *
 * Use of this source code is governed by MIT license that can be
 * found in the LICENSE.txt file.
 */

  .globl hb_font_get_glyph_h_origin
  .p2align 4
  .type hb_font_get_glyph_h_origin, %function
#ifndef IMPLIB_EXPORT_SHIMS
  .hidden hb_font_get_glyph_h_origin
#endif
hb_font_get_glyph_h_origin:
  .cfi_startproc

1:
  // Load address
  // TODO: can we do this faster on newer ARMs?
  ldr ip, 3f
2:
  add ip, pc, ip
  ldr ip, [ip]

  cmp ip, #0

  // Fast path
  bxne ip

  // Slow path
  ldr ip, =199
  push {ip}
  .cfi_adjust_cfa_offset 4
  PUSH_REG(lr)
  bl _libharfbuzz_so_save_regs_and_resolve
  POP_REG(lr)
  add sp, #4
  .cfi_adjust_cfa_offset -4
  bx ip

  // Force constant pool for ldr above
  .ltorg

  .cfi_endproc

3:
  .word _libharfbuzz_so_tramp_table - (2b + 8) + 796

/*
 * Copyright 2018-2025 Yury Gribov
 *
 * The MIT License (MIT)
 *
 * Use of this source code is governed by MIT license that can be
 * found in the LICENSE.txt file.
 */

  .globl hb_font_get_glyph_kerning_for_direction
  .p2align 4
  .type hb_font_get_glyph_kerning_for_direction, %function
#ifndef IMPLIB_EXPORT_SHIMS
  .hidden hb_font_get_glyph_kerning_for_direction
#endif
hb_font_get_glyph_kerning_for_direction:
  .cfi_startproc

1:
  // Load address
  // TODO: can we do this faster on newer ARMs?
  ldr ip, 3f
2:
  add ip, pc, ip
  ldr ip, [ip]

  cmp ip, #0

  // Fast path
  bxne ip

  // Slow path
  ldr ip, =200
  push {ip}
  .cfi_adjust_cfa_offset 4
  PUSH_REG(lr)
  bl _libharfbuzz_so_save_regs_and_resolve
  POP_REG(lr)
  add sp, #4
  .cfi_adjust_cfa_offset -4
  bx ip

  // Force constant pool for ldr above
  .ltorg

  .cfi_endproc

3:
  .word _libharfbuzz_so_tramp_table - (2b + 8) + 800

/*
 * Copyright 2018-2025 Yury Gribov
 *
 * The MIT License (MIT)
 *
 * Use of this source code is governed by MIT license that can be
 * found in the LICENSE.txt file.
 */

  .globl hb_font_get_glyph_name
  .p2align 4
  .type hb_font_get_glyph_name, %function
#ifndef IMPLIB_EXPORT_SHIMS
  .hidden hb_font_get_glyph_name
#endif
hb_font_get_glyph_name:
  .cfi_startproc

1:
  // Load address
  // TODO: can we do this faster on newer ARMs?
  ldr ip, 3f
2:
  add ip, pc, ip
  ldr ip, [ip]

  cmp ip, #0

  // Fast path
  bxne ip

  // Slow path
  ldr ip, =201
  push {ip}
  .cfi_adjust_cfa_offset 4
  PUSH_REG(lr)
  bl _libharfbuzz_so_save_regs_and_resolve
  POP_REG(lr)
  add sp, #4
  .cfi_adjust_cfa_offset -4
  bx ip

  // Force constant pool for ldr above
  .ltorg

  .cfi_endproc

3:
  .word _libharfbuzz_so_tramp_table - (2b + 8) + 804

/*
 * Copyright 2018-2025 Yury Gribov
 *
 * The MIT License (MIT)
 *
 * Use of this source code is governed by MIT license that can be
 * found in the LICENSE.txt file.
 */

  .globl hb_font_get_glyph_origin_for_direction
  .p2align 4
  .type hb_font_get_glyph_origin_for_direction, %function
#ifndef IMPLIB_EXPORT_SHIMS
  .hidden hb_font_get_glyph_origin_for_direction
#endif
hb_font_get_glyph_origin_for_direction:
  .cfi_startproc

1:
  // Load address
  // TODO: can we do this faster on newer ARMs?
  ldr ip, 3f
2:
  add ip, pc, ip
  ldr ip, [ip]

  cmp ip, #0

  // Fast path
  bxne ip

  // Slow path
  ldr ip, =202
  push {ip}
  .cfi_adjust_cfa_offset 4
  PUSH_REG(lr)
  bl _libharfbuzz_so_save_regs_and_resolve
  POP_REG(lr)
  add sp, #4
  .cfi_adjust_cfa_offset -4
  bx ip

  // Force constant pool for ldr above
  .ltorg

  .cfi_endproc

3:
  .word _libharfbuzz_so_tramp_table - (2b + 8) + 808

/*
 * Copyright 2018-2025 Yury Gribov
 *
 * The MIT License (MIT)
 *
 * Use of this source code is governed by MIT license that can be
 * found in the LICENSE.txt file.
 */

  .globl hb_font_get_glyph_shape
  .p2align 4
  .type hb_font_get_glyph_shape, %function
#ifndef IMPLIB_EXPORT_SHIMS
  .hidden hb_font_get_glyph_shape
#endif
hb_font_get_glyph_shape:
  .cfi_startproc

1:
  // Load address
  // TODO: can we do this faster on newer ARMs?
  ldr ip, 3f
2:
  add ip, pc, ip
  ldr ip, [ip]

  cmp ip, #0

  // Fast path
  bxne ip

  // Slow path
  ldr ip, =203
  push {ip}
  .cfi_adjust_cfa_offset 4
  PUSH_REG(lr)
  bl _libharfbuzz_so_save_regs_and_resolve
  POP_REG(lr)
  add sp, #4
  .cfi_adjust_cfa_offset -4
  bx ip

  // Force constant pool for ldr above
  .ltorg

  .cfi_endproc

3:
  .word _libharfbuzz_so_tramp_table - (2b + 8) + 812

/*
 * Copyright 2018-2025 Yury Gribov
 *
 * The MIT License (MIT)
 *
 * Use of this source code is governed by MIT license that can be
 * found in the LICENSE.txt file.
 */

  .globl hb_font_get_glyph_v_advance
  .p2align 4
  .type hb_font_get_glyph_v_advance, %function
#ifndef IMPLIB_EXPORT_SHIMS
  .hidden hb_font_get_glyph_v_advance
#endif
hb_font_get_glyph_v_advance:
  .cfi_startproc

1:
  // Load address
  // TODO: can we do this faster on newer ARMs?
  ldr ip, 3f
2:
  add ip, pc, ip
  ldr ip, [ip]

  cmp ip, #0

  // Fast path
  bxne ip

  // Slow path
  ldr ip, =204
  push {ip}
  .cfi_adjust_cfa_offset 4
  PUSH_REG(lr)
  bl _libharfbuzz_so_save_regs_and_resolve
  POP_REG(lr)
  add sp, #4
  .cfi_adjust_cfa_offset -4
  bx ip

  // Force constant pool for ldr above
  .ltorg

  .cfi_endproc

3:
  .word _libharfbuzz_so_tramp_table - (2b + 8) + 816

/*
 * Copyright 2018-2025 Yury Gribov
 *
 * The MIT License (MIT)
 *
 * Use of this source code is governed by MIT license that can be
 * found in the LICENSE.txt file.
 */

  .globl hb_font_get_glyph_v_advances
  .p2align 4
  .type hb_font_get_glyph_v_advances, %function
#ifndef IMPLIB_EXPORT_SHIMS
  .hidden hb_font_get_glyph_v_advances
#endif
hb_font_get_glyph_v_advances:
  .cfi_startproc

1:
  // Load address
  // TODO: can we do this faster on newer ARMs?
  ldr ip, 3f
2:
  add ip, pc, ip
  ldr ip, [ip]

  cmp ip, #0

  // Fast path
  bxne ip

  // Slow path
  ldr ip, =205
  push {ip}
  .cfi_adjust_cfa_offset 4
  PUSH_REG(lr)
  bl _libharfbuzz_so_save_regs_and_resolve
  POP_REG(lr)
  add sp, #4
  .cfi_adjust_cfa_offset -4
  bx ip

  // Force constant pool for ldr above
  .ltorg

  .cfi_endproc

3:
  .word _libharfbuzz_so_tramp_table - (2b + 8) + 820

/*
 * Copyright 2018-2025 Yury Gribov
 *
 * The MIT License (MIT)
 *
 * Use of this source code is governed by MIT license that can be
 * found in the LICENSE.txt file.
 */

  .globl hb_font_get_glyph_v_kerning
  .p2align 4
  .type hb_font_get_glyph_v_kerning, %function
#ifndef IMPLIB_EXPORT_SHIMS
  .hidden hb_font_get_glyph_v_kerning
#endif
hb_font_get_glyph_v_kerning:
  .cfi_startproc

1:
  // Load address
  // TODO: can we do this faster on newer ARMs?
  ldr ip, 3f
2:
  add ip, pc, ip
  ldr ip, [ip]

  cmp ip, #0

  // Fast path
  bxne ip

  // Slow path
  ldr ip, =206
  push {ip}
  .cfi_adjust_cfa_offset 4
  PUSH_REG(lr)
  bl _libharfbuzz_so_save_regs_and_resolve
  POP_REG(lr)
  add sp, #4
  .cfi_adjust_cfa_offset -4
  bx ip

  // Force constant pool for ldr above
  .ltorg

  .cfi_endproc

3:
  .word _libharfbuzz_so_tramp_table - (2b + 8) + 824

/*
 * Copyright 2018-2025 Yury Gribov
 *
 * The MIT License (MIT)
 *
 * Use of this source code is governed by MIT license that can be
 * found in the LICENSE.txt file.
 */

  .globl hb_font_get_glyph_v_origin
  .p2align 4
  .type hb_font_get_glyph_v_origin, %function
#ifndef IMPLIB_EXPORT_SHIMS
  .hidden hb_font_get_glyph_v_origin
#endif
hb_font_get_glyph_v_origin:
  .cfi_startproc

1:
  // Load address
  // TODO: can we do this faster on newer ARMs?
  ldr ip, 3f
2:
  add ip, pc, ip
  ldr ip, [ip]

  cmp ip, #0

  // Fast path
  bxne ip

  // Slow path
  ldr ip, =207
  push {ip}
  .cfi_adjust_cfa_offset 4
  PUSH_REG(lr)
  bl _libharfbuzz_so_save_regs_and_resolve
  POP_REG(lr)
  add sp, #4
  .cfi_adjust_cfa_offset -4
  bx ip

  // Force constant pool for ldr above
  .ltorg

  .cfi_endproc

3:
  .word _libharfbuzz_so_tramp_table - (2b + 8) + 828

/*
 * Copyright 2018-2025 Yury Gribov
 *
 * The MIT License (MIT)
 *
 * Use of this source code is governed by MIT license that can be
 * found in the LICENSE.txt file.
 */

  .globl hb_font_get_h_extents
  .p2align 4
  .type hb_font_get_h_extents, %function
#ifndef IMPLIB_EXPORT_SHIMS
  .hidden hb_font_get_h_extents
#endif
hb_font_get_h_extents:
  .cfi_startproc

1:
  // Load address
  // TODO: can we do this faster on newer ARMs?
  ldr ip, 3f
2:
  add ip, pc, ip
  ldr ip, [ip]

  cmp ip, #0

  // Fast path
  bxne ip

  // Slow path
  ldr ip, =208
  push {ip}
  .cfi_adjust_cfa_offset 4
  PUSH_REG(lr)
  bl _libharfbuzz_so_save_regs_and_resolve
  POP_REG(lr)
  add sp, #4
  .cfi_adjust_cfa_offset -4
  bx ip

  // Force constant pool for ldr above
  .ltorg

  .cfi_endproc

3:
  .word _libharfbuzz_so_tramp_table - (2b + 8) + 832

/*
 * Copyright 2018-2025 Yury Gribov
 *
 * The MIT License (MIT)
 *
 * Use of this source code is governed by MIT license that can be
 * found in the LICENSE.txt file.
 */

  .globl hb_font_get_nominal_glyph
  .p2align 4
  .type hb_font_get_nominal_glyph, %function
#ifndef IMPLIB_EXPORT_SHIMS
  .hidden hb_font_get_nominal_glyph
#endif
hb_font_get_nominal_glyph:
  .cfi_startproc

1:
  // Load address
  // TODO: can we do this faster on newer ARMs?
  ldr ip, 3f
2:
  add ip, pc, ip
  ldr ip, [ip]

  cmp ip, #0

  // Fast path
  bxne ip

  // Slow path
  ldr ip, =209
  push {ip}
  .cfi_adjust_cfa_offset 4
  PUSH_REG(lr)
  bl _libharfbuzz_so_save_regs_and_resolve
  POP_REG(lr)
  add sp, #4
  .cfi_adjust_cfa_offset -4
  bx ip

  // Force constant pool for ldr above
  .ltorg

  .cfi_endproc

3:
  .word _libharfbuzz_so_tramp_table - (2b + 8) + 836

/*
 * Copyright 2018-2025 Yury Gribov
 *
 * The MIT License (MIT)
 *
 * Use of this source code is governed by MIT license that can be
 * found in the LICENSE.txt file.
 */

  .globl hb_font_get_nominal_glyphs
  .p2align 4
  .type hb_font_get_nominal_glyphs, %function
#ifndef IMPLIB_EXPORT_SHIMS
  .hidden hb_font_get_nominal_glyphs
#endif
hb_font_get_nominal_glyphs:
  .cfi_startproc

1:
  // Load address
  // TODO: can we do this faster on newer ARMs?
  ldr ip, 3f
2:
  add ip, pc, ip
  ldr ip, [ip]

  cmp ip, #0

  // Fast path
  bxne ip

  // Slow path
  ldr ip, =210
  push {ip}
  .cfi_adjust_cfa_offset 4
  PUSH_REG(lr)
  bl _libharfbuzz_so_save_regs_and_resolve
  POP_REG(lr)
  add sp, #4
  .cfi_adjust_cfa_offset -4
  bx ip

  // Force constant pool for ldr above
  .ltorg

  .cfi_endproc

3:
  .word _libharfbuzz_so_tramp_table - (2b + 8) + 840

/*
 * Copyright 2018-2025 Yury Gribov
 *
 * The MIT License (MIT)
 *
 * Use of this source code is governed by MIT license that can be
 * found in the LICENSE.txt file.
 */

  .globl hb_font_get_parent
  .p2align 4
  .type hb_font_get_parent, %function
#ifndef IMPLIB_EXPORT_SHIMS
  .hidden hb_font_get_parent
#endif
hb_font_get_parent:
  .cfi_startproc

1:
  // Load address
  // TODO: can we do this faster on newer ARMs?
  ldr ip, 3f
2:
  add ip, pc, ip
  ldr ip, [ip]

  cmp ip, #0

  // Fast path
  bxne ip

  // Slow path
  ldr ip, =211
  push {ip}
  .cfi_adjust_cfa_offset 4
  PUSH_REG(lr)
  bl _libharfbuzz_so_save_regs_and_resolve
  POP_REG(lr)
  add sp, #4
  .cfi_adjust_cfa_offset -4
  bx ip

  // Force constant pool for ldr above
  .ltorg

  .cfi_endproc

3:
  .word _libharfbuzz_so_tramp_table - (2b + 8) + 844

/*
 * Copyright 2018-2025 Yury Gribov
 *
 * The MIT License (MIT)
 *
 * Use of this source code is governed by MIT license that can be
 * found in the LICENSE.txt file.
 */

  .globl hb_font_get_ppem
  .p2align 4
  .type hb_font_get_ppem, %function
#ifndef IMPLIB_EXPORT_SHIMS
  .hidden hb_font_get_ppem
#endif
hb_font_get_ppem:
  .cfi_startproc

1:
  // Load address
  // TODO: can we do this faster on newer ARMs?
  ldr ip, 3f
2:
  add ip, pc, ip
  ldr ip, [ip]

  cmp ip, #0

  // Fast path
  bxne ip

  // Slow path
  ldr ip, =212
  push {ip}
  .cfi_adjust_cfa_offset 4
  PUSH_REG(lr)
  bl _libharfbuzz_so_save_regs_and_resolve
  POP_REG(lr)
  add sp, #4
  .cfi_adjust_cfa_offset -4
  bx ip

  // Force constant pool for ldr above
  .ltorg

  .cfi_endproc

3:
  .word _libharfbuzz_so_tramp_table - (2b + 8) + 848

/*
 * Copyright 2018-2025 Yury Gribov
 *
 * The MIT License (MIT)
 *
 * Use of this source code is governed by MIT license that can be
 * found in the LICENSE.txt file.
 */

  .globl hb_font_get_ptem
  .p2align 4
  .type hb_font_get_ptem, %function
#ifndef IMPLIB_EXPORT_SHIMS
  .hidden hb_font_get_ptem
#endif
hb_font_get_ptem:
  .cfi_startproc

1:
  // Load address
  // TODO: can we do this faster on newer ARMs?
  ldr ip, 3f
2:
  add ip, pc, ip
  ldr ip, [ip]

  cmp ip, #0

  // Fast path
  bxne ip

  // Slow path
  ldr ip, =213
  push {ip}
  .cfi_adjust_cfa_offset 4
  PUSH_REG(lr)
  bl _libharfbuzz_so_save_regs_and_resolve
  POP_REG(lr)
  add sp, #4
  .cfi_adjust_cfa_offset -4
  bx ip

  // Force constant pool for ldr above
  .ltorg

  .cfi_endproc

3:
  .word _libharfbuzz_so_tramp_table - (2b + 8) + 852

/*
 * Copyright 2018-2025 Yury Gribov
 *
 * The MIT License (MIT)
 *
 * Use of this source code is governed by MIT license that can be
 * found in the LICENSE.txt file.
 */

  .globl hb_font_get_scale
  .p2align 4
  .type hb_font_get_scale, %function
#ifndef IMPLIB_EXPORT_SHIMS
  .hidden hb_font_get_scale
#endif
hb_font_get_scale:
  .cfi_startproc

1:
  // Load address
  // TODO: can we do this faster on newer ARMs?
  ldr ip, 3f
2:
  add ip, pc, ip
  ldr ip, [ip]

  cmp ip, #0

  // Fast path
  bxne ip

  // Slow path
  ldr ip, =214
  push {ip}
  .cfi_adjust_cfa_offset 4
  PUSH_REG(lr)
  bl _libharfbuzz_so_save_regs_and_resolve
  POP_REG(lr)
  add sp, #4
  .cfi_adjust_cfa_offset -4
  bx ip

  // Force constant pool for ldr above
  .ltorg

  .cfi_endproc

3:
  .word _libharfbuzz_so_tramp_table - (2b + 8) + 856

/*
 * Copyright 2018-2025 Yury Gribov
 *
 * The MIT License (MIT)
 *
 * Use of this source code is governed by MIT license that can be
 * found in the LICENSE.txt file.
 */

  .globl hb_font_get_serial
  .p2align 4
  .type hb_font_get_serial, %function
#ifndef IMPLIB_EXPORT_SHIMS
  .hidden hb_font_get_serial
#endif
hb_font_get_serial:
  .cfi_startproc

1:
  // Load address
  // TODO: can we do this faster on newer ARMs?
  ldr ip, 3f
2:
  add ip, pc, ip
  ldr ip, [ip]

  cmp ip, #0

  // Fast path
  bxne ip

  // Slow path
  ldr ip, =215
  push {ip}
  .cfi_adjust_cfa_offset 4
  PUSH_REG(lr)
  bl _libharfbuzz_so_save_regs_and_resolve
  POP_REG(lr)
  add sp, #4
  .cfi_adjust_cfa_offset -4
  bx ip

  // Force constant pool for ldr above
  .ltorg

  .cfi_endproc

3:
  .word _libharfbuzz_so_tramp_table - (2b + 8) + 860

/*
 * Copyright 2018-2025 Yury Gribov
 *
 * The MIT License (MIT)
 *
 * Use of this source code is governed by MIT license that can be
 * found in the LICENSE.txt file.
 */

  .globl hb_font_get_synthetic_bold
  .p2align 4
  .type hb_font_get_synthetic_bold, %function
#ifndef IMPLIB_EXPORT_SHIMS
  .hidden hb_font_get_synthetic_bold
#endif
hb_font_get_synthetic_bold:
  .cfi_startproc

1:
  // Load address
  // TODO: can we do this faster on newer ARMs?
  ldr ip, 3f
2:
  add ip, pc, ip
  ldr ip, [ip]

  cmp ip, #0

  // Fast path
  bxne ip

  // Slow path
  ldr ip, =216
  push {ip}
  .cfi_adjust_cfa_offset 4
  PUSH_REG(lr)
  bl _libharfbuzz_so_save_regs_and_resolve
  POP_REG(lr)
  add sp, #4
  .cfi_adjust_cfa_offset -4
  bx ip

  // Force constant pool for ldr above
  .ltorg

  .cfi_endproc

3:
  .word _libharfbuzz_so_tramp_table - (2b + 8) + 864

/*
 * Copyright 2018-2025 Yury Gribov
 *
 * The MIT License (MIT)
 *
 * Use of this source code is governed by MIT license that can be
 * found in the LICENSE.txt file.
 */

  .globl hb_font_get_synthetic_slant
  .p2align 4
  .type hb_font_get_synthetic_slant, %function
#ifndef IMPLIB_EXPORT_SHIMS
  .hidden hb_font_get_synthetic_slant
#endif
hb_font_get_synthetic_slant:
  .cfi_startproc

1:
  // Load address
  // TODO: can we do this faster on newer ARMs?
  ldr ip, 3f
2:
  add ip, pc, ip
  ldr ip, [ip]

  cmp ip, #0

  // Fast path
  bxne ip

  // Slow path
  ldr ip, =217
  push {ip}
  .cfi_adjust_cfa_offset 4
  PUSH_REG(lr)
  bl _libharfbuzz_so_save_regs_and_resolve
  POP_REG(lr)
  add sp, #4
  .cfi_adjust_cfa_offset -4
  bx ip

  // Force constant pool for ldr above
  .ltorg

  .cfi_endproc

3:
  .word _libharfbuzz_so_tramp_table - (2b + 8) + 868

/*
 * Copyright 2018-2025 Yury Gribov
 *
 * The MIT License (MIT)
 *
 * Use of this source code is governed by MIT license that can be
 * found in the LICENSE.txt file.
 */

  .globl hb_font_get_user_data
  .p2align 4
  .type hb_font_get_user_data, %function
#ifndef IMPLIB_EXPORT_SHIMS
  .hidden hb_font_get_user_data
#endif
hb_font_get_user_data:
  .cfi_startproc

1:
  // Load address
  // TODO: can we do this faster on newer ARMs?
  ldr ip, 3f
2:
  add ip, pc, ip
  ldr ip, [ip]

  cmp ip, #0

  // Fast path
  bxne ip

  // Slow path
  ldr ip, =218
  push {ip}
  .cfi_adjust_cfa_offset 4
  PUSH_REG(lr)
  bl _libharfbuzz_so_save_regs_and_resolve
  POP_REG(lr)
  add sp, #4
  .cfi_adjust_cfa_offset -4
  bx ip

  // Force constant pool for ldr above
  .ltorg

  .cfi_endproc

3:
  .word _libharfbuzz_so_tramp_table - (2b + 8) + 872

/*
 * Copyright 2018-2025 Yury Gribov
 *
 * The MIT License (MIT)
 *
 * Use of this source code is governed by MIT license that can be
 * found in the LICENSE.txt file.
 */

  .globl hb_font_get_v_extents
  .p2align 4
  .type hb_font_get_v_extents, %function
#ifndef IMPLIB_EXPORT_SHIMS
  .hidden hb_font_get_v_extents
#endif
hb_font_get_v_extents:
  .cfi_startproc

1:
  // Load address
  // TODO: can we do this faster on newer ARMs?
  ldr ip, 3f
2:
  add ip, pc, ip
  ldr ip, [ip]

  cmp ip, #0

  // Fast path
  bxne ip

  // Slow path
  ldr ip, =219
  push {ip}
  .cfi_adjust_cfa_offset 4
  PUSH_REG(lr)
  bl _libharfbuzz_so_save_regs_and_resolve
  POP_REG(lr)
  add sp, #4
  .cfi_adjust_cfa_offset -4
  bx ip

  // Force constant pool for ldr above
  .ltorg

  .cfi_endproc

3:
  .word _libharfbuzz_so_tramp_table - (2b + 8) + 876

/*
 * Copyright 2018-2025 Yury Gribov
 *
 * The MIT License (MIT)
 *
 * Use of this source code is governed by MIT license that can be
 * found in the LICENSE.txt file.
 */

  .globl hb_font_get_var_coords_design
  .p2align 4
  .type hb_font_get_var_coords_design, %function
#ifndef IMPLIB_EXPORT_SHIMS
  .hidden hb_font_get_var_coords_design
#endif
hb_font_get_var_coords_design:
  .cfi_startproc

1:
  // Load address
  // TODO: can we do this faster on newer ARMs?
  ldr ip, 3f
2:
  add ip, pc, ip
  ldr ip, [ip]

  cmp ip, #0

  // Fast path
  bxne ip

  // Slow path
  ldr ip, =220
  push {ip}
  .cfi_adjust_cfa_offset 4
  PUSH_REG(lr)
  bl _libharfbuzz_so_save_regs_and_resolve
  POP_REG(lr)
  add sp, #4
  .cfi_adjust_cfa_offset -4
  bx ip

  // Force constant pool for ldr above
  .ltorg

  .cfi_endproc

3:
  .word _libharfbuzz_so_tramp_table - (2b + 8) + 880

/*
 * Copyright 2018-2025 Yury Gribov
 *
 * The MIT License (MIT)
 *
 * Use of this source code is governed by MIT license that can be
 * found in the LICENSE.txt file.
 */

  .globl hb_font_get_var_coords_normalized
  .p2align 4
  .type hb_font_get_var_coords_normalized, %function
#ifndef IMPLIB_EXPORT_SHIMS
  .hidden hb_font_get_var_coords_normalized
#endif
hb_font_get_var_coords_normalized:
  .cfi_startproc

1:
  // Load address
  // TODO: can we do this faster on newer ARMs?
  ldr ip, 3f
2:
  add ip, pc, ip
  ldr ip, [ip]

  cmp ip, #0

  // Fast path
  bxne ip

  // Slow path
  ldr ip, =221
  push {ip}
  .cfi_adjust_cfa_offset 4
  PUSH_REG(lr)
  bl _libharfbuzz_so_save_regs_and_resolve
  POP_REG(lr)
  add sp, #4
  .cfi_adjust_cfa_offset -4
  bx ip

  // Force constant pool for ldr above
  .ltorg

  .cfi_endproc

3:
  .word _libharfbuzz_so_tramp_table - (2b + 8) + 884

/*
 * Copyright 2018-2025 Yury Gribov
 *
 * The MIT License (MIT)
 *
 * Use of this source code is governed by MIT license that can be
 * found in the LICENSE.txt file.
 */

  .globl hb_font_get_var_named_instance
  .p2align 4
  .type hb_font_get_var_named_instance, %function
#ifndef IMPLIB_EXPORT_SHIMS
  .hidden hb_font_get_var_named_instance
#endif
hb_font_get_var_named_instance:
  .cfi_startproc

1:
  // Load address
  // TODO: can we do this faster on newer ARMs?
  ldr ip, 3f
2:
  add ip, pc, ip
  ldr ip, [ip]

  cmp ip, #0

  // Fast path
  bxne ip

  // Slow path
  ldr ip, =222
  push {ip}
  .cfi_adjust_cfa_offset 4
  PUSH_REG(lr)
  bl _libharfbuzz_so_save_regs_and_resolve
  POP_REG(lr)
  add sp, #4
  .cfi_adjust_cfa_offset -4
  bx ip

  // Force constant pool for ldr above
  .ltorg

  .cfi_endproc

3:
  .word _libharfbuzz_so_tramp_table - (2b + 8) + 888

/*
 * Copyright 2018-2025 Yury Gribov
 *
 * The MIT License (MIT)
 *
 * Use of this source code is governed by MIT license that can be
 * found in the LICENSE.txt file.
 */

  .globl hb_font_get_variation_glyph
  .p2align 4
  .type hb_font_get_variation_glyph, %function
#ifndef IMPLIB_EXPORT_SHIMS
  .hidden hb_font_get_variation_glyph
#endif
hb_font_get_variation_glyph:
  .cfi_startproc

1:
  // Load address
  // TODO: can we do this faster on newer ARMs?
  ldr ip, 3f
2:
  add ip, pc, ip
  ldr ip, [ip]

  cmp ip, #0

  // Fast path
  bxne ip

  // Slow path
  ldr ip, =223
  push {ip}
  .cfi_adjust_cfa_offset 4
  PUSH_REG(lr)
  bl _libharfbuzz_so_save_regs_and_resolve
  POP_REG(lr)
  add sp, #4
  .cfi_adjust_cfa_offset -4
  bx ip

  // Force constant pool for ldr above
  .ltorg

  .cfi_endproc

3:
  .word _libharfbuzz_so_tramp_table - (2b + 8) + 892

/*
 * Copyright 2018-2025 Yury Gribov
 *
 * The MIT License (MIT)
 *
 * Use of this source code is governed by MIT license that can be
 * found in the LICENSE.txt file.
 */

  .globl hb_font_glyph_from_string
  .p2align 4
  .type hb_font_glyph_from_string, %function
#ifndef IMPLIB_EXPORT_SHIMS
  .hidden hb_font_glyph_from_string
#endif
hb_font_glyph_from_string:
  .cfi_startproc

1:
  // Load address
  // TODO: can we do this faster on newer ARMs?
  ldr ip, 3f
2:
  add ip, pc, ip
  ldr ip, [ip]

  cmp ip, #0

  // Fast path
  bxne ip

  // Slow path
  ldr ip, =224
  push {ip}
  .cfi_adjust_cfa_offset 4
  PUSH_REG(lr)
  bl _libharfbuzz_so_save_regs_and_resolve
  POP_REG(lr)
  add sp, #4
  .cfi_adjust_cfa_offset -4
  bx ip

  // Force constant pool for ldr above
  .ltorg

  .cfi_endproc

3:
  .word _libharfbuzz_so_tramp_table - (2b + 8) + 896

/*
 * Copyright 2018-2025 Yury Gribov
 *
 * The MIT License (MIT)
 *
 * Use of this source code is governed by MIT license that can be
 * found in the LICENSE.txt file.
 */

  .globl hb_font_glyph_to_string
  .p2align 4
  .type hb_font_glyph_to_string, %function
#ifndef IMPLIB_EXPORT_SHIMS
  .hidden hb_font_glyph_to_string
#endif
hb_font_glyph_to_string:
  .cfi_startproc

1:
  // Load address
  // TODO: can we do this faster on newer ARMs?
  ldr ip, 3f
2:
  add ip, pc, ip
  ldr ip, [ip]

  cmp ip, #0

  // Fast path
  bxne ip

  // Slow path
  ldr ip, =225
  push {ip}
  .cfi_adjust_cfa_offset 4
  PUSH_REG(lr)
  bl _libharfbuzz_so_save_regs_and_resolve
  POP_REG(lr)
  add sp, #4
  .cfi_adjust_cfa_offset -4
  bx ip

  // Force constant pool for ldr above
  .ltorg

  .cfi_endproc

3:
  .word _libharfbuzz_so_tramp_table - (2b + 8) + 900

/*
 * Copyright 2018-2025 Yury Gribov
 *
 * The MIT License (MIT)
 *
 * Use of this source code is governed by MIT license that can be
 * found in the LICENSE.txt file.
 */

  .globl hb_font_is_immutable
  .p2align 4
  .type hb_font_is_immutable, %function
#ifndef IMPLIB_EXPORT_SHIMS
  .hidden hb_font_is_immutable
#endif
hb_font_is_immutable:
  .cfi_startproc

1:
  // Load address
  // TODO: can we do this faster on newer ARMs?
  ldr ip, 3f
2:
  add ip, pc, ip
  ldr ip, [ip]

  cmp ip, #0

  // Fast path
  bxne ip

  // Slow path
  ldr ip, =226
  push {ip}
  .cfi_adjust_cfa_offset 4
  PUSH_REG(lr)
  bl _libharfbuzz_so_save_regs_and_resolve
  POP_REG(lr)
  add sp, #4
  .cfi_adjust_cfa_offset -4
  bx ip

  // Force constant pool for ldr above
  .ltorg

  .cfi_endproc

3:
  .word _libharfbuzz_so_tramp_table - (2b + 8) + 904

/*
 * Copyright 2018-2025 Yury Gribov
 *
 * The MIT License (MIT)
 *
 * Use of this source code is governed by MIT license that can be
 * found in the LICENSE.txt file.
 */

  .globl hb_font_is_synthetic
  .p2align 4
  .type hb_font_is_synthetic, %function
#ifndef IMPLIB_EXPORT_SHIMS
  .hidden hb_font_is_synthetic
#endif
hb_font_is_synthetic:
  .cfi_startproc

1:
  // Load address
  // TODO: can we do this faster on newer ARMs?
  ldr ip, 3f
2:
  add ip, pc, ip
  ldr ip, [ip]

  cmp ip, #0

  // Fast path
  bxne ip

  // Slow path
  ldr ip, =227
  push {ip}
  .cfi_adjust_cfa_offset 4
  PUSH_REG(lr)
  bl _libharfbuzz_so_save_regs_and_resolve
  POP_REG(lr)
  add sp, #4
  .cfi_adjust_cfa_offset -4
  bx ip

  // Force constant pool for ldr above
  .ltorg

  .cfi_endproc

3:
  .word _libharfbuzz_so_tramp_table - (2b + 8) + 908

/*
 * Copyright 2018-2025 Yury Gribov
 *
 * The MIT License (MIT)
 *
 * Use of this source code is governed by MIT license that can be
 * found in the LICENSE.txt file.
 */

  .globl hb_font_list_funcs
  .p2align 4
  .type hb_font_list_funcs, %function
#ifndef IMPLIB_EXPORT_SHIMS
  .hidden hb_font_list_funcs
#endif
hb_font_list_funcs:
  .cfi_startproc

1:
  // Load address
  // TODO: can we do this faster on newer ARMs?
  ldr ip, 3f
2:
  add ip, pc, ip
  ldr ip, [ip]

  cmp ip, #0

  // Fast path
  bxne ip

  // Slow path
  ldr ip, =228
  push {ip}
  .cfi_adjust_cfa_offset 4
  PUSH_REG(lr)
  bl _libharfbuzz_so_save_regs_and_resolve
  POP_REG(lr)
  add sp, #4
  .cfi_adjust_cfa_offset -4
  bx ip

  // Force constant pool for ldr above
  .ltorg

  .cfi_endproc

3:
  .word _libharfbuzz_so_tramp_table - (2b + 8) + 912

/*
 * Copyright 2018-2025 Yury Gribov
 *
 * The MIT License (MIT)
 *
 * Use of this source code is governed by MIT license that can be
 * found in the LICENSE.txt file.
 */

  .globl hb_font_make_immutable
  .p2align 4
  .type hb_font_make_immutable, %function
#ifndef IMPLIB_EXPORT_SHIMS
  .hidden hb_font_make_immutable
#endif
hb_font_make_immutable:
  .cfi_startproc

1:
  // Load address
  // TODO: can we do this faster on newer ARMs?
  ldr ip, 3f
2:
  add ip, pc, ip
  ldr ip, [ip]

  cmp ip, #0

  // Fast path
  bxne ip

  // Slow path
  ldr ip, =229
  push {ip}
  .cfi_adjust_cfa_offset 4
  PUSH_REG(lr)
  bl _libharfbuzz_so_save_regs_and_resolve
  POP_REG(lr)
  add sp, #4
  .cfi_adjust_cfa_offset -4
  bx ip

  // Force constant pool for ldr above
  .ltorg

  .cfi_endproc

3:
  .word _libharfbuzz_so_tramp_table - (2b + 8) + 916

/*
 * Copyright 2018-2025 Yury Gribov
 *
 * The MIT License (MIT)
 *
 * Use of this source code is governed by MIT license that can be
 * found in the LICENSE.txt file.
 */

  .globl hb_font_paint_glyph
  .p2align 4
  .type hb_font_paint_glyph, %function
#ifndef IMPLIB_EXPORT_SHIMS
  .hidden hb_font_paint_glyph
#endif
hb_font_paint_glyph:
  .cfi_startproc

1:
  // Load address
  // TODO: can we do this faster on newer ARMs?
  ldr ip, 3f
2:
  add ip, pc, ip
  ldr ip, [ip]

  cmp ip, #0

  // Fast path
  bxne ip

  // Slow path
  ldr ip, =230
  push {ip}
  .cfi_adjust_cfa_offset 4
  PUSH_REG(lr)
  bl _libharfbuzz_so_save_regs_and_resolve
  POP_REG(lr)
  add sp, #4
  .cfi_adjust_cfa_offset -4
  bx ip

  // Force constant pool for ldr above
  .ltorg

  .cfi_endproc

3:
  .word _libharfbuzz_so_tramp_table - (2b + 8) + 920

/*
 * Copyright 2018-2025 Yury Gribov
 *
 * The MIT License (MIT)
 *
 * Use of this source code is governed by MIT license that can be
 * found in the LICENSE.txt file.
 */

  .globl hb_font_paint_glyph_or_fail
  .p2align 4
  .type hb_font_paint_glyph_or_fail, %function
#ifndef IMPLIB_EXPORT_SHIMS
  .hidden hb_font_paint_glyph_or_fail
#endif
hb_font_paint_glyph_or_fail:
  .cfi_startproc

1:
  // Load address
  // TODO: can we do this faster on newer ARMs?
  ldr ip, 3f
2:
  add ip, pc, ip
  ldr ip, [ip]

  cmp ip, #0

  // Fast path
  bxne ip

  // Slow path
  ldr ip, =231
  push {ip}
  .cfi_adjust_cfa_offset 4
  PUSH_REG(lr)
  bl _libharfbuzz_so_save_regs_and_resolve
  POP_REG(lr)
  add sp, #4
  .cfi_adjust_cfa_offset -4
  bx ip

  // Force constant pool for ldr above
  .ltorg

  .cfi_endproc

3:
  .word _libharfbuzz_so_tramp_table - (2b + 8) + 924

/*
 * Copyright 2018-2025 Yury Gribov
 *
 * The MIT License (MIT)
 *
 * Use of this source code is governed by MIT license that can be
 * found in the LICENSE.txt file.
 */

  .globl hb_font_reference
  .p2align 4
  .type hb_font_reference, %function
#ifndef IMPLIB_EXPORT_SHIMS
  .hidden hb_font_reference
#endif
hb_font_reference:
  .cfi_startproc

1:
  // Load address
  // TODO: can we do this faster on newer ARMs?
  ldr ip, 3f
2:
  add ip, pc, ip
  ldr ip, [ip]

  cmp ip, #0

  // Fast path
  bxne ip

  // Slow path
  ldr ip, =232
  push {ip}
  .cfi_adjust_cfa_offset 4
  PUSH_REG(lr)
  bl _libharfbuzz_so_save_regs_and_resolve
  POP_REG(lr)
  add sp, #4
  .cfi_adjust_cfa_offset -4
  bx ip

  // Force constant pool for ldr above
  .ltorg

  .cfi_endproc

3:
  .word _libharfbuzz_so_tramp_table - (2b + 8) + 928

/*
 * Copyright 2018-2025 Yury Gribov
 *
 * The MIT License (MIT)
 *
 * Use of this source code is governed by MIT license that can be
 * found in the LICENSE.txt file.
 */

  .globl hb_font_set_face
  .p2align 4
  .type hb_font_set_face, %function
#ifndef IMPLIB_EXPORT_SHIMS
  .hidden hb_font_set_face
#endif
hb_font_set_face:
  .cfi_startproc

1:
  // Load address
  // TODO: can we do this faster on newer ARMs?
  ldr ip, 3f
2:
  add ip, pc, ip
  ldr ip, [ip]

  cmp ip, #0

  // Fast path
  bxne ip

  // Slow path
  ldr ip, =233
  push {ip}
  .cfi_adjust_cfa_offset 4
  PUSH_REG(lr)
  bl _libharfbuzz_so_save_regs_and_resolve
  POP_REG(lr)
  add sp, #4
  .cfi_adjust_cfa_offset -4
  bx ip

  // Force constant pool for ldr above
  .ltorg

  .cfi_endproc

3:
  .word _libharfbuzz_so_tramp_table - (2b + 8) + 932

/*
 * Copyright 2018-2025 Yury Gribov
 *
 * The MIT License (MIT)
 *
 * Use of this source code is governed by MIT license that can be
 * found in the LICENSE.txt file.
 */

  .globl hb_font_set_funcs
  .p2align 4
  .type hb_font_set_funcs, %function
#ifndef IMPLIB_EXPORT_SHIMS
  .hidden hb_font_set_funcs
#endif
hb_font_set_funcs:
  .cfi_startproc

1:
  // Load address
  // TODO: can we do this faster on newer ARMs?
  ldr ip, 3f
2:
  add ip, pc, ip
  ldr ip, [ip]

  cmp ip, #0

  // Fast path
  bxne ip

  // Slow path
  ldr ip, =234
  push {ip}
  .cfi_adjust_cfa_offset 4
  PUSH_REG(lr)
  bl _libharfbuzz_so_save_regs_and_resolve
  POP_REG(lr)
  add sp, #4
  .cfi_adjust_cfa_offset -4
  bx ip

  // Force constant pool for ldr above
  .ltorg

  .cfi_endproc

3:
  .word _libharfbuzz_so_tramp_table - (2b + 8) + 936

/*
 * Copyright 2018-2025 Yury Gribov
 *
 * The MIT License (MIT)
 *
 * Use of this source code is governed by MIT license that can be
 * found in the LICENSE.txt file.
 */

  .globl hb_font_set_funcs_data
  .p2align 4
  .type hb_font_set_funcs_data, %function
#ifndef IMPLIB_EXPORT_SHIMS
  .hidden hb_font_set_funcs_data
#endif
hb_font_set_funcs_data:
  .cfi_startproc

1:
  // Load address
  // TODO: can we do this faster on newer ARMs?
  ldr ip, 3f
2:
  add ip, pc, ip
  ldr ip, [ip]

  cmp ip, #0

  // Fast path
  bxne ip

  // Slow path
  ldr ip, =235
  push {ip}
  .cfi_adjust_cfa_offset 4
  PUSH_REG(lr)
  bl _libharfbuzz_so_save_regs_and_resolve
  POP_REG(lr)
  add sp, #4
  .cfi_adjust_cfa_offset -4
  bx ip

  // Force constant pool for ldr above
  .ltorg

  .cfi_endproc

3:
  .word _libharfbuzz_so_tramp_table - (2b + 8) + 940

/*
 * Copyright 2018-2025 Yury Gribov
 *
 * The MIT License (MIT)
 *
 * Use of this source code is governed by MIT license that can be
 * found in the LICENSE.txt file.
 */

  .globl hb_font_set_funcs_using
  .p2align 4
  .type hb_font_set_funcs_using, %function
#ifndef IMPLIB_EXPORT_SHIMS
  .hidden hb_font_set_funcs_using
#endif
hb_font_set_funcs_using:
  .cfi_startproc

1:
  // Load address
  // TODO: can we do this faster on newer ARMs?
  ldr ip, 3f
2:
  add ip, pc, ip
  ldr ip, [ip]

  cmp ip, #0

  // Fast path
  bxne ip

  // Slow path
  ldr ip, =236
  push {ip}
  .cfi_adjust_cfa_offset 4
  PUSH_REG(lr)
  bl _libharfbuzz_so_save_regs_and_resolve
  POP_REG(lr)
  add sp, #4
  .cfi_adjust_cfa_offset -4
  bx ip

  // Force constant pool for ldr above
  .ltorg

  .cfi_endproc

3:
  .word _libharfbuzz_so_tramp_table - (2b + 8) + 944

/*
 * Copyright 2018-2025 Yury Gribov
 *
 * The MIT License (MIT)
 *
 * Use of this source code is governed by MIT license that can be
 * found in the LICENSE.txt file.
 */

  .globl hb_font_set_parent
  .p2align 4
  .type hb_font_set_parent, %function
#ifndef IMPLIB_EXPORT_SHIMS
  .hidden hb_font_set_parent
#endif
hb_font_set_parent:
  .cfi_startproc

1:
  // Load address
  // TODO: can we do this faster on newer ARMs?
  ldr ip, 3f
2:
  add ip, pc, ip
  ldr ip, [ip]

  cmp ip, #0

  // Fast path
  bxne ip

  // Slow path
  ldr ip, =237
  push {ip}
  .cfi_adjust_cfa_offset 4
  PUSH_REG(lr)
  bl _libharfbuzz_so_save_regs_and_resolve
  POP_REG(lr)
  add sp, #4
  .cfi_adjust_cfa_offset -4
  bx ip

  // Force constant pool for ldr above
  .ltorg

  .cfi_endproc

3:
  .word _libharfbuzz_so_tramp_table - (2b + 8) + 948

/*
 * Copyright 2018-2025 Yury Gribov
 *
 * The MIT License (MIT)
 *
 * Use of this source code is governed by MIT license that can be
 * found in the LICENSE.txt file.
 */

  .globl hb_font_set_ppem
  .p2align 4
  .type hb_font_set_ppem, %function
#ifndef IMPLIB_EXPORT_SHIMS
  .hidden hb_font_set_ppem
#endif
hb_font_set_ppem:
  .cfi_startproc

1:
  // Load address
  // TODO: can we do this faster on newer ARMs?
  ldr ip, 3f
2:
  add ip, pc, ip
  ldr ip, [ip]

  cmp ip, #0

  // Fast path
  bxne ip

  // Slow path
  ldr ip, =238
  push {ip}
  .cfi_adjust_cfa_offset 4
  PUSH_REG(lr)
  bl _libharfbuzz_so_save_regs_and_resolve
  POP_REG(lr)
  add sp, #4
  .cfi_adjust_cfa_offset -4
  bx ip

  // Force constant pool for ldr above
  .ltorg

  .cfi_endproc

3:
  .word _libharfbuzz_so_tramp_table - (2b + 8) + 952

/*
 * Copyright 2018-2025 Yury Gribov
 *
 * The MIT License (MIT)
 *
 * Use of this source code is governed by MIT license that can be
 * found in the LICENSE.txt file.
 */

  .globl hb_font_set_ptem
  .p2align 4
  .type hb_font_set_ptem, %function
#ifndef IMPLIB_EXPORT_SHIMS
  .hidden hb_font_set_ptem
#endif
hb_font_set_ptem:
  .cfi_startproc

1:
  // Load address
  // TODO: can we do this faster on newer ARMs?
  ldr ip, 3f
2:
  add ip, pc, ip
  ldr ip, [ip]

  cmp ip, #0

  // Fast path
  bxne ip

  // Slow path
  ldr ip, =239
  push {ip}
  .cfi_adjust_cfa_offset 4
  PUSH_REG(lr)
  bl _libharfbuzz_so_save_regs_and_resolve
  POP_REG(lr)
  add sp, #4
  .cfi_adjust_cfa_offset -4
  bx ip

  // Force constant pool for ldr above
  .ltorg

  .cfi_endproc

3:
  .word _libharfbuzz_so_tramp_table - (2b + 8) + 956

/*
 * Copyright 2018-2025 Yury Gribov
 *
 * The MIT License (MIT)
 *
 * Use of this source code is governed by MIT license that can be
 * found in the LICENSE.txt file.
 */

  .globl hb_font_set_scale
  .p2align 4
  .type hb_font_set_scale, %function
#ifndef IMPLIB_EXPORT_SHIMS
  .hidden hb_font_set_scale
#endif
hb_font_set_scale:
  .cfi_startproc

1:
  // Load address
  // TODO: can we do this faster on newer ARMs?
  ldr ip, 3f
2:
  add ip, pc, ip
  ldr ip, [ip]

  cmp ip, #0

  // Fast path
  bxne ip

  // Slow path
  ldr ip, =240
  push {ip}
  .cfi_adjust_cfa_offset 4
  PUSH_REG(lr)
  bl _libharfbuzz_so_save_regs_and_resolve
  POP_REG(lr)
  add sp, #4
  .cfi_adjust_cfa_offset -4
  bx ip

  // Force constant pool for ldr above
  .ltorg

  .cfi_endproc

3:
  .word _libharfbuzz_so_tramp_table - (2b + 8) + 960

/*
 * Copyright 2018-2025 Yury Gribov
 *
 * The MIT License (MIT)
 *
 * Use of this source code is governed by MIT license that can be
 * found in the LICENSE.txt file.
 */

  .globl hb_font_set_synthetic_bold
  .p2align 4
  .type hb_font_set_synthetic_bold, %function
#ifndef IMPLIB_EXPORT_SHIMS
  .hidden hb_font_set_synthetic_bold
#endif
hb_font_set_synthetic_bold:
  .cfi_startproc

1:
  // Load address
  // TODO: can we do this faster on newer ARMs?
  ldr ip, 3f
2:
  add ip, pc, ip
  ldr ip, [ip]

  cmp ip, #0

  // Fast path
  bxne ip

  // Slow path
  ldr ip, =241
  push {ip}
  .cfi_adjust_cfa_offset 4
  PUSH_REG(lr)
  bl _libharfbuzz_so_save_regs_and_resolve
  POP_REG(lr)
  add sp, #4
  .cfi_adjust_cfa_offset -4
  bx ip

  // Force constant pool for ldr above
  .ltorg

  .cfi_endproc

3:
  .word _libharfbuzz_so_tramp_table - (2b + 8) + 964

/*
 * Copyright 2018-2025 Yury Gribov
 *
 * The MIT License (MIT)
 *
 * Use of this source code is governed by MIT license that can be
 * found in the LICENSE.txt file.
 */

  .globl hb_font_set_synthetic_slant
  .p2align 4
  .type hb_font_set_synthetic_slant, %function
#ifndef IMPLIB_EXPORT_SHIMS
  .hidden hb_font_set_synthetic_slant
#endif
hb_font_set_synthetic_slant:
  .cfi_startproc

1:
  // Load address
  // TODO: can we do this faster on newer ARMs?
  ldr ip, 3f
2:
  add ip, pc, ip
  ldr ip, [ip]

  cmp ip, #0

  // Fast path
  bxne ip

  // Slow path
  ldr ip, =242
  push {ip}
  .cfi_adjust_cfa_offset 4
  PUSH_REG(lr)
  bl _libharfbuzz_so_save_regs_and_resolve
  POP_REG(lr)
  add sp, #4
  .cfi_adjust_cfa_offset -4
  bx ip

  // Force constant pool for ldr above
  .ltorg

  .cfi_endproc

3:
  .word _libharfbuzz_so_tramp_table - (2b + 8) + 968

/*
 * Copyright 2018-2025 Yury Gribov
 *
 * The MIT License (MIT)
 *
 * Use of this source code is governed by MIT license that can be
 * found in the LICENSE.txt file.
 */

  .globl hb_font_set_user_data
  .p2align 4
  .type hb_font_set_user_data, %function
#ifndef IMPLIB_EXPORT_SHIMS
  .hidden hb_font_set_user_data
#endif
hb_font_set_user_data:
  .cfi_startproc

1:
  // Load address
  // TODO: can we do this faster on newer ARMs?
  ldr ip, 3f
2:
  add ip, pc, ip
  ldr ip, [ip]

  cmp ip, #0

  // Fast path
  bxne ip

  // Slow path
  ldr ip, =243
  push {ip}
  .cfi_adjust_cfa_offset 4
  PUSH_REG(lr)
  bl _libharfbuzz_so_save_regs_and_resolve
  POP_REG(lr)
  add sp, #4
  .cfi_adjust_cfa_offset -4
  bx ip

  // Force constant pool for ldr above
  .ltorg

  .cfi_endproc

3:
  .word _libharfbuzz_so_tramp_table - (2b + 8) + 972

/*
 * Copyright 2018-2025 Yury Gribov
 *
 * The MIT License (MIT)
 *
 * Use of this source code is governed by MIT license that can be
 * found in the LICENSE.txt file.
 */

  .globl hb_font_set_var_coords_design
  .p2align 4
  .type hb_font_set_var_coords_design, %function
#ifndef IMPLIB_EXPORT_SHIMS
  .hidden hb_font_set_var_coords_design
#endif
hb_font_set_var_coords_design:
  .cfi_startproc

1:
  // Load address
  // TODO: can we do this faster on newer ARMs?
  ldr ip, 3f
2:
  add ip, pc, ip
  ldr ip, [ip]

  cmp ip, #0

  // Fast path
  bxne ip

  // Slow path
  ldr ip, =244
  push {ip}
  .cfi_adjust_cfa_offset 4
  PUSH_REG(lr)
  bl _libharfbuzz_so_save_regs_and_resolve
  POP_REG(lr)
  add sp, #4
  .cfi_adjust_cfa_offset -4
  bx ip

  // Force constant pool for ldr above
  .ltorg

  .cfi_endproc

3:
  .word _libharfbuzz_so_tramp_table - (2b + 8) + 976

/*
 * Copyright 2018-2025 Yury Gribov
 *
 * The MIT License (MIT)
 *
 * Use of this source code is governed by MIT license that can be
 * found in the LICENSE.txt file.
 */

  .globl hb_font_set_var_coords_normalized
  .p2align 4
  .type hb_font_set_var_coords_normalized, %function
#ifndef IMPLIB_EXPORT_SHIMS
  .hidden hb_font_set_var_coords_normalized
#endif
hb_font_set_var_coords_normalized:
  .cfi_startproc

1:
  // Load address
  // TODO: can we do this faster on newer ARMs?
  ldr ip, 3f
2:
  add ip, pc, ip
  ldr ip, [ip]

  cmp ip, #0

  // Fast path
  bxne ip

  // Slow path
  ldr ip, =245
  push {ip}
  .cfi_adjust_cfa_offset 4
  PUSH_REG(lr)
  bl _libharfbuzz_so_save_regs_and_resolve
  POP_REG(lr)
  add sp, #4
  .cfi_adjust_cfa_offset -4
  bx ip

  // Force constant pool for ldr above
  .ltorg

  .cfi_endproc

3:
  .word _libharfbuzz_so_tramp_table - (2b + 8) + 980

/*
 * Copyright 2018-2025 Yury Gribov
 *
 * The MIT License (MIT)
 *
 * Use of this source code is governed by MIT license that can be
 * found in the LICENSE.txt file.
 */

  .globl hb_font_set_var_named_instance
  .p2align 4
  .type hb_font_set_var_named_instance, %function
#ifndef IMPLIB_EXPORT_SHIMS
  .hidden hb_font_set_var_named_instance
#endif
hb_font_set_var_named_instance:
  .cfi_startproc

1:
  // Load address
  // TODO: can we do this faster on newer ARMs?
  ldr ip, 3f
2:
  add ip, pc, ip
  ldr ip, [ip]

  cmp ip, #0

  // Fast path
  bxne ip

  // Slow path
  ldr ip, =246
  push {ip}
  .cfi_adjust_cfa_offset 4
  PUSH_REG(lr)
  bl _libharfbuzz_so_save_regs_and_resolve
  POP_REG(lr)
  add sp, #4
  .cfi_adjust_cfa_offset -4
  bx ip

  // Force constant pool for ldr above
  .ltorg

  .cfi_endproc

3:
  .word _libharfbuzz_so_tramp_table - (2b + 8) + 984

/*
 * Copyright 2018-2025 Yury Gribov
 *
 * The MIT License (MIT)
 *
 * Use of this source code is governed by MIT license that can be
 * found in the LICENSE.txt file.
 */

  .globl hb_font_set_variation
  .p2align 4
  .type hb_font_set_variation, %function
#ifndef IMPLIB_EXPORT_SHIMS
  .hidden hb_font_set_variation
#endif
hb_font_set_variation:
  .cfi_startproc

1:
  // Load address
  // TODO: can we do this faster on newer ARMs?
  ldr ip, 3f
2:
  add ip, pc, ip
  ldr ip, [ip]

  cmp ip, #0

  // Fast path
  bxne ip

  // Slow path
  ldr ip, =247
  push {ip}
  .cfi_adjust_cfa_offset 4
  PUSH_REG(lr)
  bl _libharfbuzz_so_save_regs_and_resolve
  POP_REG(lr)
  add sp, #4
  .cfi_adjust_cfa_offset -4
  bx ip

  // Force constant pool for ldr above
  .ltorg

  .cfi_endproc

3:
  .word _libharfbuzz_so_tramp_table - (2b + 8) + 988

/*
 * Copyright 2018-2025 Yury Gribov
 *
 * The MIT License (MIT)
 *
 * Use of this source code is governed by MIT license that can be
 * found in the LICENSE.txt file.
 */

  .globl hb_font_set_variations
  .p2align 4
  .type hb_font_set_variations, %function
#ifndef IMPLIB_EXPORT_SHIMS
  .hidden hb_font_set_variations
#endif
hb_font_set_variations:
  .cfi_startproc

1:
  // Load address
  // TODO: can we do this faster on newer ARMs?
  ldr ip, 3f
2:
  add ip, pc, ip
  ldr ip, [ip]

  cmp ip, #0

  // Fast path
  bxne ip

  // Slow path
  ldr ip, =248
  push {ip}
  .cfi_adjust_cfa_offset 4
  PUSH_REG(lr)
  bl _libharfbuzz_so_save_regs_and_resolve
  POP_REG(lr)
  add sp, #4
  .cfi_adjust_cfa_offset -4
  bx ip

  // Force constant pool for ldr above
  .ltorg

  .cfi_endproc

3:
  .word _libharfbuzz_so_tramp_table - (2b + 8) + 992

/*
 * Copyright 2018-2025 Yury Gribov
 *
 * The MIT License (MIT)
 *
 * Use of this source code is governed by MIT license that can be
 * found in the LICENSE.txt file.
 */

  .globl hb_font_subtract_glyph_origin_for_direction
  .p2align 4
  .type hb_font_subtract_glyph_origin_for_direction, %function
#ifndef IMPLIB_EXPORT_SHIMS
  .hidden hb_font_subtract_glyph_origin_for_direction
#endif
hb_font_subtract_glyph_origin_for_direction:
  .cfi_startproc

1:
  // Load address
  // TODO: can we do this faster on newer ARMs?
  ldr ip, 3f
2:
  add ip, pc, ip
  ldr ip, [ip]

  cmp ip, #0

  // Fast path
  bxne ip

  // Slow path
  ldr ip, =249
  push {ip}
  .cfi_adjust_cfa_offset 4
  PUSH_REG(lr)
  bl _libharfbuzz_so_save_regs_and_resolve
  POP_REG(lr)
  add sp, #4
  .cfi_adjust_cfa_offset -4
  bx ip

  // Force constant pool for ldr above
  .ltorg

  .cfi_endproc

3:
  .word _libharfbuzz_so_tramp_table - (2b + 8) + 996

/*
 * Copyright 2018-2025 Yury Gribov
 *
 * The MIT License (MIT)
 *
 * Use of this source code is governed by MIT license that can be
 * found in the LICENSE.txt file.
 */

  .globl hb_free
  .p2align 4
  .type hb_free, %function
#ifndef IMPLIB_EXPORT_SHIMS
  .hidden hb_free
#endif
hb_free:
  .cfi_startproc

1:
  // Load address
  // TODO: can we do this faster on newer ARMs?
  ldr ip, 3f
2:
  add ip, pc, ip
  ldr ip, [ip]

  cmp ip, #0

  // Fast path
  bxne ip

  // Slow path
  ldr ip, =250
  push {ip}
  .cfi_adjust_cfa_offset 4
  PUSH_REG(lr)
  bl _libharfbuzz_so_save_regs_and_resolve
  POP_REG(lr)
  add sp, #4
  .cfi_adjust_cfa_offset -4
  bx ip

  // Force constant pool for ldr above
  .ltorg

  .cfi_endproc

3:
  .word _libharfbuzz_so_tramp_table - (2b + 8) + 1000

/*
 * Copyright 2018-2025 Yury Gribov
 *
 * The MIT License (MIT)
 *
 * Use of this source code is governed by MIT license that can be
 * found in the LICENSE.txt file.
 */

  .globl hb_ft_face_create
  .p2align 4
  .type hb_ft_face_create, %function
#ifndef IMPLIB_EXPORT_SHIMS
  .hidden hb_ft_face_create
#endif
hb_ft_face_create:
  .cfi_startproc

1:
  // Load address
  // TODO: can we do this faster on newer ARMs?
  ldr ip, 3f
2:
  add ip, pc, ip
  ldr ip, [ip]

  cmp ip, #0

  // Fast path
  bxne ip

  // Slow path
  ldr ip, =251
  push {ip}
  .cfi_adjust_cfa_offset 4
  PUSH_REG(lr)
  bl _libharfbuzz_so_save_regs_and_resolve
  POP_REG(lr)
  add sp, #4
  .cfi_adjust_cfa_offset -4
  bx ip

  // Force constant pool for ldr above
  .ltorg

  .cfi_endproc

3:
  .word _libharfbuzz_so_tramp_table - (2b + 8) + 1004

/*
 * Copyright 2018-2025 Yury Gribov
 *
 * The MIT License (MIT)
 *
 * Use of this source code is governed by MIT license that can be
 * found in the LICENSE.txt file.
 */

  .globl hb_ft_face_create_cached
  .p2align 4
  .type hb_ft_face_create_cached, %function
#ifndef IMPLIB_EXPORT_SHIMS
  .hidden hb_ft_face_create_cached
#endif
hb_ft_face_create_cached:
  .cfi_startproc

1:
  // Load address
  // TODO: can we do this faster on newer ARMs?
  ldr ip, 3f
2:
  add ip, pc, ip
  ldr ip, [ip]

  cmp ip, #0

  // Fast path
  bxne ip

  // Slow path
  ldr ip, =252
  push {ip}
  .cfi_adjust_cfa_offset 4
  PUSH_REG(lr)
  bl _libharfbuzz_so_save_regs_and_resolve
  POP_REG(lr)
  add sp, #4
  .cfi_adjust_cfa_offset -4
  bx ip

  // Force constant pool for ldr above
  .ltorg

  .cfi_endproc

3:
  .word _libharfbuzz_so_tramp_table - (2b + 8) + 1008

/*
 * Copyright 2018-2025 Yury Gribov
 *
 * The MIT License (MIT)
 *
 * Use of this source code is governed by MIT license that can be
 * found in the LICENSE.txt file.
 */

  .globl hb_ft_face_create_from_blob_or_fail
  .p2align 4
  .type hb_ft_face_create_from_blob_or_fail, %function
#ifndef IMPLIB_EXPORT_SHIMS
  .hidden hb_ft_face_create_from_blob_or_fail
#endif
hb_ft_face_create_from_blob_or_fail:
  .cfi_startproc

1:
  // Load address
  // TODO: can we do this faster on newer ARMs?
  ldr ip, 3f
2:
  add ip, pc, ip
  ldr ip, [ip]

  cmp ip, #0

  // Fast path
  bxne ip

  // Slow path
  ldr ip, =253
  push {ip}
  .cfi_adjust_cfa_offset 4
  PUSH_REG(lr)
  bl _libharfbuzz_so_save_regs_and_resolve
  POP_REG(lr)
  add sp, #4
  .cfi_adjust_cfa_offset -4
  bx ip

  // Force constant pool for ldr above
  .ltorg

  .cfi_endproc

3:
  .word _libharfbuzz_so_tramp_table - (2b + 8) + 1012

/*
 * Copyright 2018-2025 Yury Gribov
 *
 * The MIT License (MIT)
 *
 * Use of this source code is governed by MIT license that can be
 * found in the LICENSE.txt file.
 */

  .globl hb_ft_face_create_from_file_or_fail
  .p2align 4
  .type hb_ft_face_create_from_file_or_fail, %function
#ifndef IMPLIB_EXPORT_SHIMS
  .hidden hb_ft_face_create_from_file_or_fail
#endif
hb_ft_face_create_from_file_or_fail:
  .cfi_startproc

1:
  // Load address
  // TODO: can we do this faster on newer ARMs?
  ldr ip, 3f
2:
  add ip, pc, ip
  ldr ip, [ip]

  cmp ip, #0

  // Fast path
  bxne ip

  // Slow path
  ldr ip, =254
  push {ip}
  .cfi_adjust_cfa_offset 4
  PUSH_REG(lr)
  bl _libharfbuzz_so_save_regs_and_resolve
  POP_REG(lr)
  add sp, #4
  .cfi_adjust_cfa_offset -4
  bx ip

  // Force constant pool for ldr above
  .ltorg

  .cfi_endproc

3:
  .word _libharfbuzz_so_tramp_table - (2b + 8) + 1016

/*
 * Copyright 2018-2025 Yury Gribov
 *
 * The MIT License (MIT)
 *
 * Use of this source code is governed by MIT license that can be
 * found in the LICENSE.txt file.
 */

  .globl hb_ft_face_create_referenced
  .p2align 4
  .type hb_ft_face_create_referenced, %function
#ifndef IMPLIB_EXPORT_SHIMS
  .hidden hb_ft_face_create_referenced
#endif
hb_ft_face_create_referenced:
  .cfi_startproc

1:
  // Load address
  // TODO: can we do this faster on newer ARMs?
  ldr ip, 3f
2:
  add ip, pc, ip
  ldr ip, [ip]

  cmp ip, #0

  // Fast path
  bxne ip

  // Slow path
  ldr ip, =255
  push {ip}
  .cfi_adjust_cfa_offset 4
  PUSH_REG(lr)
  bl _libharfbuzz_so_save_regs_and_resolve
  POP_REG(lr)
  add sp, #4
  .cfi_adjust_cfa_offset -4
  bx ip

  // Force constant pool for ldr above
  .ltorg

  .cfi_endproc

3:
  .word _libharfbuzz_so_tramp_table - (2b + 8) + 1020

/*
 * Copyright 2018-2025 Yury Gribov
 *
 * The MIT License (MIT)
 *
 * Use of this source code is governed by MIT license that can be
 * found in the LICENSE.txt file.
 */

  .globl hb_ft_font_changed
  .p2align 4
  .type hb_ft_font_changed, %function
#ifndef IMPLIB_EXPORT_SHIMS
  .hidden hb_ft_font_changed
#endif
hb_ft_font_changed:
  .cfi_startproc

1:
  // Load address
  // TODO: can we do this faster on newer ARMs?
  ldr ip, 3f
2:
  add ip, pc, ip
  ldr ip, [ip]

  cmp ip, #0

  // Fast path
  bxne ip

  // Slow path
  ldr ip, =256
  push {ip}
  .cfi_adjust_cfa_offset 4
  PUSH_REG(lr)
  bl _libharfbuzz_so_save_regs_and_resolve
  POP_REG(lr)
  add sp, #4
  .cfi_adjust_cfa_offset -4
  bx ip

  // Force constant pool for ldr above
  .ltorg

  .cfi_endproc

3:
  .word _libharfbuzz_so_tramp_table - (2b + 8) + 1024

/*
 * Copyright 2018-2025 Yury Gribov
 *
 * The MIT License (MIT)
 *
 * Use of this source code is governed by MIT license that can be
 * found in the LICENSE.txt file.
 */

  .globl hb_ft_font_create
  .p2align 4
  .type hb_ft_font_create, %function
#ifndef IMPLIB_EXPORT_SHIMS
  .hidden hb_ft_font_create
#endif
hb_ft_font_create:
  .cfi_startproc

1:
  // Load address
  // TODO: can we do this faster on newer ARMs?
  ldr ip, 3f
2:
  add ip, pc, ip
  ldr ip, [ip]

  cmp ip, #0

  // Fast path
  bxne ip

  // Slow path
  ldr ip, =257
  push {ip}
  .cfi_adjust_cfa_offset 4
  PUSH_REG(lr)
  bl _libharfbuzz_so_save_regs_and_resolve
  POP_REG(lr)
  add sp, #4
  .cfi_adjust_cfa_offset -4
  bx ip

  // Force constant pool for ldr above
  .ltorg

  .cfi_endproc

3:
  .word _libharfbuzz_so_tramp_table - (2b + 8) + 1028

/*
 * Copyright 2018-2025 Yury Gribov
 *
 * The MIT License (MIT)
 *
 * Use of this source code is governed by MIT license that can be
 * found in the LICENSE.txt file.
 */

  .globl hb_ft_font_create_referenced
  .p2align 4
  .type hb_ft_font_create_referenced, %function
#ifndef IMPLIB_EXPORT_SHIMS
  .hidden hb_ft_font_create_referenced
#endif
hb_ft_font_create_referenced:
  .cfi_startproc

1:
  // Load address
  // TODO: can we do this faster on newer ARMs?
  ldr ip, 3f
2:
  add ip, pc, ip
  ldr ip, [ip]

  cmp ip, #0

  // Fast path
  bxne ip

  // Slow path
  ldr ip, =258
  push {ip}
  .cfi_adjust_cfa_offset 4
  PUSH_REG(lr)
  bl _libharfbuzz_so_save_regs_and_resolve
  POP_REG(lr)
  add sp, #4
  .cfi_adjust_cfa_offset -4
  bx ip

  // Force constant pool for ldr above
  .ltorg

  .cfi_endproc

3:
  .word _libharfbuzz_so_tramp_table - (2b + 8) + 1032

/*
 * Copyright 2018-2025 Yury Gribov
 *
 * The MIT License (MIT)
 *
 * Use of this source code is governed by MIT license that can be
 * found in the LICENSE.txt file.
 */

  .globl hb_ft_font_get_face
  .p2align 4
  .type hb_ft_font_get_face, %function
#ifndef IMPLIB_EXPORT_SHIMS
  .hidden hb_ft_font_get_face
#endif
hb_ft_font_get_face:
  .cfi_startproc

1:
  // Load address
  // TODO: can we do this faster on newer ARMs?
  ldr ip, 3f
2:
  add ip, pc, ip
  ldr ip, [ip]

  cmp ip, #0

  // Fast path
  bxne ip

  // Slow path
  ldr ip, =259
  push {ip}
  .cfi_adjust_cfa_offset 4
  PUSH_REG(lr)
  bl _libharfbuzz_so_save_regs_and_resolve
  POP_REG(lr)
  add sp, #4
  .cfi_adjust_cfa_offset -4
  bx ip

  // Force constant pool for ldr above
  .ltorg

  .cfi_endproc

3:
  .word _libharfbuzz_so_tramp_table - (2b + 8) + 1036

/*
 * Copyright 2018-2025 Yury Gribov
 *
 * The MIT License (MIT)
 *
 * Use of this source code is governed by MIT license that can be
 * found in the LICENSE.txt file.
 */

  .globl hb_ft_font_get_ft_face
  .p2align 4
  .type hb_ft_font_get_ft_face, %function
#ifndef IMPLIB_EXPORT_SHIMS
  .hidden hb_ft_font_get_ft_face
#endif
hb_ft_font_get_ft_face:
  .cfi_startproc

1:
  // Load address
  // TODO: can we do this faster on newer ARMs?
  ldr ip, 3f
2:
  add ip, pc, ip
  ldr ip, [ip]

  cmp ip, #0

  // Fast path
  bxne ip

  // Slow path
  ldr ip, =260
  push {ip}
  .cfi_adjust_cfa_offset 4
  PUSH_REG(lr)
  bl _libharfbuzz_so_save_regs_and_resolve
  POP_REG(lr)
  add sp, #4
  .cfi_adjust_cfa_offset -4
  bx ip

  // Force constant pool for ldr above
  .ltorg

  .cfi_endproc

3:
  .word _libharfbuzz_so_tramp_table - (2b + 8) + 1040

/*
 * Copyright 2018-2025 Yury Gribov
 *
 * The MIT License (MIT)
 *
 * Use of this source code is governed by MIT license that can be
 * found in the LICENSE.txt file.
 */

  .globl hb_ft_font_get_load_flags
  .p2align 4
  .type hb_ft_font_get_load_flags, %function
#ifndef IMPLIB_EXPORT_SHIMS
  .hidden hb_ft_font_get_load_flags
#endif
hb_ft_font_get_load_flags:
  .cfi_startproc

1:
  // Load address
  // TODO: can we do this faster on newer ARMs?
  ldr ip, 3f
2:
  add ip, pc, ip
  ldr ip, [ip]

  cmp ip, #0

  // Fast path
  bxne ip

  // Slow path
  ldr ip, =261
  push {ip}
  .cfi_adjust_cfa_offset 4
  PUSH_REG(lr)
  bl _libharfbuzz_so_save_regs_and_resolve
  POP_REG(lr)
  add sp, #4
  .cfi_adjust_cfa_offset -4
  bx ip

  // Force constant pool for ldr above
  .ltorg

  .cfi_endproc

3:
  .word _libharfbuzz_so_tramp_table - (2b + 8) + 1044

/*
 * Copyright 2018-2025 Yury Gribov
 *
 * The MIT License (MIT)
 *
 * Use of this source code is governed by MIT license that can be
 * found in the LICENSE.txt file.
 */

  .globl hb_ft_font_lock_face
  .p2align 4
  .type hb_ft_font_lock_face, %function
#ifndef IMPLIB_EXPORT_SHIMS
  .hidden hb_ft_font_lock_face
#endif
hb_ft_font_lock_face:
  .cfi_startproc

1:
  // Load address
  // TODO: can we do this faster on newer ARMs?
  ldr ip, 3f
2:
  add ip, pc, ip
  ldr ip, [ip]

  cmp ip, #0

  // Fast path
  bxne ip

  // Slow path
  ldr ip, =262
  push {ip}
  .cfi_adjust_cfa_offset 4
  PUSH_REG(lr)
  bl _libharfbuzz_so_save_regs_and_resolve
  POP_REG(lr)
  add sp, #4
  .cfi_adjust_cfa_offset -4
  bx ip

  // Force constant pool for ldr above
  .ltorg

  .cfi_endproc

3:
  .word _libharfbuzz_so_tramp_table - (2b + 8) + 1048

/*
 * Copyright 2018-2025 Yury Gribov
 *
 * The MIT License (MIT)
 *
 * Use of this source code is governed by MIT license that can be
 * found in the LICENSE.txt file.
 */

  .globl hb_ft_font_set_funcs
  .p2align 4
  .type hb_ft_font_set_funcs, %function
#ifndef IMPLIB_EXPORT_SHIMS
  .hidden hb_ft_font_set_funcs
#endif
hb_ft_font_set_funcs:
  .cfi_startproc

1:
  // Load address
  // TODO: can we do this faster on newer ARMs?
  ldr ip, 3f
2:
  add ip, pc, ip
  ldr ip, [ip]

  cmp ip, #0

  // Fast path
  bxne ip

  // Slow path
  ldr ip, =263
  push {ip}
  .cfi_adjust_cfa_offset 4
  PUSH_REG(lr)
  bl _libharfbuzz_so_save_regs_and_resolve
  POP_REG(lr)
  add sp, #4
  .cfi_adjust_cfa_offset -4
  bx ip

  // Force constant pool for ldr above
  .ltorg

  .cfi_endproc

3:
  .word _libharfbuzz_so_tramp_table - (2b + 8) + 1052

/*
 * Copyright 2018-2025 Yury Gribov
 *
 * The MIT License (MIT)
 *
 * Use of this source code is governed by MIT license that can be
 * found in the LICENSE.txt file.
 */

  .globl hb_ft_font_set_load_flags
  .p2align 4
  .type hb_ft_font_set_load_flags, %function
#ifndef IMPLIB_EXPORT_SHIMS
  .hidden hb_ft_font_set_load_flags
#endif
hb_ft_font_set_load_flags:
  .cfi_startproc

1:
  // Load address
  // TODO: can we do this faster on newer ARMs?
  ldr ip, 3f
2:
  add ip, pc, ip
  ldr ip, [ip]

  cmp ip, #0

  // Fast path
  bxne ip

  // Slow path
  ldr ip, =264
  push {ip}
  .cfi_adjust_cfa_offset 4
  PUSH_REG(lr)
  bl _libharfbuzz_so_save_regs_and_resolve
  POP_REG(lr)
  add sp, #4
  .cfi_adjust_cfa_offset -4
  bx ip

  // Force constant pool for ldr above
  .ltorg

  .cfi_endproc

3:
  .word _libharfbuzz_so_tramp_table - (2b + 8) + 1056

/*
 * Copyright 2018-2025 Yury Gribov
 *
 * The MIT License (MIT)
 *
 * Use of this source code is governed by MIT license that can be
 * found in the LICENSE.txt file.
 */

  .globl hb_ft_font_unlock_face
  .p2align 4
  .type hb_ft_font_unlock_face, %function
#ifndef IMPLIB_EXPORT_SHIMS
  .hidden hb_ft_font_unlock_face
#endif
hb_ft_font_unlock_face:
  .cfi_startproc

1:
  // Load address
  // TODO: can we do this faster on newer ARMs?
  ldr ip, 3f
2:
  add ip, pc, ip
  ldr ip, [ip]

  cmp ip, #0

  // Fast path
  bxne ip

  // Slow path
  ldr ip, =265
  push {ip}
  .cfi_adjust_cfa_offset 4
  PUSH_REG(lr)
  bl _libharfbuzz_so_save_regs_and_resolve
  POP_REG(lr)
  add sp, #4
  .cfi_adjust_cfa_offset -4
  bx ip

  // Force constant pool for ldr above
  .ltorg

  .cfi_endproc

3:
  .word _libharfbuzz_so_tramp_table - (2b + 8) + 1060

/*
 * Copyright 2018-2025 Yury Gribov
 *
 * The MIT License (MIT)
 *
 * Use of this source code is governed by MIT license that can be
 * found in the LICENSE.txt file.
 */

  .globl hb_ft_hb_font_changed
  .p2align 4
  .type hb_ft_hb_font_changed, %function
#ifndef IMPLIB_EXPORT_SHIMS
  .hidden hb_ft_hb_font_changed
#endif
hb_ft_hb_font_changed:
  .cfi_startproc

1:
  // Load address
  // TODO: can we do this faster on newer ARMs?
  ldr ip, 3f
2:
  add ip, pc, ip
  ldr ip, [ip]

  cmp ip, #0

  // Fast path
  bxne ip

  // Slow path
  ldr ip, =266
  push {ip}
  .cfi_adjust_cfa_offset 4
  PUSH_REG(lr)
  bl _libharfbuzz_so_save_regs_and_resolve
  POP_REG(lr)
  add sp, #4
  .cfi_adjust_cfa_offset -4
  bx ip

  // Force constant pool for ldr above
  .ltorg

  .cfi_endproc

3:
  .word _libharfbuzz_so_tramp_table - (2b + 8) + 1064

/*
 * Copyright 2018-2025 Yury Gribov
 *
 * The MIT License (MIT)
 *
 * Use of this source code is governed by MIT license that can be
 * found in the LICENSE.txt file.
 */

  .globl hb_glib_blob_create
  .p2align 4
  .type hb_glib_blob_create, %function
#ifndef IMPLIB_EXPORT_SHIMS
  .hidden hb_glib_blob_create
#endif
hb_glib_blob_create:
  .cfi_startproc

1:
  // Load address
  // TODO: can we do this faster on newer ARMs?
  ldr ip, 3f
2:
  add ip, pc, ip
  ldr ip, [ip]

  cmp ip, #0

  // Fast path
  bxne ip

  // Slow path
  ldr ip, =267
  push {ip}
  .cfi_adjust_cfa_offset 4
  PUSH_REG(lr)
  bl _libharfbuzz_so_save_regs_and_resolve
  POP_REG(lr)
  add sp, #4
  .cfi_adjust_cfa_offset -4
  bx ip

  // Force constant pool for ldr above
  .ltorg

  .cfi_endproc

3:
  .word _libharfbuzz_so_tramp_table - (2b + 8) + 1068

/*
 * Copyright 2018-2025 Yury Gribov
 *
 * The MIT License (MIT)
 *
 * Use of this source code is governed by MIT license that can be
 * found in the LICENSE.txt file.
 */

  .globl hb_glib_get_unicode_funcs
  .p2align 4
  .type hb_glib_get_unicode_funcs, %function
#ifndef IMPLIB_EXPORT_SHIMS
  .hidden hb_glib_get_unicode_funcs
#endif
hb_glib_get_unicode_funcs:
  .cfi_startproc

1:
  // Load address
  // TODO: can we do this faster on newer ARMs?
  ldr ip, 3f
2:
  add ip, pc, ip
  ldr ip, [ip]

  cmp ip, #0

  // Fast path
  bxne ip

  // Slow path
  ldr ip, =268
  push {ip}
  .cfi_adjust_cfa_offset 4
  PUSH_REG(lr)
  bl _libharfbuzz_so_save_regs_and_resolve
  POP_REG(lr)
  add sp, #4
  .cfi_adjust_cfa_offset -4
  bx ip

  // Force constant pool for ldr above
  .ltorg

  .cfi_endproc

3:
  .word _libharfbuzz_so_tramp_table - (2b + 8) + 1072

/*
 * Copyright 2018-2025 Yury Gribov
 *
 * The MIT License (MIT)
 *
 * Use of this source code is governed by MIT license that can be
 * found in the LICENSE.txt file.
 */

  .globl hb_glib_script_from_script
  .p2align 4
  .type hb_glib_script_from_script, %function
#ifndef IMPLIB_EXPORT_SHIMS
  .hidden hb_glib_script_from_script
#endif
hb_glib_script_from_script:
  .cfi_startproc

1:
  // Load address
  // TODO: can we do this faster on newer ARMs?
  ldr ip, 3f
2:
  add ip, pc, ip
  ldr ip, [ip]

  cmp ip, #0

  // Fast path
  bxne ip

  // Slow path
  ldr ip, =269
  push {ip}
  .cfi_adjust_cfa_offset 4
  PUSH_REG(lr)
  bl _libharfbuzz_so_save_regs_and_resolve
  POP_REG(lr)
  add sp, #4
  .cfi_adjust_cfa_offset -4
  bx ip

  // Force constant pool for ldr above
  .ltorg

  .cfi_endproc

3:
  .word _libharfbuzz_so_tramp_table - (2b + 8) + 1076

/*
 * Copyright 2018-2025 Yury Gribov
 *
 * The MIT License (MIT)
 *
 * Use of this source code is governed by MIT license that can be
 * found in the LICENSE.txt file.
 */

  .globl hb_glib_script_to_script
  .p2align 4
  .type hb_glib_script_to_script, %function
#ifndef IMPLIB_EXPORT_SHIMS
  .hidden hb_glib_script_to_script
#endif
hb_glib_script_to_script:
  .cfi_startproc

1:
  // Load address
  // TODO: can we do this faster on newer ARMs?
  ldr ip, 3f
2:
  add ip, pc, ip
  ldr ip, [ip]

  cmp ip, #0

  // Fast path
  bxne ip

  // Slow path
  ldr ip, =270
  push {ip}
  .cfi_adjust_cfa_offset 4
  PUSH_REG(lr)
  bl _libharfbuzz_so_save_regs_and_resolve
  POP_REG(lr)
  add sp, #4
  .cfi_adjust_cfa_offset -4
  bx ip

  // Force constant pool for ldr above
  .ltorg

  .cfi_endproc

3:
  .word _libharfbuzz_so_tramp_table - (2b + 8) + 1080

/*
 * Copyright 2018-2025 Yury Gribov
 *
 * The MIT License (MIT)
 *
 * Use of this source code is governed by MIT license that can be
 * found in the LICENSE.txt file.
 */

  .globl hb_glyph_info_get_glyph_flags
  .p2align 4
  .type hb_glyph_info_get_glyph_flags, %function
#ifndef IMPLIB_EXPORT_SHIMS
  .hidden hb_glyph_info_get_glyph_flags
#endif
hb_glyph_info_get_glyph_flags:
  .cfi_startproc

1:
  // Load address
  // TODO: can we do this faster on newer ARMs?
  ldr ip, 3f
2:
  add ip, pc, ip
  ldr ip, [ip]

  cmp ip, #0

  // Fast path
  bxne ip

  // Slow path
  ldr ip, =271
  push {ip}
  .cfi_adjust_cfa_offset 4
  PUSH_REG(lr)
  bl _libharfbuzz_so_save_regs_and_resolve
  POP_REG(lr)
  add sp, #4
  .cfi_adjust_cfa_offset -4
  bx ip

  // Force constant pool for ldr above
  .ltorg

  .cfi_endproc

3:
  .word _libharfbuzz_so_tramp_table - (2b + 8) + 1084

/*
 * Copyright 2018-2025 Yury Gribov
 *
 * The MIT License (MIT)
 *
 * Use of this source code is governed by MIT license that can be
 * found in the LICENSE.txt file.
 */

  .globl hb_graphite2_face_get_gr_face
  .p2align 4
  .type hb_graphite2_face_get_gr_face, %function
#ifndef IMPLIB_EXPORT_SHIMS
  .hidden hb_graphite2_face_get_gr_face
#endif
hb_graphite2_face_get_gr_face:
  .cfi_startproc

1:
  // Load address
  // TODO: can we do this faster on newer ARMs?
  ldr ip, 3f
2:
  add ip, pc, ip
  ldr ip, [ip]

  cmp ip, #0

  // Fast path
  bxne ip

  // Slow path
  ldr ip, =272
  push {ip}
  .cfi_adjust_cfa_offset 4
  PUSH_REG(lr)
  bl _libharfbuzz_so_save_regs_and_resolve
  POP_REG(lr)
  add sp, #4
  .cfi_adjust_cfa_offset -4
  bx ip

  // Force constant pool for ldr above
  .ltorg

  .cfi_endproc

3:
  .word _libharfbuzz_so_tramp_table - (2b + 8) + 1088

/*
 * Copyright 2018-2025 Yury Gribov
 *
 * The MIT License (MIT)
 *
 * Use of this source code is governed by MIT license that can be
 * found in the LICENSE.txt file.
 */

  .globl hb_graphite2_font_get_gr_font
  .p2align 4
  .type hb_graphite2_font_get_gr_font, %function
#ifndef IMPLIB_EXPORT_SHIMS
  .hidden hb_graphite2_font_get_gr_font
#endif
hb_graphite2_font_get_gr_font:
  .cfi_startproc

1:
  // Load address
  // TODO: can we do this faster on newer ARMs?
  ldr ip, 3f
2:
  add ip, pc, ip
  ldr ip, [ip]

  cmp ip, #0

  // Fast path
  bxne ip

  // Slow path
  ldr ip, =273
  push {ip}
  .cfi_adjust_cfa_offset 4
  PUSH_REG(lr)
  bl _libharfbuzz_so_save_regs_and_resolve
  POP_REG(lr)
  add sp, #4
  .cfi_adjust_cfa_offset -4
  bx ip

  // Force constant pool for ldr above
  .ltorg

  .cfi_endproc

3:
  .word _libharfbuzz_so_tramp_table - (2b + 8) + 1092

/*
 * Copyright 2018-2025 Yury Gribov
 *
 * The MIT License (MIT)
 *
 * Use of this source code is governed by MIT license that can be
 * found in the LICENSE.txt file.
 */

  .globl hb_language_from_string
  .p2align 4
  .type hb_language_from_string, %function
#ifndef IMPLIB_EXPORT_SHIMS
  .hidden hb_language_from_string
#endif
hb_language_from_string:
  .cfi_startproc

1:
  // Load address
  // TODO: can we do this faster on newer ARMs?
  ldr ip, 3f
2:
  add ip, pc, ip
  ldr ip, [ip]

  cmp ip, #0

  // Fast path
  bxne ip

  // Slow path
  ldr ip, =274
  push {ip}
  .cfi_adjust_cfa_offset 4
  PUSH_REG(lr)
  bl _libharfbuzz_so_save_regs_and_resolve
  POP_REG(lr)
  add sp, #4
  .cfi_adjust_cfa_offset -4
  bx ip

  // Force constant pool for ldr above
  .ltorg

  .cfi_endproc

3:
  .word _libharfbuzz_so_tramp_table - (2b + 8) + 1096

/*
 * Copyright 2018-2025 Yury Gribov
 *
 * The MIT License (MIT)
 *
 * Use of this source code is governed by MIT license that can be
 * found in the LICENSE.txt file.
 */

  .globl hb_language_get_default
  .p2align 4
  .type hb_language_get_default, %function
#ifndef IMPLIB_EXPORT_SHIMS
  .hidden hb_language_get_default
#endif
hb_language_get_default:
  .cfi_startproc

1:
  // Load address
  // TODO: can we do this faster on newer ARMs?
  ldr ip, 3f
2:
  add ip, pc, ip
  ldr ip, [ip]

  cmp ip, #0

  // Fast path
  bxne ip

  // Slow path
  ldr ip, =275
  push {ip}
  .cfi_adjust_cfa_offset 4
  PUSH_REG(lr)
  bl _libharfbuzz_so_save_regs_and_resolve
  POP_REG(lr)
  add sp, #4
  .cfi_adjust_cfa_offset -4
  bx ip

  // Force constant pool for ldr above
  .ltorg

  .cfi_endproc

3:
  .word _libharfbuzz_so_tramp_table - (2b + 8) + 1100

/*
 * Copyright 2018-2025 Yury Gribov
 *
 * The MIT License (MIT)
 *
 * Use of this source code is governed by MIT license that can be
 * found in the LICENSE.txt file.
 */

  .globl hb_language_matches
  .p2align 4
  .type hb_language_matches, %function
#ifndef IMPLIB_EXPORT_SHIMS
  .hidden hb_language_matches
#endif
hb_language_matches:
  .cfi_startproc

1:
  // Load address
  // TODO: can we do this faster on newer ARMs?
  ldr ip, 3f
2:
  add ip, pc, ip
  ldr ip, [ip]

  cmp ip, #0

  // Fast path
  bxne ip

  // Slow path
  ldr ip, =276
  push {ip}
  .cfi_adjust_cfa_offset 4
  PUSH_REG(lr)
  bl _libharfbuzz_so_save_regs_and_resolve
  POP_REG(lr)
  add sp, #4
  .cfi_adjust_cfa_offset -4
  bx ip

  // Force constant pool for ldr above
  .ltorg

  .cfi_endproc

3:
  .word _libharfbuzz_so_tramp_table - (2b + 8) + 1104

/*
 * Copyright 2018-2025 Yury Gribov
 *
 * The MIT License (MIT)
 *
 * Use of this source code is governed by MIT license that can be
 * found in the LICENSE.txt file.
 */

  .globl hb_language_to_string
  .p2align 4
  .type hb_language_to_string, %function
#ifndef IMPLIB_EXPORT_SHIMS
  .hidden hb_language_to_string
#endif
hb_language_to_string:
  .cfi_startproc

1:
  // Load address
  // TODO: can we do this faster on newer ARMs?
  ldr ip, 3f
2:
  add ip, pc, ip
  ldr ip, [ip]

  cmp ip, #0

  // Fast path
  bxne ip

  // Slow path
  ldr ip, =277
  push {ip}
  .cfi_adjust_cfa_offset 4
  PUSH_REG(lr)
  bl _libharfbuzz_so_save_regs_and_resolve
  POP_REG(lr)
  add sp, #4
  .cfi_adjust_cfa_offset -4
  bx ip

  // Force constant pool for ldr above
  .ltorg

  .cfi_endproc

3:
  .word _libharfbuzz_so_tramp_table - (2b + 8) + 1108

/*
 * Copyright 2018-2025 Yury Gribov
 *
 * The MIT License (MIT)
 *
 * Use of this source code is governed by MIT license that can be
 * found in the LICENSE.txt file.
 */

  .globl hb_malloc
  .p2align 4
  .type hb_malloc, %function
#ifndef IMPLIB_EXPORT_SHIMS
  .hidden hb_malloc
#endif
hb_malloc:
  .cfi_startproc

1:
  // Load address
  // TODO: can we do this faster on newer ARMs?
  ldr ip, 3f
2:
  add ip, pc, ip
  ldr ip, [ip]

  cmp ip, #0

  // Fast path
  bxne ip

  // Slow path
  ldr ip, =278
  push {ip}
  .cfi_adjust_cfa_offset 4
  PUSH_REG(lr)
  bl _libharfbuzz_so_save_regs_and_resolve
  POP_REG(lr)
  add sp, #4
  .cfi_adjust_cfa_offset -4
  bx ip

  // Force constant pool for ldr above
  .ltorg

  .cfi_endproc

3:
  .word _libharfbuzz_so_tramp_table - (2b + 8) + 1112

/*
 * Copyright 2018-2025 Yury Gribov
 *
 * The MIT License (MIT)
 *
 * Use of this source code is governed by MIT license that can be
 * found in the LICENSE.txt file.
 */

  .globl hb_map_allocation_successful
  .p2align 4
  .type hb_map_allocation_successful, %function
#ifndef IMPLIB_EXPORT_SHIMS
  .hidden hb_map_allocation_successful
#endif
hb_map_allocation_successful:
  .cfi_startproc

1:
  // Load address
  // TODO: can we do this faster on newer ARMs?
  ldr ip, 3f
2:
  add ip, pc, ip
  ldr ip, [ip]

  cmp ip, #0

  // Fast path
  bxne ip

  // Slow path
  ldr ip, =279
  push {ip}
  .cfi_adjust_cfa_offset 4
  PUSH_REG(lr)
  bl _libharfbuzz_so_save_regs_and_resolve
  POP_REG(lr)
  add sp, #4
  .cfi_adjust_cfa_offset -4
  bx ip

  // Force constant pool for ldr above
  .ltorg

  .cfi_endproc

3:
  .word _libharfbuzz_so_tramp_table - (2b + 8) + 1116

/*
 * Copyright 2018-2025 Yury Gribov
 *
 * The MIT License (MIT)
 *
 * Use of this source code is governed by MIT license that can be
 * found in the LICENSE.txt file.
 */

  .globl hb_map_clear
  .p2align 4
  .type hb_map_clear, %function
#ifndef IMPLIB_EXPORT_SHIMS
  .hidden hb_map_clear
#endif
hb_map_clear:
  .cfi_startproc

1:
  // Load address
  // TODO: can we do this faster on newer ARMs?
  ldr ip, 3f
2:
  add ip, pc, ip
  ldr ip, [ip]

  cmp ip, #0

  // Fast path
  bxne ip

  // Slow path
  ldr ip, =280
  push {ip}
  .cfi_adjust_cfa_offset 4
  PUSH_REG(lr)
  bl _libharfbuzz_so_save_regs_and_resolve
  POP_REG(lr)
  add sp, #4
  .cfi_adjust_cfa_offset -4
  bx ip

  // Force constant pool for ldr above
  .ltorg

  .cfi_endproc

3:
  .word _libharfbuzz_so_tramp_table - (2b + 8) + 1120

/*
 * Copyright 2018-2025 Yury Gribov
 *
 * The MIT License (MIT)
 *
 * Use of this source code is governed by MIT license that can be
 * found in the LICENSE.txt file.
 */

  .globl hb_map_copy
  .p2align 4
  .type hb_map_copy, %function
#ifndef IMPLIB_EXPORT_SHIMS
  .hidden hb_map_copy
#endif
hb_map_copy:
  .cfi_startproc

1:
  // Load address
  // TODO: can we do this faster on newer ARMs?
  ldr ip, 3f
2:
  add ip, pc, ip
  ldr ip, [ip]

  cmp ip, #0

  // Fast path
  bxne ip

  // Slow path
  ldr ip, =281
  push {ip}
  .cfi_adjust_cfa_offset 4
  PUSH_REG(lr)
  bl _libharfbuzz_so_save_regs_and_resolve
  POP_REG(lr)
  add sp, #4
  .cfi_adjust_cfa_offset -4
  bx ip

  // Force constant pool for ldr above
  .ltorg

  .cfi_endproc

3:
  .word _libharfbuzz_so_tramp_table - (2b + 8) + 1124

/*
 * Copyright 2018-2025 Yury Gribov
 *
 * The MIT License (MIT)
 *
 * Use of this source code is governed by MIT license that can be
 * found in the LICENSE.txt file.
 */

  .globl hb_map_create
  .p2align 4
  .type hb_map_create, %function
#ifndef IMPLIB_EXPORT_SHIMS
  .hidden hb_map_create
#endif
hb_map_create:
  .cfi_startproc

1:
  // Load address
  // TODO: can we do this faster on newer ARMs?
  ldr ip, 3f
2:
  add ip, pc, ip
  ldr ip, [ip]

  cmp ip, #0

  // Fast path
  bxne ip

  // Slow path
  ldr ip, =282
  push {ip}
  .cfi_adjust_cfa_offset 4
  PUSH_REG(lr)
  bl _libharfbuzz_so_save_regs_and_resolve
  POP_REG(lr)
  add sp, #4
  .cfi_adjust_cfa_offset -4
  bx ip

  // Force constant pool for ldr above
  .ltorg

  .cfi_endproc

3:
  .word _libharfbuzz_so_tramp_table - (2b + 8) + 1128

/*
 * Copyright 2018-2025 Yury Gribov
 *
 * The MIT License (MIT)
 *
 * Use of this source code is governed by MIT license that can be
 * found in the LICENSE.txt file.
 */

  .globl hb_map_del
  .p2align 4
  .type hb_map_del, %function
#ifndef IMPLIB_EXPORT_SHIMS
  .hidden hb_map_del
#endif
hb_map_del:
  .cfi_startproc

1:
  // Load address
  // TODO: can we do this faster on newer ARMs?
  ldr ip, 3f
2:
  add ip, pc, ip
  ldr ip, [ip]

  cmp ip, #0

  // Fast path
  bxne ip

  // Slow path
  ldr ip, =283
  push {ip}
  .cfi_adjust_cfa_offset 4
  PUSH_REG(lr)
  bl _libharfbuzz_so_save_regs_and_resolve
  POP_REG(lr)
  add sp, #4
  .cfi_adjust_cfa_offset -4
  bx ip

  // Force constant pool for ldr above
  .ltorg

  .cfi_endproc

3:
  .word _libharfbuzz_so_tramp_table - (2b + 8) + 1132

/*
 * Copyright 2018-2025 Yury Gribov
 *
 * The MIT License (MIT)
 *
 * Use of this source code is governed by MIT license that can be
 * found in the LICENSE.txt file.
 */

  .globl hb_map_destroy
  .p2align 4
  .type hb_map_destroy, %function
#ifndef IMPLIB_EXPORT_SHIMS
  .hidden hb_map_destroy
#endif
hb_map_destroy:
  .cfi_startproc

1:
  // Load address
  // TODO: can we do this faster on newer ARMs?
  ldr ip, 3f
2:
  add ip, pc, ip
  ldr ip, [ip]

  cmp ip, #0

  // Fast path
  bxne ip

  // Slow path
  ldr ip, =284
  push {ip}
  .cfi_adjust_cfa_offset 4
  PUSH_REG(lr)
  bl _libharfbuzz_so_save_regs_and_resolve
  POP_REG(lr)
  add sp, #4
  .cfi_adjust_cfa_offset -4
  bx ip

  // Force constant pool for ldr above
  .ltorg

  .cfi_endproc

3:
  .word _libharfbuzz_so_tramp_table - (2b + 8) + 1136

/*
 * Copyright 2018-2025 Yury Gribov
 *
 * The MIT License (MIT)
 *
 * Use of this source code is governed by MIT license that can be
 * found in the LICENSE.txt file.
 */

  .globl hb_map_get
  .p2align 4
  .type hb_map_get, %function
#ifndef IMPLIB_EXPORT_SHIMS
  .hidden hb_map_get
#endif
hb_map_get:
  .cfi_startproc

1:
  // Load address
  // TODO: can we do this faster on newer ARMs?
  ldr ip, 3f
2:
  add ip, pc, ip
  ldr ip, [ip]

  cmp ip, #0

  // Fast path
  bxne ip

  // Slow path
  ldr ip, =285
  push {ip}
  .cfi_adjust_cfa_offset 4
  PUSH_REG(lr)
  bl _libharfbuzz_so_save_regs_and_resolve
  POP_REG(lr)
  add sp, #4
  .cfi_adjust_cfa_offset -4
  bx ip

  // Force constant pool for ldr above
  .ltorg

  .cfi_endproc

3:
  .word _libharfbuzz_so_tramp_table - (2b + 8) + 1140

/*
 * Copyright 2018-2025 Yury Gribov
 *
 * The MIT License (MIT)
 *
 * Use of this source code is governed by MIT license that can be
 * found in the LICENSE.txt file.
 */

  .globl hb_map_get_empty
  .p2align 4
  .type hb_map_get_empty, %function
#ifndef IMPLIB_EXPORT_SHIMS
  .hidden hb_map_get_empty
#endif
hb_map_get_empty:
  .cfi_startproc

1:
  // Load address
  // TODO: can we do this faster on newer ARMs?
  ldr ip, 3f
2:
  add ip, pc, ip
  ldr ip, [ip]

  cmp ip, #0

  // Fast path
  bxne ip

  // Slow path
  ldr ip, =286
  push {ip}
  .cfi_adjust_cfa_offset 4
  PUSH_REG(lr)
  bl _libharfbuzz_so_save_regs_and_resolve
  POP_REG(lr)
  add sp, #4
  .cfi_adjust_cfa_offset -4
  bx ip

  // Force constant pool for ldr above
  .ltorg

  .cfi_endproc

3:
  .word _libharfbuzz_so_tramp_table - (2b + 8) + 1144

/*
 * Copyright 2018-2025 Yury Gribov
 *
 * The MIT License (MIT)
 *
 * Use of this source code is governed by MIT license that can be
 * found in the LICENSE.txt file.
 */

  .globl hb_map_get_population
  .p2align 4
  .type hb_map_get_population, %function
#ifndef IMPLIB_EXPORT_SHIMS
  .hidden hb_map_get_population
#endif
hb_map_get_population:
  .cfi_startproc

1:
  // Load address
  // TODO: can we do this faster on newer ARMs?
  ldr ip, 3f
2:
  add ip, pc, ip
  ldr ip, [ip]

  cmp ip, #0

  // Fast path
  bxne ip

  // Slow path
  ldr ip, =287
  push {ip}
  .cfi_adjust_cfa_offset 4
  PUSH_REG(lr)
  bl _libharfbuzz_so_save_regs_and_resolve
  POP_REG(lr)
  add sp, #4
  .cfi_adjust_cfa_offset -4
  bx ip

  // Force constant pool for ldr above
  .ltorg

  .cfi_endproc

3:
  .word _libharfbuzz_so_tramp_table - (2b + 8) + 1148

/*
 * Copyright 2018-2025 Yury Gribov
 *
 * The MIT License (MIT)
 *
 * Use of this source code is governed by MIT license that can be
 * found in the LICENSE.txt file.
 */

  .globl hb_map_get_user_data
  .p2align 4
  .type hb_map_get_user_data, %function
#ifndef IMPLIB_EXPORT_SHIMS
  .hidden hb_map_get_user_data
#endif
hb_map_get_user_data:
  .cfi_startproc

1:
  // Load address
  // TODO: can we do this faster on newer ARMs?
  ldr ip, 3f
2:
  add ip, pc, ip
  ldr ip, [ip]

  cmp ip, #0

  // Fast path
  bxne ip

  // Slow path
  ldr ip, =288
  push {ip}
  .cfi_adjust_cfa_offset 4
  PUSH_REG(lr)
  bl _libharfbuzz_so_save_regs_and_resolve
  POP_REG(lr)
  add sp, #4
  .cfi_adjust_cfa_offset -4
  bx ip

  // Force constant pool for ldr above
  .ltorg

  .cfi_endproc

3:
  .word _libharfbuzz_so_tramp_table - (2b + 8) + 1152

/*
 * Copyright 2018-2025 Yury Gribov
 *
 * The MIT License (MIT)
 *
 * Use of this source code is governed by MIT license that can be
 * found in the LICENSE.txt file.
 */

  .globl hb_map_has
  .p2align 4
  .type hb_map_has, %function
#ifndef IMPLIB_EXPORT_SHIMS
  .hidden hb_map_has
#endif
hb_map_has:
  .cfi_startproc

1:
  // Load address
  // TODO: can we do this faster on newer ARMs?
  ldr ip, 3f
2:
  add ip, pc, ip
  ldr ip, [ip]

  cmp ip, #0

  // Fast path
  bxne ip

  // Slow path
  ldr ip, =289
  push {ip}
  .cfi_adjust_cfa_offset 4
  PUSH_REG(lr)
  bl _libharfbuzz_so_save_regs_and_resolve
  POP_REG(lr)
  add sp, #4
  .cfi_adjust_cfa_offset -4
  bx ip

  // Force constant pool for ldr above
  .ltorg

  .cfi_endproc

3:
  .word _libharfbuzz_so_tramp_table - (2b + 8) + 1156

/*
 * Copyright 2018-2025 Yury Gribov
 *
 * The MIT License (MIT)
 *
 * Use of this source code is governed by MIT license that can be
 * found in the LICENSE.txt file.
 */

  .globl hb_map_hash
  .p2align 4
